(dp0
S'feh_rh'
p1
(lp2
cnumpy.core.multiarray
_reconstruct
p3
(cpynbody.array
SimArray
p4
(I0
tp5
S'b'
p6
tp7
Rp8
(ccopy_reg
_reconstructor
p9
(cpynbody.units
NoUnit
p10
c__builtin__
object
p11
Ntp12
Rp13
(dp14
S'_no_unit'
p15
I01
sbI1
(tcnumpy
dtype
p16
(S'f8'
p17
I0
I1
tp18
Rp19
(I3
S'<'
p20
NNNI-1
I-1
I0
tp21
bI00
S'o$$\xa4\x93\x0c\xf9\xbf'
p22
tp23
basS'zstar_tot'
p24
(lp25
g3
(g4
(I0
tp26
g6
tp27
Rp28
(g13
I1
(tg19
I00
S'\xa7E\xdf\x1a\x92\xf27?'
p29
tp30
basS'mgas2'
p31
(lp32
g3
(g4
(I0
tp33
g6
tp34
Rp35
(g9
(cpynbody.units
CompositeUnit
p36
g11
Ntp37
Rp38
(dp39
S'_powers'
p40
(lp41
cfractions
Fraction
p42
(S'1'
p43
tp44
Rp45
asS'_scale'
p46
I1
sS'_bases'
p47
(lp48
cpynbody.units
_resurrect_named_unit
p49
(S'Msol'
p50
S'M_{\\odot}'
p51
g9
(g36
g11
Ntp52
Rp53
(dp54
g40
(lp55
I1
asg46
F1.98892e+30
sg47
(lp56
g49
(S'kg'
p57
NNtp58
Rp59
asbtp60
Rp61
asbI1
(tg19
I00
S'f\xca\x87*(\xe6\x9dA'
p62
tp63
basS'oh_gas2'
p64
(lp65
g3
(g4
(I0
tp66
g6
tp67
Rp68
(g13
I1
(tg19
I00
S'\xac\x1e\xabT\xbbK\x1d@'
p69
tp70
basS'oh_gas3'
p71
(lp72
g3
(g4
(I0
tp73
g6
tp74
Rp75
(g13
I1
(tg19
I00
S'\xac\x1e\xabT\xbbK\x1d@'
p76
tp77
basS'mstar_rh'
p78
(lp79
g3
(g4
(I0
tp80
g6
tp81
Rp82
(g38
I1
(tg19
I00
S'&\xfb&wF\xb6eA'
p83
tp84
basS'zstar3'
p85
(lp86
g3
(g4
(I0
tp87
g6
tp88
Rp89
(g13
I1
(tg19
I00
S'\x8dK\xa8\xcbK\xc79?'
p90
tp91
basS'feh'
p92
(lp93
g3
(g4
(I0
tp94
g6
tp95
Rp96
(g13
I1
(tg19
I00
S']\xdbI\x8d\xee\x8a\xfa\xbf'
p97
tp98
basS'zstar'
p99
(lp100
g3
(g4
(I0
tp101
g6
tp102
Rp103
(g13
I1
(tg19
I00
S"\x12\x9c~\x8d\x9a';?"
p104
tp105
basS'mgas_tot'
p106
(lp107
g3
(g4
(I0
tp108
g6
tp109
Rp110
(g38
I1
(tg19
I00
S'\x0e\x06W\xaf<\x91\xd1A'
p111
tp112
basS'feh2'
p113
(lp114
g3
(g4
(I0
tp115
g6
tp116
Rp117
(g13
I1
(tg19
I00
S'\x8b\x1e\xed4b}\xf9\xbf'
p118
tp119
basS'rhalf'
p120
(lp121
g3
(g4
(I0
tp122
g6
tp123
Rp124
(g9
(g36
g11
Ntp125
Rp126
(dp127
g40
(lp128
g42
(g43
tp129
Rp130
asg46
F1.0
sg47
(lp131
g49
(S'kpc'
p132
Ng9
(g36
g11
Ntp133
Rp134
(dp135
g40
(lp136
I1
asg46
F1000.0
sg47
(lp137
g49
(S'pc'
p138
Ng9
(g36
g11
Ntp139
Rp140
(dp141
g40
(lp142
I1
asg46
F3.08568025e+16
sg47
(lp143
g49
(S'm'
p144
NNtp145
Rp146
asbtp147
Rp148
asbtp149
Rp150
asbI1
(tg19
I00
S'\xce\xbd\xcfu_\xe0\xf3?'
p151
tp152
basS'oh_gas_tot'
p153
(lp154
g3
(g4
(I0
tp155
g6
tp156
Rp157
(g13
I1
(tg19
I00
S'\xdbfy\xaa\x02\x8f\x1c@'
p158
tp159
basS'time'
p160
(lp161
F6.921861382067592
asS'mstar_tot'
p162
(lp163
g3
(g4
(I0
tp164
g6
tp165
Rp166
(g38
I1
(tg19
I00
S'\x99{k\x93|;zA'
p167
tp168
basS'oh_gas'
p169
(lp170
g3
(g4
(I0
tp171
g6
tp172
Rp173
(g13
I1
(tg19
I00
S'\x1cNI\xa5\xebM\x1d@'
p174
tp175
basS'z'
p176
(lp177
F0.7688100988343307
asS'zstar2'
p178
(lp179
g3
(g4
(I0
tp180
g6
tp181
Rp182
(g13
I1
(tg19
I00
S'\x8dK\xa8\xcbK\xc79?'
p183
tp184
basS'mstar2'
p185
(lp186
g3
(g4
(I0
tp187
g6
tp188
Rp189
(g38
I1
(tg19
I00
S'"L\x05\x81\xd3\xacsA'
p190
tp191
bas.