(dp0
S'feh_rh'
p1
(lp2
sS'zstar_tot'
p3
(lp4
sS'mgas2'
p5
(lp6
sS'oh_gas2'
p7
(lp8
sS'oh_gas3'
p9
(lp10
sS'mstar_rh'
p11
(lp12
sS'zstar3'
p13
(lp14
sS'feh'
p15
(lp16
sS'zstar'
p17
(lp18
sS'mgas_tot'
p19
(lp20
sS'feh2'
p21
(lp22
sS'rhalf'
p23
(lp24
sS'oh_gas_tot'
p25
(lp26
sS'time'
p27
(lp28
sS'mstar_tot'
p29
(lp30
sS'oh_gas'
p31
(lp32
sS'z'
p33
(lp34
sS'zstar2'
p35
(lp36
sS'mstar2'
p37
(lp38
s.