(dp0
S'feh_rh'
p1
cnumpy.core.multiarray
_reconstruct
p2
(cpynbody.array
SimArray
p3
(I0
tp4
S'b'
p5
tp6
Rp7
(ccopy_reg
_reconstructor
p8
(cpynbody.units
NoUnit
p9
c__builtin__
object
p10
Ntp11
Rp12
(dp13
S'_no_unit'
p14
I01
sbI1
(tcnumpy
dtype
p15
(S'f8'
p16
I0
I1
tp17
Rp18
(I3
S'<'
p19
NNNI-1
I-1
I0
tp20
bI00
S'\xac\xa4\n\x91Gv\xca\xbf'
p21
tp22
bsS'zstar_all'
p23
g2
(g3
(I0
tp24
g5
tp25
Rp26
(g12
I1
(tg18
I00
S'\xe7\x91z\x8a"\xad\x8f?'
p27
tp28
bsS'mgas2'
p29
g2
(g3
(I0
tp30
g5
tp31
Rp32
(g8
(cpynbody.units
CompositeUnit
p33
g10
Ntp34
Rp35
(dp36
S'_powers'
p37
(lp38
cfractions
Fraction
p39
(S'1'
p40
tp41
Rp42
asS'_scale'
p43
I1
sS'_bases'
p44
(lp45
cpynbody.units
_resurrect_named_unit
p46
(S'Msol'
p47
S'M_{\\odot}'
p48
g8
(g33
g10
Ntp49
Rp50
(dp51
g37
(lp52
I1
asg43
F1.98892e+30
sg44
(lp53
g46
(S'kg'
p54
NNtp55
Rp56
asbtp57
Rp58
asbI1
(tg18
I00
S'r\\!h\xaf\x94\xf8A'
p59
tp60
bsS'oh_gas2'
p61
g2
(g3
(I0
tp62
g5
tp63
Rp64
(g12
I1
(tg18
I00
S'H\x0e\xdbO\xbc\x0e"@'
p65
tp66
bsS'oh_gas3'
p67
g2
(g3
(I0
tp68
g5
tp69
Rp70
(g12
I1
(tg18
I00
S'H\x0e\xdbO\xbc\x0e"@'
p71
tp72
bsS'mstar_rh'
p73
g2
(g3
(I0
tp74
g5
tp75
Rp76
(g35
I1
(tg18
I00
S'I\xb1\xe8\x8f\xa5i\x12B'
p77
tp78
bsS'zstar3'
p79
g2
(g3
(I0
tp80
g5
tp81
Rp82
(g12
I1
(tg18
I00
S'r\xb0\t\xb2i\xd0\x90?'
p83
tp84
bsS'oh_gas_all'
p85
g2
(g3
(I0
tp86
g5
tp87
Rp88
(g12
I1
(tg18
I00
S'\x8c\xda/\xcd\xfc\x12!@'
p89
tp90
bsS'feh'
p91
g2
(g3
(I0
tp92
g5
tp93
Rp94
(g12
I1
(tg18
I00
S'\x8a\xee|X1\xf2\xd0\xbf'
p95
tp96
bsS'zstar'
p97
g2
(g3
(I0
tp98
g5
tp99
Rp100
(g12
I1
(tg18
I00
S'\xe2\xad\xdb\x1d\x88\x9f\x90?'
p101
tp102
bsS'feh2'
p103
g2
(g3
(I0
tp104
g5
tp105
Rp106
(g12
I1
(tg18
I00
S'a\xf2\x1a\xd5MY\xc8\xbf'
p107
tp108
bsS'mgas'
p109
g2
(g3
(I0
tp110
g5
tp111
Rp112
(g35
I1
(tg18
I00
S'\xfc\xbe\xf1\x89\xd2w/B'
p113
tp114
bsS'time'
p115
F8.648016675675684
sS'rhalf'
p116
g2
(g3
(I0
tp117
g5
tp118
Rp119
(g8
(g33
g10
Ntp120
Rp121
(dp122
g37
(lp123
g39
(g40
tp124
Rp125
asg43
F1.0
sg44
(lp126
g46
(S'kpc'
p127
Ng8
(g33
g10
Ntp128
Rp129
(dp130
g37
(lp131
I1
asg43
F1000.0
sg44
(lp132
g46
(S'pc'
p133
Ng8
(g33
g10
Ntp134
Rp135
(dp136
g37
(lp137
I1
asg43
F3.08568025e+16
sg44
(lp138
g46
(S'm'
p139
NNtp140
Rp141
asbtp142
Rp143
asbtp144
Rp145
asbI1
(tg18
I00
S'\xbdR%o3\r\x08@'
p146
tp147
bsS'oh_gas'
p148
g2
(g3
(I0
tp149
g5
tp150
Rp151
(g12
I1
(tg18
I00
S'\xb6\x91\x07\x1fg)"@'
p152
tp153
bsS'z'
p154
F0.4931565153057902
sS'mstar'
p155
g2
(g3
(I0
tp156
g5
tp157
Rp158
(g35
I1
(tg18
I00
S'\xa7\xa9\xb6\xf9\x16\xb6 B'
p159
tp160
bsS'zstar2'
p161
g2
(g3
(I0
tp162
g5
tp163
Rp164
(g12
I1
(tg18
I00
S'r\xb0\t\xb2i\xd0\x90?'
p165
tp166
bsS'mstar2'
p167
g2
(g3
(I0
tp168
g5
tp169
Rp170
(g35
I1
(tg18
I00
S'@VI\xcd\tF\x1aB'
p171
tp172
bs.