(dp0
S'mstar'
p1
(lp2
cnumpy.core.multiarray
_reconstruct
p3
(cpynbody.array
SimArray
p4
(I0
tp5
S'b'
p6
tp7
Rp8
(ccopy_reg
_reconstructor
p9
(cpynbody.units
CompositeUnit
p10
c__builtin__
object
p11
Ntp12
Rp13
(dp14
S'_powers'
p15
(lp16
cfractions
Fraction
p17
(S'1'
p18
tp19
Rp20
asS'_scale'
p21
I1
sS'_bases'
p22
(lp23
cpynbody.units
_resurrect_named_unit
p24
(S'Msol'
p25
S'M_{\\odot}'
p26
g9
(g10
g11
Ntp27
Rp28
(dp29
g15
(lp30
I1
asg21
F1.98892e+30
sg22
(lp31
g24
(S'kg'
p32
NNtp33
Rp34
asbtp35
Rp36
asbI1
(tcnumpy
dtype
p37
(S'f8'
p38
I0
I1
tp39
Rp40
(I3
S'<'
p41
NNNI-1
I-1
I0
tp42
bI00
S'\x00\x00\x00\x00\x00\x00\x00\x00'
p43
tp44
bag3
(g4
(I0
tp45
g6
tp46
Rp47
(g9
(g10
g11
Ntp48
Rp49
(dp50
g15
(lp51
g17
(g18
tp52
Rp53
asg21
I1
sg22
(lp54
g36
asbI1
(tg40
I00
S'@Z\xa4\xbe\n\xce\x07A'
p55
tp56
bag3
(g4
(I0
tp57
g6
tp58
Rp59
(g9
(g10
g11
Ntp60
Rp61
(dp62
g15
(lp63
g17
(g18
tp64
Rp65
asg21
I1
sg22
(lp66
g36
asbI1
(tg40
I00
S'\x8f\xa63\xd1}X!A'
p67
tp68
bag3
(g4
(I0
tp69
g6
tp70
Rp71
(g9
(g10
g11
Ntp72
Rp73
(dp74
g15
(lp75
g17
(g18
tp76
Rp77
asg21
I1
sg22
(lp78
g36
asbI1
(tg40
I00
S'\xe0F]\xff!\x95-A'
p79
tp80
bag3
(g4
(I0
tp81
g6
tp82
Rp83
(g9
(g10
g11
Ntp84
Rp85
(dp86
g15
(lp87
g17
(g18
tp88
Rp89
asg21
I1
sg22
(lp90
g36
asbI1
(tg40
I00
S'@\xb2\xe0\xb1\xd7U9A'
p91
tp92
bag3
(g4
(I0
tp93
g6
tp94
Rp95
(g9
(g10
g11
Ntp96
Rp97
(dp98
g15
(lp99
g17
(g18
tp100
Rp101
asg21
I1
sg22
(lp102
g36
asbI1
(tg40
I00
S'\xb4s\x16PhTAA'
p103
tp104
bag3
(g4
(I0
tp105
g6
tp106
Rp107
(g9
(g10
g11
Ntp108
Rp109
(dp110
g15
(lp111
g17
(g18
tp112
Rp113
asg21
I1
sg22
(lp114
g36
asbI1
(tg40
I00
S'\xe8\xbe\r_\xa8 EA'
p115
tp116
bag3
(g4
(I0
tp117
g6
tp118
Rp119
(g9
(g10
g11
Ntp120
Rp121
(dp122
g15
(lp123
g17
(g18
tp124
Rp125
asg21
I1
sg22
(lp126
g36
asbI1
(tg40
I00
S'\x10\xaeT\x9d\xb3kIA'
p127
tp128
bag3
(g4
(I0
tp129
g6
tp130
Rp131
(g9
(g10
g11
Ntp132
Rp133
(dp134
g15
(lp135
g17
(g18
tp136
Rp137
asg21
I1
sg22
(lp138
g36
asbI1
(tg40
I00
S'\x12\x03\xd5\xc1\xaa\xc9JA'
p139
tp140
bag3
(g4
(I0
tp141
g6
tp142
Rp143
(g9
(g10
g11
Ntp144
Rp145
(dp146
g15
(lp147
g17
(g18
tp148
Rp149
asg21
I1
sg22
(lp150
g36
asbI1
(tg40
I00
S'\xec\x91\x11V\xa3\xe0LA'
p151
tp152
bag3
(g4
(I0
tp153
g6
tp154
Rp155
(g9
(g10
g11
Ntp156
Rp157
(dp158
g15
(lp159
g17
(g18
tp160
Rp161
asg21
I1
sg22
(lp162
g36
asbI1
(tg40
I00
S'\xdf\xb1\x7f\x1e\x9a\x9aQA'
p163
tp164
bag3
(g4
(I0
tp165
g6
tp166
Rp167
(g9
(g10
g11
Ntp168
Rp169
(dp170
g15
(lp171
g17
(g18
tp172
Rp173
asg21
I1
sg22
(lp174
g36
asbI1
(tg40
I00
S"^\xe6\xc6,\xd5'VA"
p175
tp176
bag3
(g4
(I0
tp177
g6
tp178
Rp179
(g9
(g10
g11
Ntp180
Rp181
(dp182
g15
(lp183
g17
(g18
tp184
Rp185
asg21
I1
sg22
(lp186
g36
asbI1
(tg40
I00
S"R'\xba\xc6\xea\xeeUA"
p187
tp188
bag3
(g4
(I0
tp189
g6
tp190
Rp191
(g9
(g10
g11
Ntp192
Rp193
(dp194
g15
(lp195
g17
(g18
tp196
Rp197
asg21
I1
sg22
(lp198
g36
asbI1
(tg40
I00
S'\xd8X\xb2!+\xc7XA'
p199
tp200
bag3
(g4
(I0
tp201
g6
tp202
Rp203
(g9
(g10
g11
Ntp204
Rp205
(dp206
g15
(lp207
g17
(g18
tp208
Rp209
asg21
I1
sg22
(lp210
g36
asbI1
(tg40
I00
S'\xb6\x11\xf6\xd6\x81!dA'
p211
tp212
bag3
(g4
(I0
tp213
g6
tp214
Rp215
(g9
(g10
g11
Ntp216
Rp217
(dp218
g15
(lp219
g17
(g18
tp220
Rp221
asg21
I1
sg22
(lp222
g36
asbI1
(tg40
I00
S'\x9a"\xa0\x1cq\xdclA'
p223
tp224
bag3
(g4
(I0
tp225
g6
tp226
Rp227
(g9
(g10
g11
Ntp228
Rp229
(dp230
g15
(lp231
g17
(g18
tp232
Rp233
asg21
I1
sg22
(lp234
g36
asbI1
(tg40
I00
S'"\xdf\xec\xbe\xac7nA'
p235
tp236
bag3
(g4
(I0
tp237
g6
tp238
Rp239
(g9
(g10
g11
Ntp240
Rp241
(dp242
g15
(lp243
g17
(g18
tp244
Rp245
asg21
I1
sg22
(lp246
g36
asbI1
(tg40
I00
S'\xa9\x9aO\xec\xc0\x06rA'
p247
tp248
bag3
(g4
(I0
tp249
g6
tp250
Rp251
(g9
(g10
g11
Ntp252
Rp253
(dp254
g15
(lp255
g17
(g18
tp256
Rp257
asg21
I1
sg22
(lp258
g36
asbI1
(tg40
I00
S'pEU\xddc\xfdqA'
p259
tp260
bag3
(g4
(I0
tp261
g6
tp262
Rp263
(g9
(g10
g11
Ntp264
Rp265
(dp266
g15
(lp267
g17
(g18
tp268
Rp269
asg21
I1
sg22
(lp270
g36
asbI1
(tg40
I00
S'={\xa1\xd9=&rA'
p271
tp272
bag3
(g4
(I0
tp273
g6
tp274
Rp275
(g9
(g10
g11
Ntp276
Rp277
(dp278
g15
(lp279
g17
(g18
tp280
Rp281
asg21
I1
sg22
(lp282
g36
asbI1
(tg40
I00
S'>\xf1\x03\x04\xe5isA'
p283
tp284
bag3
(g4
(I0
tp285
g6
tp286
Rp287
(g9
(g10
g11
Ntp288
Rp289
(dp290
g15
(lp291
g17
(g18
tp292
Rp293
asg21
I1
sg22
(lp294
g36
asbI1
(tg40
I00
S'ZD\x83\x01\xe4\xffsA'
p295
tp296
bag3
(g4
(I0
tp297
g6
tp298
Rp299
(g9
(g10
g11
Ntp300
Rp301
(dp302
g15
(lp303
g17
(g18
tp304
Rp305
asg21
I1
sg22
(lp306
g36
asbI1
(tg40
I00
S'\xd0\x9a\xe40}\xa3tA'
p307
tp308
bag3
(g4
(I0
tp309
g6
tp310
Rp311
(g9
(g10
g11
Ntp312
Rp313
(dp314
g15
(lp315
g17
(g18
tp316
Rp317
asg21
I1
sg22
(lp318
g36
asbI1
(tg40
I00
S'\xbe\xca*\xad\xadcvA'
p319
tp320
bag3
(g4
(I0
tp321
g6
tp322
Rp323
(g9
(g10
g11
Ntp324
Rp325
(dp326
g15
(lp327
g17
(g18
tp328
Rp329
asg21
I1
sg22
(lp330
g36
asbI1
(tg40
I00
S'\x98dV\xdb\xf4\xd3vA'
p331
tp332
bag3
(g4
(I0
tp333
g6
tp334
Rp335
(g9
(g10
g11
Ntp336
Rp337
(dp338
g15
(lp339
g17
(g18
tp340
Rp341
asg21
I1
sg22
(lp342
g36
asbI1
(tg40
I00
S'~=0)\xc0\xedvA'
p343
tp344
bag3
(g4
(I0
tp345
g6
tp346
Rp347
(g9
(g10
g11
Ntp348
Rp349
(dp350
g15
(lp351
g17
(g18
tp352
Rp353
asg21
I1
sg22
(lp354
g36
asbI1
(tg40
I00
S'\x90\xe9\xb2\xab\x06@xA'
p355
tp356
bag3
(g4
(I0
tp357
g6
tp358
Rp359
(g9
(g10
g11
Ntp360
Rp361
(dp362
g15
(lp363
g17
(g18
tp364
Rp365
asg21
I1
sg22
(lp366
g36
asbI1
(tg40
I00
S'\te\xdc-Y\xbcxA'
p367
tp368
bag3
(g4
(I0
tp369
g6
tp370
Rp371
(g9
(g10
g11
Ntp372
Rp373
(dp374
g15
(lp375
g17
(g18
tp376
Rp377
asg21
I1
sg22
(lp378
g36
asbI1
(tg40
I00
S'\x86\xf6up\n\xf2xA'
p379
tp380
bag3
(g4
(I0
tp381
g6
tp382
Rp383
(g9
(g10
g11
Ntp384
Rp385
(dp386
g15
(lp387
g17
(g18
tp388
Rp389
asg21
I1
sg22
(lp390
g36
asbI1
(tg40
I00
S'\xda\xad\xde\xb1H\xcfyA'
p391
tp392
bag3
(g4
(I0
tp393
g6
tp394
Rp395
(g9
(g10
g11
Ntp396
Rp397
(dp398
g15
(lp399
g17
(g18
tp400
Rp401
asg21
I1
sg22
(lp402
g36
asbI1
(tg40
I00
S'\x886\xb5\x04\xcf\x10zA'
p403
tp404
bag3
(g4
(I0
tp405
g6
tp406
Rp407
(g9
(g10
g11
Ntp408
Rp409
(dp410
g15
(lp411
g17
(g18
tp412
Rp413
asg21
I1
sg22
(lp414
g36
asbI1
(tg40
I00
S'P\x01->~\xc3zA'
p415
tp416
bag3
(g4
(I0
tp417
g6
tp418
Rp419
(g9
(g10
g11
Ntp420
Rp421
(dp422
g15
(lp423
g17
(g18
tp424
Rp425
asg21
I1
sg22
(lp426
g36
asbI1
(tg40
I00
S'h\xd5E\xd7)2{A'
p427
tp428
bag3
(g4
(I0
tp429
g6
tp430
Rp431
(g9
(g10
g11
Ntp432
Rp433
(dp434
g15
(lp435
g17
(g18
tp436
Rp437
asg21
I1
sg22
(lp438
g36
asbI1
(tg40
I00
S'd\x95i\x91\xd5\x04{A'
p439
tp440
bag3
(g4
(I0
tp441
g6
tp442
Rp443
(g9
(g10
g11
Ntp444
Rp445
(dp446
g15
(lp447
g17
(g18
tp448
Rp449
asg21
I1
sg22
(lp450
g36
asbI1
(tg40
I00
S'\x16(\xaf\xa7\xa6\x83{A'
p451
tp452
bag3
(g4
(I0
tp453
g6
tp454
Rp455
(g9
(g10
g11
Ntp456
Rp457
(dp458
g15
(lp459
g17
(g18
tp460
Rp461
asg21
I1
sg22
(lp462
g36
asbI1
(tg40
I00
S'\x04\xa5Lm\xd0\xca|A'
p463
tp464
bag3
(g4
(I0
tp465
g6
tp466
Rp467
(g9
(g10
g11
Ntp468
Rp469
(dp470
g15
(lp471
g17
(g18
tp472
Rp473
asg21
I1
sg22
(lp474
g36
asbI1
(tg40
I00
S'`\xb3\xbe\x7f\xffg}A'
p475
tp476
bag3
(g4
(I0
tp477
g6
tp478
Rp479
(g9
(g10
g11
Ntp480
Rp481
(dp482
g15
(lp483
g17
(g18
tp484
Rp485
asg21
I1
sg22
(lp486
g36
asbI1
(tg40
I00
S'\xd1C\xdazfa}A'
p487
tp488
bag3
(g4
(I0
tp489
g6
tp490
Rp491
(g9
(g10
g11
Ntp492
Rp493
(dp494
g15
(lp495
g17
(g18
tp496
Rp497
asg21
I1
sg22
(lp498
g36
asbI1
(tg40
I00
S'\xdaz\xaaZ\xe6\x05~A'
p499
tp500
bag3
(g4
(I0
tp501
g6
tp502
Rp503
(g9
(g10
g11
Ntp504
Rp505
(dp506
g15
(lp507
g17
(g18
tp508
Rp509
asg21
I1
sg22
(lp510
g36
asbI1
(tg40
I00
S'K9\xd0\xfc\x84\xe5}A'
p511
tp512
bag3
(g4
(I0
tp513
g6
tp514
Rp515
(g9
(g10
g11
Ntp516
Rp517
(dp518
g15
(lp519
g17
(g18
tp520
Rp521
asg21
I1
sg22
(lp522
g36
asbI1
(tg40
I00
S'\xaf\x87\xcb\x16!\xb5~A'
p523
tp524
bag3
(g4
(I0
tp525
g6
tp526
Rp527
(g9
(g10
g11
Ntp528
Rp529
(dp530
g15
(lp531
g17
(g18
tp532
Rp533
asg21
I1
sg22
(lp534
g36
asbI1
(tg40
I00
S'\xc1\xd3\x7f-\x8d\xcd~A'
p535
tp536
bag3
(g4
(I0
tp537
g6
tp538
Rp539
(g9
(g10
g11
Ntp540
Rp541
(dp542
g15
(lp543
g17
(g18
tp544
Rp545
asg21
I1
sg22
(lp546
g36
asbI1
(tg40
I00
S'\xe2F\xbc\x13\x08\xff~A'
p547
tp548
bag3
(g4
(I0
tp549
g6
tp550
Rp551
(g9
(g10
g11
Ntp552
Rp553
(dp554
g15
(lp555
g17
(g18
tp556
Rp557
asg21
I1
sg22
(lp558
g36
asbI1
(tg40
I00
S'G\xed\x04\xda2\xdf~A'
p559
tp560
bag3
(g4
(I0
tp561
g6
tp562
Rp563
(g9
(g10
g11
Ntp564
Rp565
(dp566
g15
(lp567
g17
(g18
tp568
Rp569
asg21
I1
sg22
(lp570
g36
asbI1
(tg40
I00
S'\xd3\xe0W(\xc1\xef~A'
p571
tp572
bag3
(g4
(I0
tp573
g6
tp574
Rp575
(g9
(g10
g11
Ntp576
Rp577
(dp578
g15
(lp579
g17
(g18
tp580
Rp581
asg21
I1
sg22
(lp582
g36
asbI1
(tg40
I00
S'\xb2\x83\xce:$\xf7~A'
p583
tp584
bag3
(g4
(I0
tp585
g6
tp586
Rp587
(g9
(g10
g11
Ntp588
Rp589
(dp590
g15
(lp591
g17
(g18
tp592
Rp593
asg21
I1
sg22
(lp594
g36
asbI1
(tg40
I00
S'\xc4\xd5d\xf1\x8a"\x7fA'
p595
tp596
bag3
(g4
(I0
tp597
g6
tp598
Rp599
(g9
(g10
g11
Ntp600
Rp601
(dp602
g15
(lp603
g17
(g18
tp604
Rp605
asg21
I1
sg22
(lp606
g36
asbI1
(tg40
I00
S'\xad,\x9b\x07>H\x7fA'
p607
tp608
bag3
(g4
(I0
tp609
g6
tp610
Rp611
(g9
(g10
g11
Ntp612
Rp613
(dp614
g15
(lp615
g17
(g18
tp616
Rp617
asg21
I1
sg22
(lp618
g36
asbI1
(tg40
I00
S' +y+,0\x7fA'
p619
tp620
bag3
(g4
(I0
tp621
g6
tp622
Rp623
(g9
(g10
g11
Ntp624
Rp625
(dp626
g15
(lp627
g17
(g18
tp628
Rp629
asg21
I1
sg22
(lp630
g36
asbI1
(tg40
I00
S'0\x89u0lm\x7fA'
p631
tp632
bag3
(g4
(I0
tp633
g6
tp634
Rp635
(g9
(g10
g11
Ntp636
Rp637
(dp638
g15
(lp639
g17
(g18
tp640
Rp641
asg21
I1
sg22
(lp642
g36
asbI1
(tg40
I00
S'\xda0\xa8f\x95\x93\x7fA'
p643
tp644
bag3
(g4
(I0
tp645
g6
tp646
Rp647
(g9
(g10
g11
Ntp648
Rp649
(dp650
g15
(lp651
g17
(g18
tp652
Rp653
asg21
I1
sg22
(lp654
g36
asbI1
(tg40
I00
S't\xa6\xba\xffP\x9b\x7fA'
p655
tp656
bag3
(g4
(I0
tp657
g6
tp658
Rp659
(g9
(g10
g11
Ntp660
Rp661
(dp662
g15
(lp663
g17
(g18
tp664
Rp665
asg21
I1
sg22
(lp666
g36
asbI1
(tg40
I00
S'\x1e\xd6L+\x9d\xa1\x7fA'
p667
tp668
bag3
(g4
(I0
tp669
g6
tp670
Rp671
(g9
(g10
g11
Ntp672
Rp673
(dp674
g15
(lp675
g17
(g18
tp676
Rp677
asg21
I1
sg22
(lp678
g36
asbI1
(tg40
I00
S'd`\xf8V*\x8f\x7fA'
p679
tp680
bag3
(g4
(I0
tp681
g6
tp682
Rp683
(g9
(g10
g11
Ntp684
Rp685
(dp686
g15
(lp687
g17
(g18
tp688
Rp689
asg21
I1
sg22
(lp690
g36
asbI1
(tg40
I00
S'\xf3\x1c6\xc8S\x7f\x7fA'
p691
tp692
bag3
(g4
(I0
tp693
g6
tp694
Rp695
(g9
(g10
g11
Ntp696
Rp697
(dp698
g15
(lp699
g17
(g18
tp700
Rp701
asg21
I1
sg22
(lp702
g36
asbI1
(tg40
I00
S'{H\xcccO\x92\x7fA'
p703
tp704
bag3
(g4
(I0
tp705
g6
tp706
Rp707
(g9
(g10
g11
Ntp708
Rp709
(dp710
g15
(lp711
g17
(g18
tp712
Rp713
asg21
I1
sg22
(lp714
g36
asbI1
(tg40
I00
S'V&\x81\xccD\x83\x7fA'
p715
tp716
bag3
(g4
(I0
tp717
g6
tp718
Rp719
(g9
(g10
g11
Ntp720
Rp721
(dp722
g15
(lp723
g17
(g18
tp724
Rp725
asg21
I1
sg22
(lp726
g36
asbI1
(tg40
I00
S'\xcd{\xbe\xae.v\x7fA'
p727
tp728
bag3
(g4
(I0
tp729
g6
tp730
Rp731
(g9
(g10
g11
Ntp732
Rp733
(dp734
g15
(lp735
g17
(g18
tp736
Rp737
asg21
I1
sg22
(lp738
g36
asbI1
(tg40
I00
S'\x7f\x10N\x9d\xe7r\x7fA'
p739
tp740
bag3
(g4
(I0
tp741
g6
tp742
Rp743
(g9
(g10
g11
Ntp744
Rp745
(dp746
g15
(lp747
g17
(g18
tp748
Rp749
asg21
I1
sg22
(lp750
g36
asbI1
(tg40
I00
S'\x1f\x9dX\x8c\x1cq\x7fA'
p751
tp752
bag3
(g4
(I0
tp753
g6
tp754
Rp755
(g9
(g10
g11
Ntp756
Rp757
(dp758
g15
(lp759
g17
(g18
tp760
Rp761
asg21
I1
sg22
(lp762
g36
asbI1
(tg40
I00
S'\x17rL.\xd0\xb3\x7fA'
p763
tp764
bag3
(g4
(I0
tp765
g6
tp766
Rp767
(g9
(g10
g11
Ntp768
Rp769
(dp770
g15
(lp771
g17
(g18
tp772
Rp773
asg21
I1
sg22
(lp774
g36
asbI1
(tg40
I00
S'\xb5\xa9M\xd4c\xa9\x7fA'
p775
tp776
bag3
(g4
(I0
tp777
g6
tp778
Rp779
(g9
(g10
g11
Ntp780
Rp781
(dp782
g15
(lp783
g17
(g18
tp784
Rp785
asg21
I1
sg22
(lp786
g36
asbI1
(tg40
I00
S'\x14vG\xf00\xe3\x7fA'
p787
tp788
bag3
(g4
(I0
tp789
g6
tp790
Rp791
(g9
(g10
g11
Ntp792
Rp793
(dp794
g15
(lp795
g17
(g18
tp796
Rp797
asg21
I1
sg22
(lp798
g36
asbI1
(tg40
I00
S'\x13\x08\xc7\xcblJ\x80A'
p799
tp800
basS'time'
p801
(lp802
F0.23300961933541559
aF0.4487790310364505
aF0.6645484427374853
aF0.8803178544385205
aF1.0960872661395555
aF1.31185667784059
aF1.5276260895416247
aF1.7433955012426607
aF1.959164912943703
aF2.174934324644754
aF2.390703736345835
aF2.606473148046936
aF2.822242559747823
aF3.0380119714488574
aF3.2537813831498976
aF3.4695507948509334
aF3.685320206551972
aF3.901089618253011
aF4.1168590299540435
aF4.3326284416550855
aF4.548397853356122
aF4.76416726505716
aF4.9799366767582
aF5.195706088459234
aF5.411475500160271
aF5.6272449118613
aF5.843014323419692
aF6.058783735263374
aF6.274553146964411
aF6.490322558665461
aF6.706091970366523
aF6.921861382067591
aF7.137630793768671
aF7.353400205469765
aF7.569169617170883
aF7.784939028872026
aF8.000708440573206
aF8.216477852274425
aF8.432247263975684
aF8.648016675675683
aF8.863786087376706
aF9.079555499077737
aF9.295324910778769
aF9.511094322479796
aF9.726863734180817
aF9.942633145881851
aF10.158402557582875
aF10.374171969283916
aF10.589941380984923
aF10.805710792685963
aF11.021480204386982
aF11.237249616088
aF11.45301902778903
aF11.668788439490053
aF11.884557851191076
aF12.100327262892103
aF12.316096674593146
aF12.531866086294151
aF12.747635497995192
aF12.963404909696262
aF13.179174321397271
aF13.394943733098305
aF13.610713144799337
aF13.826482556500364
as.