(dp0
S'cosmo'
p1
(ipynbody.analysis.pkdgrav_cosmo
Cosmology
p2
(dp3
S'dOmegaCurve'
p4
F0.0
sS'dHubble0'
p5
F2.8944050182330705
sS'bComove'
p6
I1
sS'dLambda'
p7
F0.6825
sS'dOmegaM'
p8
F0.3175
sS'dOmegab'
p9
F0.0456
sS'dOmegaRad'
p10
F0.0
sS'dQuintess'
p11
F0.0
sbs.