(dp0
S'feh_rh'
p1
(lp2
cnumpy.core.multiarray
_reconstruct
p3
(cpynbody.array
SimArray
p4
(I0
tp5
S'b'
p6
tp7
Rp8
(ccopy_reg
_reconstructor
p9
(cpynbody.units
NoUnit
p10
c__builtin__
object
p11
Ntp12
Rp13
(dp14
S'_no_unit'
p15
I01
sbI1
(tcnumpy
dtype
p16
(S'f8'
p17
I0
I1
tp18
Rp19
(I3
S'<'
p20
NNNI-1
I-1
I0
tp21
bI00
S'NV\x0e\x7fo\x0e\xf2\xbf'
p22
tp23
bag3
(g4
(I0
tp24
g6
tp25
Rp26
(g9
(g10
g11
Ntp27
Rp28
(dp29
g15
I01
sbI1
(tg16
(S'f8'
p30
I0
I1
tp31
Rp32
(I3
S'<'
p33
NNNI-1
I-1
I0
tp34
bI00
S'\x07>\x037Tu\xf1\xbf'
p35
tp36
bag3
(g4
(I0
tp37
g6
tp38
Rp39
(g9
(g10
g11
Ntp40
Rp41
(dp42
g15
I01
sbI1
(tg16
(S'f8'
p43
I0
I1
tp44
Rp45
(I3
S'<'
p46
NNNI-1
I-1
I0
tp47
bI00
S'\xf3\t}\xc3e\xd9\xbd?'
p48
tp49
bag3
(g4
(I0
tp50
g6
tp51
Rp52
(g9
(g10
g11
Ntp53
Rp54
(dp55
g15
I01
sbI1
(tg16
(S'f8'
p56
I0
I1
tp57
Rp58
(I3
S'<'
p59
NNNI-1
I-1
I0
tp60
bI00
S'\xb5\xe9\xc6\xfbZG\xfb\xbf'
p61
tp62
bag3
(g4
(I0
tp63
g6
tp64
Rp65
(g9
(g10
g11
Ntp66
Rp67
(dp68
g15
I01
sbI1
(tg16
(S'f8'
p69
I0
I1
tp70
Rp71
(I3
S'<'
p72
NNNI-1
I-1
I0
tp73
bI00
S'\xc3\x92oE\xbe\xf3\xf6\xbf'
p74
tp75
bag3
(g4
(I0
tp76
g6
tp77
Rp78
(g9
(g10
g11
Ntp79
Rp80
(dp81
g15
I01
sbI1
(tg16
(S'f8'
p82
I0
I1
tp83
Rp84
(I3
S'<'
p85
NNNI-1
I-1
I0
tp86
bI00
S'\x1e\x0e\x97|{\xfe\xfc\xbf'
p87
tp88
bag3
(g4
(I0
tp89
g6
tp90
Rp91
(g9
(g10
g11
Ntp92
Rp93
(dp94
g15
I01
sbI1
(tg16
(S'f8'
p95
I0
I1
tp96
Rp97
(I3
S'<'
p98
NNNI-1
I-1
I0
tp99
bI00
S'}\x8f\xcek\x98\x18\xcf\xbf'
p100
tp101
bag3
(g4
(I0
tp102
g6
tp103
Rp104
(g9
(g10
g11
Ntp105
Rp106
(dp107
g15
I01
sbI1
(tg16
(S'f8'
p108
I0
I1
tp109
Rp110
(I3
S'<'
p111
NNNI-1
I-1
I0
tp112
bI00
S'\x93\x8e\xaat\xa7\xb3\xc3\xbf'
p113
tp114
basS'zstar_tot'
p115
(lp116
g3
(g4
(I0
tp117
g6
tp118
Rp119
(g13
I1
(tg19
I00
S'\xbf\x9e\xa6\x93?\xdaa?'
p120
tp121
bag3
(g4
(I0
tp122
g6
tp123
Rp124
(g28
I1
(tg32
I00
S'\xf3\xd5\xe5\x03\xb9\x99a?'
p125
tp126
bag3
(g4
(I0
tp127
g6
tp128
Rp129
(g41
I1
(tg45
I00
S'T\x1df\x89^4\x98?'
p130
tp131
bag3
(g4
(I0
tp132
g6
tp133
Rp134
(g54
I1
(tg58
I00
S'\x10\x96\xd7~yU<?'
p135
tp136
bag3
(g4
(I0
tp137
g6
tp138
Rp139
(g67
I1
(tg71
I00
S'\x9d\x1fV\xd2\x00\xbfH?'
p140
tp141
bag3
(g4
(I0
tp142
g6
tp143
Rp144
(g80
I1
(tg84
I00
S'\xa26\x9a\x8f\xf3\xc93?'
p145
tp146
bag3
(g4
(I0
tp147
g6
tp148
Rp149
(g93
I1
(tg97
I00
S'OJ\xf3\x81\x19\xa1\x91?'
p150
tp151
bag3
(g4
(I0
tp152
g6
tp153
Rp154
(g106
I1
(tg110
I00
S'\xf6FY\xc7\xb4\x9a\x95?'
p155
tp156
basS'mgas2'
p157
(lp158
g3
(g4
(I0
tp159
g6
tp160
Rp161
(g9
(cpynbody.units
CompositeUnit
p162
g11
Ntp163
Rp164
(dp165
S'_powers'
p166
(lp167
cfractions
Fraction
p168
(S'1'
p169
tp170
Rp171
asS'_scale'
p172
I1
sS'_bases'
p173
(lp174
cpynbody.units
_resurrect_named_unit
p175
(S'Msol'
p176
S'M_{\\odot}'
p177
g9
(g162
g11
Ntp178
Rp179
(dp180
g166
(lp181
I1
asg172
F1.98892e+30
sg173
(lp182
g175
(S'kg'
p183
NNtp184
Rp185
asbtp186
Rp187
asbI1
(tg19
I00
S'\x82%\x06\xea\xc8\xaf\xe8A'
p188
tp189
bag3
(g4
(I0
tp190
g6
tp191
Rp192
(g9
(g162
g11
Ntp193
Rp194
(dp195
g166
(lp196
g168
(g169
tp197
Rp198
asg172
I1
sg173
(lp199
g187
asbI1
(tg32
I00
S'\xb6\xe6\xd1\xe3\x10j\xdfA'
p200
tp201
bag3
(g4
(I0
tp202
g6
tp203
Rp204
(g9
(g162
g11
Ntp205
Rp206
(dp207
g166
(lp208
g168
(g169
tp209
Rp210
asg172
I1
sg173
(lp211
g187
asbI1
(tg45
I00
S'\xd6,\xb4\x97q\xe9\xeeA'
p212
tp213
bag3
(g4
(I0
tp214
g6
tp215
Rp216
(g9
(g162
g11
Ntp217
Rp218
(dp219
g166
(lp220
g168
(g169
tp221
Rp222
asg172
I1
sg173
(lp223
g187
asbI1
(tg58
I00
S'h\xb0\xf1\xf2\x86!\xb6A'
p224
tp225
bag3
(g4
(I0
tp226
g6
tp227
Rp228
(g9
(g162
g11
Ntp229
Rp230
(dp231
g166
(lp232
g168
(g169
tp233
Rp234
asg172
I1
sg173
(lp235
g187
asbI1
(tg71
I00
S'\xf0\xa0\xb1\x8cVy\xbaA'
p236
tp237
bag3
(g4
(I0
tp238
g6
tp239
Rp240
(g9
(g162
g11
Ntp241
Rp242
(dp243
g166
(lp244
g168
(g169
tp245
Rp246
asg172
I1
sg173
(lp247
g187
asbI1
(tg84
I00
S'\xd0\x84\xb2\xe8Ds?A'
p248
tp249
bag3
(g4
(I0
tp250
g6
tp251
Rp252
(g9
(g162
g11
Ntp253
Rp254
(dp255
g166
(lp256
g168
(g169
tp257
Rp258
asg172
I1
sg173
(lp259
g187
asbI1
(tg97
I00
S'N;\x9e\x06?\xbb\x00B'
p260
tp261
bag3
(g4
(I0
tp262
g6
tp263
Rp264
(g9
(g162
g11
Ntp265
Rp266
(dp267
g166
(lp268
g168
(g169
tp269
Rp270
asg172
I1
sg173
(lp271
g187
asbI1
(tg110
I00
S'\x1e\xd6\xf7\xf6X\xf0\xefA'
p272
tp273
basS'oh_gas2'
p274
(lp275
g3
(g4
(I0
tp276
g6
tp277
Rp278
(g13
I1
(tg19
I00
S'\x84l\x8d>gv @'
p279
tp280
bag3
(g4
(I0
tp281
g6
tp282
Rp283
(g28
I1
(tg32
I00
S'\x8c\xc2\xbe\xcc\xd9V @'
p284
tp285
bag3
(g4
(I0
tp286
g6
tp287
Rp288
(g41
I1
(tg45
I00
S'm\x8b\xe1\xacP\xca"@'
p289
tp290
bag3
(g4
(I0
tp291
g6
tp292
Rp293
(g54
I1
(tg58
I00
S'\xccT:@\xce\xc0\x1d@'
p294
tp295
bag3
(g4
(I0
tp296
g6
tp297
Rp298
(g67
I1
(tg71
I00
S'\x93+\xb6\xb0\\\xbf\x1e@'
p299
tp300
bag3
(g4
(I0
tp301
g6
tp302
Rp303
(g80
I1
(tg84
I00
S'\xd6\xb8PQ\xcd-\x1d@'
p304
tp305
bag3
(g4
(I0
tp306
g6
tp307
Rp308
(g93
I1
(tg97
I00
S'\xf5v\x957\x93\n"@'
p309
tp310
bag3
(g4
(I0
tp311
g6
tp312
Rp313
(g106
I1
(tg110
I00
S'\x00\xda\xcdG>o"@'
p314
tp315
basS'oh_gas3'
p316
(lp317
g3
(g4
(I0
tp318
g6
tp319
Rp320
(g13
I1
(tg19
I00
S'\x84l\x8d>gv @'
p321
tp322
bag3
(g4
(I0
tp323
g6
tp324
Rp325
(g28
I1
(tg32
I00
S'\x8c\xc2\xbe\xcc\xd9V @'
p326
tp327
bag3
(g4
(I0
tp328
g6
tp329
Rp330
(g41
I1
(tg45
I00
S'm\x8b\xe1\xacP\xca"@'
p331
tp332
bag3
(g4
(I0
tp333
g6
tp334
Rp335
(g54
I1
(tg58
I00
S'\xccT:@\xce\xc0\x1d@'
p336
tp337
bag3
(g4
(I0
tp338
g6
tp339
Rp340
(g67
I1
(tg71
I00
S'\x93+\xb6\xb0\\\xbf\x1e@'
p341
tp342
bag3
(g4
(I0
tp343
g6
tp344
Rp345
(g80
I1
(tg84
I00
S'\xd6\xb8PQ\xcd-\x1d@'
p346
tp347
bag3
(g4
(I0
tp348
g6
tp349
Rp350
(g93
I1
(tg97
I00
S'\xf5v\x957\x93\n"@'
p351
tp352
bag3
(g4
(I0
tp353
g6
tp354
Rp355
(g106
I1
(tg110
I00
S'\x00\xda\xcdG>o"@'
p356
tp357
basS'mstar_rh'
p358
(lp359
g3
(g4
(I0
tp360
g6
tp361
Rp362
(g164
I1
(tg19
I00
S'@\x08Sh\xbc\xea\xbdA'
p363
tp364
bag3
(g4
(I0
tp365
g6
tp366
Rp367
(g194
I1
(tg32
I00
S'\xdd\xd2\xf2\xefjl\xb5A'
p368
tp369
bag3
(g4
(I0
tp370
g6
tp371
Rp372
(g206
I1
(tg45
I00
S'H\xdb6\xa67\x0e5B'
p373
tp374
bag3
(g4
(I0
tp375
g6
tp376
Rp377
(g218
I1
(tg58
I00
S'\xb20u\x85\xc1\xdfiA'
p378
tp379
bag3
(g4
(I0
tp380
g6
tp381
Rp382
(g230
I1
(tg71
I00
S'n\xdf\xf2O\xb04\x87A'
p383
tp384
bag3
(g4
(I0
tp385
g6
tp386
Rp387
(g242
I1
(tg84
I00
S'L|z\xb6\xb61*A'
p388
tp389
bag3
(g4
(I0
tp390
g6
tp391
Rp392
(g254
I1
(tg97
I00
S'Os\xe7\x07\x9b\xd4\x0fB'
p393
tp394
bag3
(g4
(I0
tp395
g6
tp396
Rp397
(g266
I1
(tg110
I00
S'\xe5f\xc1&\xd9q\x15B'
p398
tp399
basS'zstar3'
p400
(lp401
g3
(g4
(I0
tp402
g6
tp403
Rp404
(g13
I1
(tg19
I00
S'\x96<<\xa9\x86\xd8b?'
p405
tp406
bag3
(g4
(I0
tp407
g6
tp408
Rp409
(g28
I1
(tg32
I00
S'\xec\xcb\xe1\xfd\xc3\xfeb?'
p410
tp411
bag3
(g4
(I0
tp412
g6
tp413
Rp414
(g41
I1
(tg45
I00
S'\x8ax6K\xef\xe6\x9a?'
p415
tp416
bag3
(g4
(I0
tp417
g6
tp418
Rp419
(g54
I1
(tg58
I00
S'%\xca\xf0(\x0c\x16>?'
p420
tp421
bag3
(g4
(I0
tp422
g6
tp423
Rp424
(g67
I1
(tg71
I00
S'\xd6\x9aL]\x9f\x15K?'
p425
tp426
bag3
(g4
(I0
tp427
g6
tp428
Rp429
(g80
I1
(tg84
I00
S'>:-M&n4?'
p430
tp431
bag3
(g4
(I0
tp432
g6
tp433
Rp434
(g93
I1
(tg97
I00
S'3&\xeb\x05\x8d\x0b\x93?'
p435
tp436
bag3
(g4
(I0
tp437
g6
tp438
Rp439
(g106
I1
(tg110
I00
S'[u\xf1\x13Z\xad\x96?'
p440
tp441
basS'feh'
p442
(lp443
g3
(g4
(I0
tp444
g6
tp445
Rp446
(g13
I1
(tg19
I00
S'\xf4Bn\xeb\xebS\xf3\xbf'
p447
tp448
bag3
(g4
(I0
tp449
g6
tp450
Rp451
(g28
I1
(tg32
I00
S'\x16E\xf1\x1fa2\xf3\xbf'
p452
tp453
bag3
(g4
(I0
tp454
g6
tp455
Rp456
(g41
I1
(tg45
I00
S'\xdb?\x8elG;\xb1\xbf'
p457
tp458
bag3
(g4
(I0
tp459
g6
tp460
Rp461
(g54
I1
(tg58
I00
S'ta\x1e\xb4"Y\xfd\xbf'
p462
tp463
bag3
(g4
(I0
tp464
g6
tp465
Rp466
(g67
I1
(tg71
I00
S'f\xea\xe0BG\xef\xf8\xbf'
p467
tp468
bag3
(g4
(I0
tp469
g6
tp470
Rp471
(g80
I1
(tg84
I00
S'H*\x9f\x87z\xe0\xfe\xbf'
p472
tp473
bag3
(g4
(I0
tp474
g6
tp475
Rp476
(g93
I1
(tg97
I00
S'\xc1\xbaa>\xb8z\xd7\xbf'
p477
tp478
bag3
(g4
(I0
tp479
g6
tp480
Rp481
(g106
I1
(tg110
I00
S'mW \xb2O\xd0\xcd\xbf'
p482
tp483
basS'zstar'
p484
(lp485
g3
(g4
(I0
tp486
g6
tp487
Rp488
(g13
I1
(tg19
I00
S'>\xcc=\xfa\xf1\xdec?'
p489
tp490
bag3
(g4
(I0
tp491
g6
tp492
Rp493
(g28
I1
(tg32
I00
S't\x1eP*!nd?'
p494
tp495
bag3
(g4
(I0
tp496
g6
tp497
Rp498
(g41
I1
(tg45
I00
S';m\x87FY!\x9b?'
p499
tp500
bag3
(g4
(I0
tp501
g6
tp502
Rp503
(g54
I1
(tg58
I00
S'\xd9Mw\x05\xf1\xaa??'
p504
tp505
bag3
(g4
(I0
tp506
g6
tp507
Rp508
(g67
I1
(tg71
I00
S'{Sm)\x9e:M?'
p509
tp510
bag3
(g4
(I0
tp511
g6
tp512
Rp513
(g80
I1
(tg84
I00
S'\x88K\xb9\x8e\xba\x855?'
p514
tp515
bag3
(g4
(I0
tp516
g6
tp517
Rp518
(g93
I1
(tg97
I00
S'r\xa7\xbdA\xf3\xf6\x93?'
p519
tp520
bag3
(g4
(I0
tp521
g6
tp522
Rp523
(g106
I1
(tg110
I00
S')whZr\xc4\x96?'
p524
tp525
basS'mgas_tot'
p526
(lp527
g3
(g4
(I0
tp528
g6
tp529
Rp530
(g164
I1
(tg19
I00
S'\x9d\xec\x87\xd0C\xce\x01B'
p531
tp532
bag3
(g4
(I0
tp533
g6
tp534
Rp535
(g194
I1
(tg32
I00
S'|4\xb1\x1eV\x93\x01B'
p536
tp537
bag3
(g4
(I0
tp538
g6
tp539
Rp540
(g206
I1
(tg45
I00
S'\xd6\xb6r\xbf\x87\x7fGB'
p541
tp542
bag3
(g4
(I0
tp543
g6
tp544
Rp545
(g218
I1
(tg58
I00
S'GbQ\xf3\xd6\x13\xd5A'
p546
tp547
bag3
(g4
(I0
tp548
g6
tp549
Rp550
(g230
I1
(tg71
I00
S"'\x8aC\x10\xd6\x9d\xdaA"
p551
tp552
bag3
(g4
(I0
tp553
g6
tp554
Rp555
(g242
I1
(tg84
I00
S'H\x8b\xcb\xb6\r\xc2\x9eA'
p556
tp557
bag3
(g4
(I0
tp558
g6
tp559
Rp560
(g254
I1
(tg97
I00
S'N\xf9L\xd1\xa4h0B'
p561
tp562
bag3
(g4
(I0
tp563
g6
tp564
Rp565
(g266
I1
(tg110
I00
S'G0\xdb\xef\xf3<1B'
p566
tp567
basS'oh_gas_tot'
p568
(lp569
g3
(g4
(I0
tp570
g6
tp571
Rp572
(g13
I1
(tg19
I00
S'>\x14\x93\xd3\xe6? @'
p573
tp574
bag3
(g4
(I0
tp575
g6
tp576
Rp577
(g28
I1
(tg32
I00
S',\x05)*i\x0e @'
p578
tp579
bag3
(g4
(I0
tp580
g6
tp581
Rp582
(g41
I1
(tg45
I00
S'tc\xa3\xe1\xb5\xf3 @'
p583
tp584
bag3
(g4
(I0
tp585
g6
tp586
Rp587
(g54
I1
(tg58
I00
S'\xba\x0b\x01Y\x14\x9a\x1c@'
p588
tp589
bag3
(g4
(I0
tp590
g6
tp591
Rp592
(g67
I1
(tg71
I00
S'\xf5\xd0\xb8\x9a\xa2K\x1e@'
p593
tp594
bag3
(g4
(I0
tp595
g6
tp596
Rp597
(g80
I1
(tg84
I00
S'S\xe2/z\x91\x08\x1c@'
p598
tp599
bag3
(g4
(I0
tp600
g6
tp601
Rp602
(g93
I1
(tg97
I00
S'\xf2\xe5\xe1G\xba9!@'
p603
tp604
bag3
(g4
(I0
tp605
g6
tp606
Rp607
(g106
I1
(tg110
I00
S'\x12\xc6\xbf\xa7kM!@'
p608
tp609
basS'time'
p610
(lp611
F13.826482556500364
aF13.826482556500364
aF13.826482556500364
aF13.826482556500364
aF13.826482556500364
aF13.826487973863374
aF13.826482556500364
aF13.826482556500364
asS'mstar_tot'
p612
(lp613
g3
(g4
(I0
tp614
g6
tp615
Rp616
(g164
I1
(tg19
I00
S'\x9d?\xb3\xb9\x99\x89\xd1A'
p617
tp618
bag3
(g4
(I0
tp619
g6
tp620
Rp621
(g194
I1
(tg32
I00
S'.\x92\xa8\xb7\x8e\xe3\xcbA'
p622
tp623
bag3
(g4
(I0
tp624
g6
tp625
Rp626
(g206
I1
(tg45
I00
S'\x85\xfd\xbbcRZGB'
p627
tp628
bag3
(g4
(I0
tp629
g6
tp630
Rp631
(g218
I1
(tg58
I00
S'\x98\xd7nb\xdc\x98}A'
p632
tp633
bag3
(g4
(I0
tp634
g6
tp635
Rp636
(g230
I1
(tg71
I00
S'*\xbaF\xef\x01\x89\x9dA'
p637
tp638
bag3
(g4
(I0
tp639
g6
tp640
Rp641
(g242
I1
(tg84
I00
S'D\x80\x1eG\xdcNAA'
p642
tp643
bag3
(g4
(I0
tp644
g6
tp645
Rp646
(g254
I1
(tg97
I00
S'\xa7n%\xbd!`\x1dB'
p647
tp648
bag3
(g4
(I0
tp649
g6
tp650
Rp651
(g266
I1
(tg110
I00
S'0\x08\\s\xa5\x10&B'
p652
tp653
basS'oh_gas'
p654
(lp655
g3
(g4
(I0
tp656
g6
tp657
Rp658
(g13
I1
(tg19
I00
S'\xb8\xca\xeb+\xbf} @'
p659
tp660
bag3
(g4
(I0
tp661
g6
tp662
Rp663
(g28
I1
(tg32
I00
S'\x9cLi\x14\xf4Y @'
p664
tp665
bag3
(g4
(I0
tp666
g6
tp667
Rp668
(g41
I1
(tg45
I00
S'~\xa1R\xad5\xe4"@'
p669
tp670
bag3
(g4
(I0
tp671
g6
tp672
Rp673
(g54
I1
(tg58
I00
S"\x95\x1e\xee\x1b'\xef\x1d@"
p674
tp675
bag3
(g4
(I0
tp676
g6
tp677
Rp678
(g67
I1
(tg71
I00
S'#rR\x18D\xcb\x1e@'
p679
tp680
bag3
(g4
(I0
tp681
g6
tp682
Rp683
(g80
I1
(tg84
I00
S'\xcbl\x8460/\x1d@'
p684
tp685
bag3
(g4
(I0
tp686
g6
tp687
Rp688
(g93
I1
(tg97
I00
S'\xc2C\nd\x91\'"@'
p689
tp690
bag3
(g4
(I0
tp691
g6
tp692
Rp693
(g106
I1
(tg110
I00
S'\xbb\xc2\x87M\xed\x8a"@'
p694
tp695
basS'z'
p696
(lp697
F1.5765166949677223e-14
aF1.5765166949677223e-14
aF1.5765166949677223e-14
aF1.5765166949677223e-14
aF1.5765166949677223e-14
aF1.5765166949677223e-14
aF1.5765166949677223e-14
aF1.5765166949677223e-14
asS'zstar2'
p698
(lp699
g3
(g4
(I0
tp700
g6
tp701
Rp702
(g13
I1
(tg19
I00
S'\x96<<\xa9\x86\xd8b?'
p703
tp704
bag3
(g4
(I0
tp705
g6
tp706
Rp707
(g28
I1
(tg32
I00
S'\xec\xcb\xe1\xfd\xc3\xfeb?'
p708
tp709
bag3
(g4
(I0
tp710
g6
tp711
Rp712
(g41
I1
(tg45
I00
S'\x8ax6K\xef\xe6\x9a?'
p713
tp714
bag3
(g4
(I0
tp715
g6
tp716
Rp717
(g54
I1
(tg58
I00
S'%\xca\xf0(\x0c\x16>?'
p718
tp719
bag3
(g4
(I0
tp720
g6
tp721
Rp722
(g67
I1
(tg71
I00
S'\xd6\x9aL]\x9f\x15K?'
p723
tp724
bag3
(g4
(I0
tp725
g6
tp726
Rp727
(g80
I1
(tg84
I00
S'>:-M&n4?'
p728
tp729
bag3
(g4
(I0
tp730
g6
tp731
Rp732
(g93
I1
(tg97
I00
S'3&\xeb\x05\x8d\x0b\x93?'
p733
tp734
bag3
(g4
(I0
tp735
g6
tp736
Rp737
(g106
I1
(tg110
I00
S'[u\xf1\x13Z\xad\x96?'
p738
tp739
basS'mstar2'
p740
(lp741
g3
(g4
(I0
tp742
g6
tp743
Rp744
(g164
I1
(tg19
I00
S'$\xc6\xd3\x90\xea\xba\xcdA'
p745
tp746
bag3
(g4
(I0
tp747
g6
tp748
Rp749
(g194
I1
(tg32
I00
S'wi$\xe7Q3\xc7A'
p750
tp751
bag3
(g4
(I0
tp752
g6
tp753
Rp754
(g206
I1
(tg45
I00
S'\xb2\x0e\xcb\xf8\xfaL?B'
p755
tp756
bag3
(g4
(I0
tp757
g6
tp758
Rp759
(g218
I1
(tg58
I00
S'N\xb9\xffP\xb1\xcdxA'
p760
tp761
bag3
(g4
(I0
tp762
g6
tp763
Rp764
(g230
I1
(tg71
I00
S'\xde0.C\xf3\x8d\x96A'
p765
tp766
bag3
(g4
(I0
tp767
g6
tp768
Rp769
(g242
I1
(tg84
I00
S'\x9c\xfd=\xe8\xe4\xfd7A'
p770
tp771
bag3
(g4
(I0
tp772
g6
tp773
Rp774
(g254
I1
(tg97
I00
S'\x869>\xb0\xacs\x16B'
p775
tp776
bag3
(g4
(I0
tp777
g6
tp778
Rp779
(g266
I1
(tg110
I00
S'<\xb9\xeb\x17\x04? B'
p780
tp781
bas.