(dp0
S'feh_rh'
p1
(lp2
cnumpy.core.multiarray
_reconstruct
p3
(cpynbody.array
SimArray
p4
(I0
tp5
S'b'
p6
tp7
Rp8
(ccopy_reg
_reconstructor
p9
(cpynbody.units
NoUnit
p10
c__builtin__
object
p11
Ntp12
Rp13
(dp14
S'_no_unit'
p15
I01
sbI1
(tcnumpy
dtype
p16
(S'f8'
p17
I0
I1
tp18
Rp19
(I3
S'<'
p20
NNNI-1
I-1
I0
tp21
bI00
S'qE\xce\x0c~e\xf6\xbf'
p22
tp23
bag3
(g4
(I0
tp24
g6
tp25
Rp26
(g9
(g10
g11
Ntp27
Rp28
(dp29
g15
I01
sbI1
(tg16
(S'f8'
p30
I0
I1
tp31
Rp32
(I3
S'<'
p33
NNNI-1
I-1
I0
tp34
bI00
S'\x8bRh&\xffL\xf6\xbf'
p35
tp36
bag3
(g4
(I0
tp37
g6
tp38
Rp39
(g9
(g10
g11
Ntp40
Rp41
(dp42
g15
I01
sbI1
(tg16
(S'f8'
p43
I0
I1
tp44
Rp45
(I3
S'<'
p46
NNNI-1
I-1
I0
tp47
bI00
S'\x168\xa3\xc03=\xb4\xbf'
p48
tp49
bag3
(g4
(I0
tp50
g6
tp51
Rp52
(g9
(g10
g11
Ntp53
Rp54
(dp55
g15
I01
sbI1
(tg16
(S'f8'
p56
I0
I1
tp57
Rp58
(I3
S'<'
p59
NNNI-1
I-1
I0
tp60
bI00
S'\xfe\xd0\xf9\x1f\xa1\xf1\xfa\xbf'
p61
tp62
bag3
(g4
(I0
tp63
g6
tp64
Rp65
(g9
(g10
g11
Ntp66
Rp67
(dp68
g15
I01
sbI1
(tg16
(S'f8'
p69
I0
I1
tp70
Rp71
(I3
S'<'
p72
NNNI-1
I-1
I0
tp73
bI00
S'\x03\xf7}\xb6\xd4\xa9\xf8\xbf'
p74
tp75
bag3
(g4
(I0
tp76
g6
tp77
Rp78
(g9
(g10
g11
Ntp79
Rp80
(dp81
g15
I01
sbI1
(tg16
(S'f8'
p82
I0
I1
tp83
Rp84
(I3
S'<'
p85
NNNI-1
I-1
I0
tp86
bI00
S'^\xad\x94\x8d\xc3\xb0\xff\xbf'
p87
tp88
bag3
(g4
(I0
tp89
g6
tp90
Rp91
(g9
(g10
g11
Ntp92
Rp93
(dp94
g15
I01
sbI1
(tg16
(S'f8'
p95
I0
I1
tp96
Rp97
(I3
S'<'
p98
NNNI-1
I-1
I0
tp99
bI00
S'\xb9\xa0?\xefo\xa7\xd7\xbf'
p100
tp101
basS'zstar_tot'
p102
(lp103
g3
(g4
(I0
tp104
g6
tp105
Rp106
(g13
I1
(tg19
I00
S'K\x1c\x15$,MR?'
p107
tp108
bag3
(g4
(I0
tp109
g6
tp110
Rp111
(g28
I1
(tg32
I00
S'z\xe2A\xe0\\CS?'
p112
tp113
bag3
(g4
(I0
tp114
g6
tp115
Rp116
(g41
I1
(tg45
I00
S'\xdd9eX\xa4\xcc\x96?'
p117
tp118
bag3
(g4
(I0
tp119
g6
tp120
Rp121
(g54
I1
(tg58
I00
S'\xe1\xdcR\xcd\xa8\\;?'
p122
tp123
bag3
(g4
(I0
tp124
g6
tp125
Rp126
(g67
I1
(tg71
I00
S'\xc5\xff\xaf\x9e\xb2\xd8C?'
p127
tp128
bag3
(g4
(I0
tp129
g6
tp130
Rp131
(g80
I1
(tg84
I00
S'\xe1\xbb\x04\x80%\x081?'
p132
tp133
bag3
(g4
(I0
tp134
g6
tp135
Rp136
(g93
I1
(tg97
I00
S"\x8e'\x06\x82(=\x8d?"
p137
tp138
basS'mgas2'
p139
(lp140
g3
(g4
(I0
tp141
g6
tp142
Rp143
(g9
(cpynbody.units
CompositeUnit
p144
g11
Ntp145
Rp146
(dp147
S'_powers'
p148
(lp149
cfractions
Fraction
p150
(S'1'
p151
tp152
Rp153
asS'_scale'
p154
I1
sS'_bases'
p155
(lp156
cpynbody.units
_resurrect_named_unit
p157
(S'Msol'
p158
S'M_{\\odot}'
p159
g9
(g144
g11
Ntp160
Rp161
(dp162
g148
(lp163
I1
asg154
F1.98892e+30
sg155
(lp164
g157
(S'kg'
p165
NNtp166
Rp167
asbtp168
Rp169
asbI1
(tg19
I00
S'\xbb\t\xb6\x91\xf8\xe5\xdaA'
p170
tp171
bag3
(g4
(I0
tp172
g6
tp173
Rp174
(g9
(g144
g11
Ntp175
Rp176
(dp177
g148
(lp178
g150
(g151
tp179
Rp180
asg154
I1
sg155
(lp181
g169
asbI1
(tg32
I00
S'=\xed\x8asa\xb3\xcdA'
p182
tp183
bag3
(g4
(I0
tp184
g6
tp185
Rp186
(g9
(g144
g11
Ntp187
Rp188
(dp189
g148
(lp190
g150
(g151
tp191
Rp192
asg154
I1
sg155
(lp193
g169
asbI1
(tg45
I00
S'\xb4\\\x1d2W\x1c\x08B'
p194
tp195
bag3
(g4
(I0
tp196
g6
tp197
Rp198
(g9
(g144
g11
Ntp199
Rp200
(dp201
g148
(lp202
g150
(g151
tp203
Rp204
asg154
I1
sg155
(lp205
g169
asbI1
(tg58
I00
S'\tgu\x91 \xadRA'
p206
tp207
bag3
(g4
(I0
tp208
g6
tp209
Rp210
(g9
(g144
g11
Ntp211
Rp212
(dp213
g148
(lp214
g150
(g151
tp215
Rp216
asg154
I1
sg155
(lp217
g169
asbI1
(tg71
I00
S'\xb0\xb8\xddw"-\xb1A'
p218
tp219
bag3
(g4
(I0
tp220
g6
tp221
Rp222
(g9
(g144
g11
Ntp223
Rp224
(dp225
g148
(lp226
g150
(g151
tp227
Rp228
asg154
I1
sg155
(lp229
g169
asbI1
(tg84
I00
S'\x1fUK\x7f\xe8\x14tA'
p230
tp231
bag3
(g4
(I0
tp232
g6
tp233
Rp234
(g9
(g144
g11
Ntp235
Rp236
(dp237
g148
(lp238
g150
(g151
tp239
Rp240
asg154
I1
sg155
(lp241
g169
asbI1
(tg97
I00
S'\xf6\xa4\x82x:\xdd\x00B'
p242
tp243
basS'oh_gas2'
p244
(lp245
g3
(g4
(I0
tp246
g6
tp247
Rp248
(g13
I1
(tg19
I00
S'\x04\xf8\xe6\x1e~\xa8\x1f@'
p249
tp250
bag3
(g4
(I0
tp251
g6
tp252
Rp253
(g28
I1
(tg32
I00
S'X;*\x9c\xb7\xb3\x1f@'
p254
tp255
bag3
(g4
(I0
tp256
g6
tp257
Rp258
(g41
I1
(tg45
I00
S'\x05\x0b\xc5\xd5\'\x8e"@'
p259
tp260
bag3
(g4
(I0
tp261
g6
tp262
Rp263
(g54
I1
(tg58
I00
S'dR\xacf\x0e\x1c\x1e@'
p264
tp265
bag3
(g4
(I0
tp266
g6
tp267
Rp268
(g67
I1
(tg71
I00
S'\xca\x1d\xc5\x8d\x80\xad\x1e@'
p269
tp270
bag3
(g4
(I0
tp271
g6
tp272
Rp273
(g80
I1
(tg84
I00
S'-q\xf1\xdf\xb8\x96\x1c@'
p274
tp275
bag3
(g4
(I0
tp276
g6
tp277
Rp278
(g93
I1
(tg97
I00
S'd\x1b\xc2\xc2i\x17"@'
p279
tp280
basS'oh_gas3'
p281
(lp282
g3
(g4
(I0
tp283
g6
tp284
Rp285
(g13
I1
(tg19
I00
S'\x04\xf8\xe6\x1e~\xa8\x1f@'
p286
tp287
bag3
(g4
(I0
tp288
g6
tp289
Rp290
(g28
I1
(tg32
I00
S'X;*\x9c\xb7\xb3\x1f@'
p291
tp292
bag3
(g4
(I0
tp293
g6
tp294
Rp295
(g41
I1
(tg45
I00
S'\x05\x0b\xc5\xd5\'\x8e"@'
p296
tp297
bag3
(g4
(I0
tp298
g6
tp299
Rp300
(g54
I1
(tg58
I00
S'dR\xacf\x0e\x1c\x1e@'
p301
tp302
bag3
(g4
(I0
tp303
g6
tp304
Rp305
(g67
I1
(tg71
I00
S'\xca\x1d\xc5\x8d\x80\xad\x1e@'
p306
tp307
bag3
(g4
(I0
tp308
g6
tp309
Rp310
(g80
I1
(tg84
I00
S'-q\xf1\xdf\xb8\x96\x1c@'
p311
tp312
bag3
(g4
(I0
tp313
g6
tp314
Rp315
(g93
I1
(tg97
I00
S'd\x1b\xc2\xc2i\x17"@'
p316
tp317
basS'mstar_rh'
p318
(lp319
g3
(g4
(I0
tp320
g6
tp321
Rp322
(g146
I1
(tg19
I00
S'\x8aB\xfe\xe6\x9bu\xadA'
p323
tp324
bag3
(g4
(I0
tp325
g6
tp326
Rp327
(g176
I1
(tg32
I00
S'\xd1\xee\x0c\xc8\\J\x9cA'
p328
tp329
bag3
(g4
(I0
tp330
g6
tp331
Rp332
(g188
I1
(tg45
I00
S'Y>qA\x90P0B'
p333
tp334
bag3
(g4
(I0
tp335
g6
tp336
Rp337
(g200
I1
(tg58
I00
S'\xcc\xf7H\x93T\x03eA'
p338
tp339
bag3
(g4
(I0
tp340
g6
tp341
Rp342
(g212
I1
(tg71
I00
S'\xefj#\xe9\xdb\xc8\x80A'
p343
tp344
bag3
(g4
(I0
tp345
g6
tp346
Rp347
(g224
I1
(tg84
I00
S'v{\x17<\xd7\xbc(A'
p348
tp349
bag3
(g4
(I0
tp350
g6
tp351
Rp352
(g236
I1
(tg97
I00
S'K\xdc{\xb7l\x10\x07B'
p353
tp354
basS'zstar3'
p355
(lp356
g3
(g4
(I0
tp357
g6
tp358
Rp359
(g13
I1
(tg19
I00
S'Q\xc5\xf4H\xaa\xa5S?'
p360
tp361
bag3
(g4
(I0
tp362
g6
tp363
Rp364
(g28
I1
(tg32
I00
S'}\\\xc4r\x05\x7fU?'
p365
tp366
bag3
(g4
(I0
tp367
g6
tp368
Rp369
(g41
I1
(tg45
I00
S'\xe9\xa3\xcb82,\x99?'
p370
tp371
bag3
(g4
(I0
tp372
g6
tp373
Rp374
(g54
I1
(tg58
I00
S'\xa3z\xe4v\xf8o>?'
p375
tp376
bag3
(g4
(I0
tp377
g6
tp378
Rp379
(g67
I1
(tg71
I00
S'!\x0cWM\x8fFF?'
p380
tp381
bag3
(g4
(I0
tp382
g6
tp383
Rp384
(g80
I1
(tg84
I00
S'\n\xc4\x07b\x9eb1?'
p385
tp386
bag3
(g4
(I0
tp387
g6
tp388
Rp389
(g93
I1
(tg97
I00
S'@n\xfe\xfe\xe9.\x90?'
p390
tp391
basS'feh'
p392
(lp393
g3
(g4
(I0
tp394
g6
tp395
Rp396
(g13
I1
(tg19
I00
S'\xe9\x9f>\t\x9c\xae\xf7\xbf'
p397
tp398
bag3
(g4
(I0
tp399
g6
tp400
Rp401
(g28
I1
(tg32
I00
S'2\xea\x11\x87[\xde\xf7\xbf'
p402
tp403
bag3
(g4
(I0
tp404
g6
tp405
Rp406
(g41
I1
(tg45
I00
S'\xe2\x06\x9cd\xf4\x1c\xca\xbf'
p407
tp408
bag3
(g4
(I0
tp409
g6
tp410
Rp411
(g54
I1
(tg58
I00
S'5\xce\x18\xa0\xaf\xc2\xfd\xbf'
p412
tp413
bag3
(g4
(I0
tp414
g6
tp415
Rp416
(g67
I1
(tg71
I00
S'\xe6\x94\xefM\x8e\xce\xfa\xbf'
p417
tp418
bag3
(g4
(I0
tp419
g6
tp420
Rp421
(g80
I1
(tg84
I00
S'nv\x10\x8d\xe0X\x00\xc0'
p422
tp423
bag3
(g4
(I0
tp424
g6
tp425
Rp426
(g93
I1
(tg97
I00
S'\xdc\xa1\xdc_T\xd2\xe0\xbf'
p427
tp428
basS'zstar'
p429
(lp430
g3
(g4
(I0
tp431
g6
tp432
Rp433
(g13
I1
(tg19
I00
S'7[\xe2U\xe4aT?'
p434
tp435
bag3
(g4
(I0
tp436
g6
tp437
Rp438
(g28
I1
(tg32
I00
S'\x8c[\x80\xf8\x9c\x96U?'
p439
tp440
bag3
(g4
(I0
tp441
g6
tp442
Rp443
(g41
I1
(tg45
I00
S'\xb6F\x12\xebp\xde\x98?'
p444
tp445
bag3
(g4
(I0
tp446
g6
tp447
Rp448
(g54
I1
(tg58
I00
S'\xf7\x8f\xa8\xce\xac\x95@?'
p449
tp450
bag3
(g4
(I0
tp451
g6
tp452
Rp453
(g67
I1
(tg71
I00
S'\x97\xfd\xbb\xd5\xb1\x0bH?'
p454
tp455
bag3
(g4
(I0
tp456
g6
tp457
Rp458
(g80
I1
(tg84
I00
S'\xfc[\xcd\x82>`1?'
p459
tp460
bag3
(g4
(I0
tp461
g6
tp462
Rp463
(g93
I1
(tg97
I00
S'A\xa9\x97\xc5\xac\xe6\x90?'
p464
tp465
basS'mgas_tot'
p466
(lp467
g3
(g4
(I0
tp468
g6
tp469
Rp470
(g146
I1
(tg19
I00
S'\x04Zq\x1e\xd6`\x0bB'
p471
tp472
bag3
(g4
(I0
tp473
g6
tp474
Rp475
(g176
I1
(tg32
I00
S'\xdd\x8c~\xbfN\x89\tB'
p476
tp477
bag3
(g4
(I0
tp478
g6
tp479
Rp480
(g188
I1
(tg45
I00
S'\x1f\x03\xf6 \xd0\x87LB'
p481
tp482
bag3
(g4
(I0
tp483
g6
tp484
Rp485
(g200
I1
(tg58
I00
S'\x96N\xf2\x01\xcfm\xd2A'
p486
tp487
bag3
(g4
(I0
tp488
g6
tp489
Rp490
(g212
I1
(tg71
I00
S'\xf6{0\xfb\xa4]\xe3A'
p491
tp492
bag3
(g4
(I0
tp493
g6
tp494
Rp495
(g224
I1
(tg84
I00
S'\x9a\x00f\xfbT\xd8\xa3A'
p496
tp497
bag3
(g4
(I0
tp498
g6
tp499
Rp500
(g236
I1
(tg97
I00
S',zr\xf4Ct-B'
p501
tp502
basS'oh_gas_tot'
p503
(lp504
g3
(g4
(I0
tp505
g6
tp506
Rp507
(g13
I1
(tg19
I00
S'\x90\x9f\xd6qu\xd7\x1e@'
p508
tp509
bag3
(g4
(I0
tp510
g6
tp511
Rp512
(g28
I1
(tg32
I00
S'm)\x9b?\x88w\x1e@'
p513
tp514
bag3
(g4
(I0
tp515
g6
tp516
Rp517
(g41
I1
(tg45
I00
S'u\xc2u\xde>\xf9 @'
p518
tp519
bag3
(g4
(I0
tp520
g6
tp521
Rp522
(g54
I1
(tg58
I00
S'#B\xfa-p(\x19@'
p523
tp524
bag3
(g4
(I0
tp525
g6
tp526
Rp527
(g67
I1
(tg71
I00
S'0\xd5\x02Ff\x92\x1d@'
p528
tp529
bag3
(g4
(I0
tp530
g6
tp531
Rp532
(g80
I1
(tg84
I00
S'\x8fHO\x1e\xe4\x8d\x1b@'
p533
tp534
bag3
(g4
(I0
tp535
g6
tp536
Rp537
(g93
I1
(tg97
I00
S'\xcc%\x8f\n\xc9(!@'
p538
tp539
basS'time'
p540
(lp541
F8.648016675675684
aF8.648016675675684
aF8.648016675675684
aF8.648016675675684
aF8.648016675675684
aF8.64802006406065
aF8.648016675675684
asS'mstar_tot'
p542
(lp543
g3
(g4
(I0
tp544
g6
tp545
Rp546
(g146
I1
(tg19
I00
S'\x16\x1f\xbd_\x04/\xc3A'
p547
tp548
bag3
(g4
(I0
tp549
g6
tp550
Rp551
(g176
I1
(tg32
I00
S'\x89\xdb\xe6\x9e\x85 \xbcA'
p552
tp553
bag3
(g4
(I0
tp554
g6
tp555
Rp556
(g188
I1
(tg45
I00
S'\xb0&Q\xca\x8c>AB'
p557
tp558
bag3
(g4
(I0
tp559
g6
tp560
Rp561
(g200
I1
(tg58
I00
S'\xa1J\xc0\xc8c\x89}A'
p562
tp563
bag3
(g4
(I0
tp564
g6
tp565
Rp566
(g212
I1
(tg71
I00
S'6\xe4J+\xab\xea\x97A'
p567
tp568
bag3
(g4
(I0
tp569
g6
tp570
Rp571
(g224
I1
(tg84
I00
S'\xce\x1c\x1d\xf4mq<A'
p572
tp573
bag3
(g4
(I0
tp574
g6
tp575
Rp576
(g236
I1
(tg97
I00
S'\x9d\xfak_iY\x15B'
p577
tp578
basS'oh_gas'
p579
(lp580
g3
(g4
(I0
tp581
g6
tp582
Rp583
(g13
I1
(tg19
I00
S'I\xe7@\xe5v\xb7\x1f@'
p584
tp585
bag3
(g4
(I0
tp586
g6
tp587
Rp588
(g28
I1
(tg32
I00
S'`\xda\xe7u*\xa3\x1f@'
p589
tp590
bag3
(g4
(I0
tp591
g6
tp592
Rp593
(g41
I1
(tg45
I00
S'\xb58\x0f\x99\xb1\xae"@'
p594
tp595
bag3
(g4
(I0
tp596
g6
tp597
Rp598
(g54
I1
(tg58
I00
S'\x03\x8a\x08\x13\xae1\x1e@'
p599
tp600
bag3
(g4
(I0
tp601
g6
tp602
Rp603
(g67
I1
(tg71
I00
S'\xcdI\xf4\xad\xab\xb3\x1e@'
p604
tp605
bag3
(g4
(I0
tp606
g6
tp607
Rp608
(g80
I1
(tg84
I00
S'\xfeKR\xe7$\x9b\x1c@'
p609
tp610
bag3
(g4
(I0
tp611
g6
tp612
Rp613
(g93
I1
(tg97
I00
S'\xee\xd3\xb2e\x97."@'
p614
tp615
basS'z'
p616
(lp617
F0.4931565153057902
aF0.4931565153057902
aF0.4931565153057902
aF0.4931565153057902
aF0.4931565153057902
aF0.4931565153057902
aF0.4931565153057902
asS'zstar2'
p618
(lp619
g3
(g4
(I0
tp620
g6
tp621
Rp622
(g13
I1
(tg19
I00
S'Q\xc5\xf4H\xaa\xa5S?'
p623
tp624
bag3
(g4
(I0
tp625
g6
tp626
Rp627
(g28
I1
(tg32
I00
S'}\\\xc4r\x05\x7fU?'
p628
tp629
bag3
(g4
(I0
tp630
g6
tp631
Rp632
(g41
I1
(tg45
I00
S'\xe9\xa3\xcb82,\x99?'
p633
tp634
bag3
(g4
(I0
tp635
g6
tp636
Rp637
(g54
I1
(tg58
I00
S'\xa3z\xe4v\xf8o>?'
p638
tp639
bag3
(g4
(I0
tp640
g6
tp641
Rp642
(g67
I1
(tg71
I00
S'!\x0cWM\x8fFF?'
p643
tp644
bag3
(g4
(I0
tp645
g6
tp646
Rp647
(g80
I1
(tg84
I00
S'\n\xc4\x07b\x9eb1?'
p648
tp649
bag3
(g4
(I0
tp650
g6
tp651
Rp652
(g93
I1
(tg97
I00
S'@n\xfe\xfe\xe9.\x90?'
p653
tp654
basS'mstar2'
p655
(lp656
g3
(g4
(I0
tp657
g6
tp658
Rp659
(g146
I1
(tg19
I00
S'\xa5 \xcf\xbd\x1cD\xbeA'
p660
tp661
bag3
(g4
(I0
tp662
g6
tp663
Rp664
(g176
I1
(tg32
I00
S'\xf5Vr\xc5g\xff\xb2A'
p665
tp666
bag3
(g4
(I0
tp667
g6
tp668
Rp669
(g188
I1
(tg45
I00
S'\n\x84)4_\xc67B'
p670
tp671
bag3
(g4
(I0
tp672
g6
tp673
Rp674
(g200
I1
(tg58
I00
S'u\xa9H\x19\x16VuA'
p675
tp676
bag3
(g4
(I0
tp677
g6
tp678
Rp679
(g212
I1
(tg71
I00
S'\x00\xd5\xe4\xec\xce/\x90A'
p680
tp681
bag3
(g4
(I0
tp682
g6
tp683
Rp684
(g224
I1
(tg84
I00
S'\x0e\x1a\x90\xfc\xdbn5A'
p685
tp686
bag3
(g4
(I0
tp687
g6
tp688
Rp689
(g236
I1
(tg97
I00
S'\xb8\x9d\x0f\x9d\x14V\x11B'
p690
tp691
bas.