(dp0
S'feh_rh'
p1
(lp2
cnumpy.core.multiarray
_reconstruct
p3
(cpynbody.array
SimArray
p4
(I0
tp5
S'b'
p6
tp7
Rp8
(ccopy_reg
_reconstructor
p9
(cpynbody.units
NoUnit
p10
c__builtin__
object
p11
Ntp12
Rp13
(dp14
S'_no_unit'
p15
I01
sbI1
(tcnumpy
dtype
p16
(S'f8'
p17
I0
I1
tp18
Rp19
(I3
S'<'
p20
NNNI-1
I-1
I0
tp21
bI00
S'P\x96\x17\xd5\x02\x9d\xf5\xbf'
p22
tp23
bag3
(g4
(I0
tp24
g6
tp25
Rp26
(g9
(g10
g11
Ntp27
Rp28
(dp29
g15
I01
sbI1
(tg16
(S'f8'
p30
I0
I1
tp31
Rp32
(I3
S'<'
p33
NNNI-1
I-1
I0
tp34
bI00
S'\xfd\x83\xb3\x9fc0\xf3\xbf'
p35
tp36
bag3
(g4
(I0
tp37
g6
tp38
Rp39
(g9
(g10
g11
Ntp40
Rp41
(dp42
g15
I01
sbI1
(tg16
(S'f8'
p43
I0
I1
tp44
Rp45
(I3
S'<'
p46
NNNI-1
I-1
I0
tp47
bI00
S'\xd0\xae\x90\x91\xbf\xdd\x01\xc0'
p48
tp49
bag3
(g4
(I0
tp50
g6
tp51
Rp52
(g9
(g10
g11
Ntp53
Rp54
(dp55
g15
I01
sbI1
(tg16
(S'f8'
p56
I0
I1
tp57
Rp58
(I3
S'<'
p59
NNNI-1
I-1
I0
tp60
bI00
S'\xd7\x02?\x8c+\x11\xcb?'
p61
tp62
bag3
(g4
(I0
tp63
g6
tp64
Rp65
(g9
(g10
g11
Ntp66
Rp67
(dp68
g15
I01
sbI1
(tg16
(S'f8'
p69
I0
I1
tp70
Rp71
(I3
S'<'
p72
NNNI-1
I-1
I0
tp73
bI00
S'P\xb2~;8\xf5\xfd\xbf'
p74
tp75
bag3
(g4
(I0
tp76
g6
tp77
Rp78
(g9
(g10
g11
Ntp79
Rp80
(dp81
g15
I01
sbI1
(tg16
(S'f8'
p82
I0
I1
tp83
Rp84
(I3
S'<'
p85
NNNI-1
I-1
I0
tp86
bI00
S'\xce\xae9\x8c a\xfd\xbf'
p87
tp88
bag3
(g4
(I0
tp89
g6
tp90
Rp91
(g9
(g10
g11
Ntp92
Rp93
(dp94
g15
I01
sbI1
(tg16
(S'f8'
p95
I0
I1
tp96
Rp97
(I3
S'<'
p98
NNNI-1
I-1
I0
tp99
bI00
S'\xea\xd6AK\x03q\xea\xbf'
p100
tp101
bag3
(g4
(I0
tp102
g6
tp103
Rp104
(g9
(g10
g11
Ntp105
Rp106
(dp107
g15
I01
sbI1
(tg16
(S'f8'
p108
I0
I1
tp109
Rp110
(I3
S'<'
p111
NNNI-1
I-1
I0
tp112
bI00
S'\xe0\x85\xde\x16\x1b~\xfe\xbf'
p113
tp114
bag3
(g4
(I0
tp115
g6
tp116
Rp117
(g9
(g10
g11
Ntp118
Rp119
(dp120
g15
I01
sbI1
(tg16
(S'f8'
p121
I0
I1
tp122
Rp123
(I3
S'<'
p124
NNNI-1
I-1
I0
tp125
bI00
S'\x1f\x17\xaa\x0b\x03\xf9\xfa\xbf'
p126
tp127
bag3
(g4
(I0
tp128
g6
tp129
Rp130
(g9
(g10
g11
Ntp131
Rp132
(dp133
g15
I01
sbI1
(tg16
(S'f8'
p134
I0
I1
tp135
Rp136
(I3
S'<'
p137
NNNI-1
I-1
I0
tp138
bI00
S'C\x1dF\xfe\xbf\xff\xfe\xbf'
p139
tp140
bag3
(g4
(I0
tp141
g6
tp142
Rp143
(g9
(g10
g11
Ntp144
Rp145
(dp146
g15
I01
sbI1
(tg16
(S'f8'
p147
I0
I1
tp148
Rp149
(I3
S'<'
p150
NNNI-1
I-1
I0
tp151
bI00
S'_\xca\xeec\xbfM\xf5\xbf'
p152
tp153
bag3
(g4
(I0
tp154
g6
tp155
Rp156
(g9
(g10
g11
Ntp157
Rp158
(dp159
g15
I01
sbI1
(tg16
(S'f8'
p160
I0
I1
tp161
Rp162
(I3
S'<'
p163
NNNI-1
I-1
I0
tp164
bI00
S'\x94\x19\xb3\xb9G\xa7\xfb\xbf'
p165
tp166
bag3
(g4
(I0
tp167
g6
tp168
Rp169
(g9
(g10
g11
Ntp170
Rp171
(dp172
g15
I01
sbI1
(tg16
(S'f8'
p173
I0
I1
tp174
Rp175
(I3
S'<'
p176
NNNI-1
I-1
I0
tp177
bI00
S'\x8f\xbe\x1c\rV\xb3\xf2\xbf'
p178
tp179
bag3
(g4
(I0
tp180
g6
tp181
Rp182
(g9
(g10
g11
Ntp183
Rp184
(dp185
g15
I01
sbI1
(tg16
(S'f8'
p186
I0
I1
tp187
Rp188
(I3
S'<'
p189
NNNI-1
I-1
I0
tp190
bI00
S'\x86Z\xa8\xf0[T\xf5\xbf'
p191
tp192
bag3
(g4
(I0
tp193
g6
tp194
Rp195
(g9
(g10
g11
Ntp196
Rp197
(dp198
g15
I01
sbI1
(tg16
(S'f8'
p199
I0
I1
tp200
Rp201
(I3
S'<'
p202
NNNI-1
I-1
I0
tp203
bI00
S'z\xac\xb2c\xad\x19\xf8\xbf'
p204
tp205
bag3
(g4
(I0
tp206
g6
tp207
Rp208
(g9
(g10
g11
Ntp209
Rp210
(dp211
g15
I01
sbI1
(tg16
(S'f8'
p212
I0
I1
tp213
Rp214
(I3
S'<'
p215
NNNI-1
I-1
I0
tp216
bI00
S'\x9b\x90=H\x02!\x83?'
p217
tp218
bag3
(g4
(I0
tp219
g6
tp220
Rp221
(g9
(g10
g11
Ntp222
Rp223
(dp224
g15
I01
sbI1
(tg16
(S'f8'
p225
I0
I1
tp226
Rp227
(I3
S'<'
p228
NNNI-1
I-1
I0
tp229
bI00
S'\xfd\xa5\xccn\xae\x8c\xfe\xbf'
p230
tp231
bag3
(g4
(I0
tp232
g6
tp233
Rp234
(g9
(g10
g11
Ntp235
Rp236
(dp237
g15
I01
sbI1
(tg16
(S'f8'
p238
I0
I1
tp239
Rp240
(I3
S'<'
p241
NNNI-1
I-1
I0
tp242
bI00
S'\x1e.\x1d\x07\x17~\xfd\xbf'
p243
tp244
bag3
(g4
(I0
tp245
g6
tp246
Rp247
(g9
(g10
g11
Ntp248
Rp249
(dp250
g15
I01
sbI1
(tg16
(S'f8'
p251
I0
I1
tp252
Rp253
(I3
S'<'
p254
NNNI-1
I-1
I0
tp255
bI00
S'\\&#\xeb\x05U\xfc\xbf'
p256
tp257
bag3
(g4
(I0
tp258
g6
tp259
Rp260
(g9
(g10
g11
Ntp261
Rp262
(dp263
g15
I01
sbI1
(tg16
(S'f8'
p264
I0
I1
tp265
Rp266
(I3
S'<'
p267
NNNI-1
I-1
I0
tp268
bI00
S'/OC\xad\x1b\xaf\xff\xbf'
p269
tp270
bag3
(g4
(I0
tp271
g6
tp272
Rp273
(g9
(g10
g11
Ntp274
Rp275
(dp276
g15
I01
sbI1
(tg16
(S'f8'
p277
I0
I1
tp278
Rp279
(I3
S'<'
p280
NNNI-1
I-1
I0
tp281
bI00
S'\x92\x99\xc5\x11\x08\x9f\xa8?'
p282
tp283
bag3
(g4
(I0
tp284
g6
tp285
Rp286
(g9
(g10
g11
Ntp287
Rp288
(dp289
g15
I01
sbI1
(tg16
(S'f8'
p290
I0
I1
tp291
Rp292
(I3
S'<'
p293
NNNI-1
I-1
I0
tp294
bI00
S',8\xc9\xa7\xb2\x92\xfc\xbf'
p295
tp296
bag3
(g4
(I0
tp297
g6
tp298
Rp299
(g9
(g10
g11
Ntp300
Rp301
(dp302
g15
I01
sbI1
(tg16
(S'f8'
p303
I0
I1
tp304
Rp305
(I3
S'<'
p306
NNNI-1
I-1
I0
tp307
bI00
S'\xb7\xa2\xcaO\xe8\xd6\xe0\xbf'
p308
tp309
bag3
(g4
(I0
tp310
g6
tp311
Rp312
(g9
(g10
g11
Ntp313
Rp314
(dp315
g15
I01
sbI1
(tg16
(S'f8'
p316
I0
I1
tp317
Rp318
(I3
S'<'
p319
NNNI-1
I-1
I0
tp320
bI00
S'\xb3\xe7\x05\xa9&d\xfd\xbf'
p321
tp322
bag3
(g4
(I0
tp323
g6
tp324
Rp325
(g9
(g10
g11
Ntp326
Rp327
(dp328
g15
I01
sbI1
(tg16
(S'f8'
p329
I0
I1
tp330
Rp331
(I3
S'<'
p332
NNNI-1
I-1
I0
tp333
bI00
S'\x8f\xf8\xec\xf9\xd1\x99\xf2\xbf'
p334
tp335
bag3
(g4
(I0
tp336
g6
tp337
Rp338
(g9
(g10
g11
Ntp339
Rp340
(dp341
g15
I01
sbI1
(tg16
(S'f8'
p342
I0
I1
tp343
Rp344
(I3
S'<'
p345
NNNI-1
I-1
I0
tp346
bI00
S'\xdb\xe1.\xe9\xde\xa8\xfb\xbf'
p347
tp348
bag3
(g4
(I0
tp349
g6
tp350
Rp351
(g9
(g10
g11
Ntp352
Rp353
(dp354
g15
I01
sbI1
(tg16
(S'f8'
p355
I0
I1
tp356
Rp357
(I3
S'<'
p358
NNNI-1
I-1
I0
tp359
bI00
S'[\xe9\x7f\xe3u\x04\xfc\xbf'
p360
tp361
bag3
(g4
(I0
tp362
g6
tp363
Rp364
(g9
(g10
g11
Ntp365
Rp366
(dp367
g15
I01
sbI1
(tg16
(S'f8'
p368
I0
I1
tp369
Rp370
(I3
S'<'
p371
NNNI-1
I-1
I0
tp372
bI00
S'\xfe\x8b\x84W\x9b\x1e\xfe\xbf'
p373
tp374
bag3
(g4
(I0
tp375
g6
tp376
Rp377
(g9
(g10
g11
Ntp378
Rp379
(dp380
g15
I01
sbI1
(tg16
(S'f8'
p381
I0
I1
tp382
Rp383
(I3
S'<'
p384
NNNI-1
I-1
I0
tp385
bI00
S' ]a\x90\x84\x87\xe2\xbf'
p386
tp387
bag3
(g4
(I0
tp388
g6
tp389
Rp390
(g9
(g10
g11
Ntp391
Rp392
(dp393
g15
I01
sbI1
(tg16
(S'f8'
p394
I0
I1
tp395
Rp396
(I3
S'<'
p397
NNNI-1
I-1
I0
tp398
bI00
S'+\xc2I"\xb5\x03\xe9\xbf'
p399
tp400
bag3
(g4
(I0
tp401
g6
tp402
Rp403
(g9
(g10
g11
Ntp404
Rp405
(dp406
g15
I01
sbI1
(tg16
(S'f8'
p407
I0
I1
tp408
Rp409
(I3
S'<'
p410
NNNI-1
I-1
I0
tp411
bI00
S'p\x0eR^\x91\x93\xe4\xbf'
p412
tp413
bag3
(g4
(I0
tp414
g6
tp415
Rp416
(g9
(g10
g11
Ntp417
Rp418
(dp419
g15
I01
sbI1
(tg16
(S'f8'
p420
I0
I1
tp421
Rp422
(I3
S'<'
p423
NNNI-1
I-1
I0
tp424
bI00
S'glG\xb3\xfc&\xed\xbf'
p425
tp426
bag3
(g4
(I0
tp427
g6
tp428
Rp429
(g9
(g10
g11
Ntp430
Rp431
(dp432
g15
I01
sbI1
(tg16
(S'f8'
p433
I0
I1
tp434
Rp435
(I3
S'<'
p436
NNNI-1
I-1
I0
tp437
bI00
S'\xdf\xb1\x81\xa4\x18x\xd7\xbf'
p438
tp439
bag3
(g4
(I0
tp440
g6
tp441
Rp442
(g9
(g10
g11
Ntp443
Rp444
(dp445
g15
I01
sbI1
(tg16
(S'f8'
p446
I0
I1
tp447
Rp448
(I3
S'<'
p449
NNNI-1
I-1
I0
tp450
bI00
S'\x12)\xb3(\x07i\xf8\xbf'
p451
tp452
bag3
(g4
(I0
tp453
g6
tp454
Rp455
(g9
(g10
g11
Ntp456
Rp457
(dp458
g15
I01
sbI1
(tg16
(S'f8'
p459
I0
I1
tp460
Rp461
(I3
S'<'
p462
NNNI-1
I-1
I0
tp463
bI00
S'\x166+mr\xd4\xfd\xbf'
p464
tp465
bag3
(g4
(I0
tp466
g6
tp467
Rp468
(g9
(g10
g11
Ntp469
Rp470
(dp471
g15
I01
sbI1
(tg16
(S'f8'
p472
I0
I1
tp473
Rp474
(I3
S'<'
p475
NNNI-1
I-1
I0
tp476
bI00
S'\xaf\x9bT9\xb6\xc2\xb4?'
p477
tp478
bag3
(g4
(I0
tp479
g6
tp480
Rp481
(g9
(g10
g11
Ntp482
Rp483
(dp484
g15
I01
sbI1
(tg16
(S'f8'
p485
I0
I1
tp486
Rp487
(I3
S'<'
p488
NNNI-1
I-1
I0
tp489
bI00
S'\xe6:kH*\x85\xf9\xbf'
p490
tp491
bag3
(g4
(I0
tp492
g6
tp493
Rp494
(g9
(g10
g11
Ntp495
Rp496
(dp497
g15
I01
sbI1
(tg16
(S'f8'
p498
I0
I1
tp499
Rp500
(I3
S'<'
p501
NNNI-1
I-1
I0
tp502
bI00
S'\xc2\x1d\xed\n\xa3O\xfb\xbf'
p503
tp504
bag3
(g4
(I0
tp505
g6
tp506
Rp507
(g9
(g10
g11
Ntp508
Rp509
(dp510
g15
I01
sbI1
(tg16
(S'f8'
p511
I0
I1
tp512
Rp513
(I3
S'<'
p514
NNNI-1
I-1
I0
tp515
bI00
S'\xc9\xda\\\x0f\xc2e\xf8\xbf'
p516
tp517
bag3
(g4
(I0
tp518
g6
tp519
Rp520
(g9
(g10
g11
Ntp521
Rp522
(dp523
g15
I01
sbI1
(tg16
(S'f8'
p524
I0
I1
tp525
Rp526
(I3
S'<'
p527
NNNI-1
I-1
I0
tp528
bI00
S'\xc7#:\xf5z0\xe2\xbf'
p529
tp530
bag3
(g4
(I0
tp531
g6
tp532
Rp533
(g9
(g10
g11
Ntp534
Rp535
(dp536
g15
I01
sbI1
(tg16
(S'f8'
p537
I0
I1
tp538
Rp539
(I3
S'<'
p540
NNNI-1
I-1
I0
tp541
bI00
S'\x8b\x9c\x14a\x18\x1d\xf9\xbf'
p542
tp543
bag3
(g4
(I0
tp544
g6
tp545
Rp546
(g9
(g10
g11
Ntp547
Rp548
(dp549
g15
I01
sbI1
(tg16
(S'f8'
p550
I0
I1
tp551
Rp552
(I3
S'<'
p553
NNNI-1
I-1
I0
tp554
bI00
S'\x016\xf4\x84\xa9\x18\xec\xbf'
p555
tp556
bag3
(g4
(I0
tp557
g6
tp558
Rp559
(g9
(g10
g11
Ntp560
Rp561
(dp562
g15
I01
sbI1
(tg16
(S'f8'
p563
I0
I1
tp564
Rp565
(I3
S'<'
p566
NNNI-1
I-1
I0
tp567
bI00
S'\xb9}\x91\xa4h\x01\xf6\xbf'
p568
tp569
bag3
(g4
(I0
tp570
g6
tp571
Rp572
(g9
(g10
g11
Ntp573
Rp574
(dp575
g15
I01
sbI1
(tg16
(S'f8'
p576
I0
I1
tp577
Rp578
(I3
S'<'
p579
NNNI-1
I-1
I0
tp580
bI00
S'\x0b)\xdc:\xcc\x84\xfa\xbf'
p581
tp582
bag3
(g4
(I0
tp583
g6
tp584
Rp585
(g9
(g10
g11
Ntp586
Rp587
(dp588
g15
I01
sbI1
(tg16
(S'f8'
p589
I0
I1
tp590
Rp591
(I3
S'<'
p592
NNNI-1
I-1
I0
tp593
bI00
S'\t\xff\x1f\xdc\xa3\xc3\xeb\xbf'
p594
tp595
bag3
(g4
(I0
tp596
g6
tp597
Rp598
(g9
(g10
g11
Ntp599
Rp600
(dp601
g15
I01
sbI1
(tg16
(S'f8'
p602
I0
I1
tp603
Rp604
(I3
S'<'
p605
NNNI-1
I-1
I0
tp606
bI00
S'\xb2\xf1]\xbe\x8dH\xf0\xbf'
p607
tp608
bag3
(g4
(I0
tp609
g6
tp610
Rp611
(g9
(g10
g11
Ntp612
Rp613
(dp614
g15
I01
sbI1
(tg16
(S'f8'
p615
I0
I1
tp616
Rp617
(I3
S'<'
p618
NNNI-1
I-1
I0
tp619
bI00
S'\xd8\x91\xdb\xc5\x0b\xcf\xeb\xbf'
p620
tp621
bag3
(g4
(I0
tp622
g6
tp623
Rp624
(g9
(g10
g11
Ntp625
Rp626
(dp627
g15
I01
sbI1
(tg16
(S'f8'
p628
I0
I1
tp629
Rp630
(I3
S'<'
p631
NNNI-1
I-1
I0
tp632
bI00
S'\xdb\xeb>o;\xef\xc9\xbf'
p633
tp634
bag3
(g4
(I0
tp635
g6
tp636
Rp637
(g9
(g10
g11
Ntp638
Rp639
(dp640
g15
I01
sbI1
(tg16
(S'f8'
p641
I0
I1
tp642
Rp643
(I3
S'<'
p644
NNNI-1
I-1
I0
tp645
bI00
S'\xa1\x8c\x82\x91\x1c\xe1\xf9\xbf'
p646
tp647
bag3
(g4
(I0
tp648
g6
tp649
Rp650
(g9
(g10
g11
Ntp651
Rp652
(dp653
g15
I01
sbI1
(tg16
(S'f8'
p654
I0
I1
tp655
Rp656
(I3
S'<'
p657
NNNI-1
I-1
I0
tp658
bI00
S'\x0e\x0c\x89\xd30\xc6\xd8\xbf'
p659
tp660
bag3
(g4
(I0
tp661
g6
tp662
Rp663
(g9
(g10
g11
Ntp664
Rp665
(dp666
g15
I01
sbI1
(tg16
(S'f8'
p667
I0
I1
tp668
Rp669
(I3
S'<'
p670
NNNI-1
I-1
I0
tp671
bI00
S'\xe6\x91\xeb\xf2S\xa6\xfb\xbf'
p672
tp673
bag3
(g4
(I0
tp674
g6
tp675
Rp676
(g9
(g10
g11
Ntp677
Rp678
(dp679
g15
I01
sbI1
(tg16
(S'f8'
p680
I0
I1
tp681
Rp682
(I3
S'<'
p683
NNNI-1
I-1
I0
tp684
bI00
S'\xeb\xd1*\xa3\xa75\xfc\xbf'
p685
tp686
bag3
(g4
(I0
tp687
g6
tp688
Rp689
(g9
(g10
g11
Ntp690
Rp691
(dp692
g15
I01
sbI1
(tg16
(S'f8'
p693
I0
I1
tp694
Rp695
(I3
S'<'
p696
NNNI-1
I-1
I0
tp697
bI00
S'm\xee\x10\xb8\x19\xf7\x15\xc0'
p698
tp699
bag3
(g4
(I0
tp700
g6
tp701
Rp702
(g9
(g10
g11
Ntp703
Rp704
(dp705
g15
I01
sbI1
(tg16
(S'f8'
p706
I0
I1
tp707
Rp708
(I3
S'<'
p709
NNNI-1
I-1
I0
tp710
bI00
S'L{\xaf\xff\x084\xf9\xbf'
p711
tp712
bag3
(g4
(I0
tp713
g6
tp714
Rp715
(g9
(g10
g11
Ntp716
Rp717
(dp718
g15
I01
sbI1
(tg16
(S'f8'
p719
I0
I1
tp720
Rp721
(I3
S'<'
p722
NNNI-1
I-1
I0
tp723
bI00
S'\xbe\xffL\xff\xbd!\xfb\xbf'
p724
tp725
bag3
(g4
(I0
tp726
g6
tp727
Rp728
(g9
(g10
g11
Ntp729
Rp730
(dp731
g15
I01
sbI1
(tg16
(S'f8'
p732
I0
I1
tp733
Rp734
(I3
S'<'
p735
NNNI-1
I-1
I0
tp736
bI00
S'\xd5\x1eO\xcb\x14\xdf\xed\xbf'
p737
tp738
bag3
(g4
(I0
tp739
g6
tp740
Rp741
(g9
(g10
g11
Ntp742
Rp743
(dp744
g15
I01
sbI1
(tg16
(S'f8'
p745
I0
I1
tp746
Rp747
(I3
S'<'
p748
NNNI-1
I-1
I0
tp749
bI00
S'\xc7\x90"\xc9F\xdc\xf6\xbf'
p750
tp751
bag3
(g4
(I0
tp752
g6
tp753
Rp754
(g9
(g10
g11
Ntp755
Rp756
(dp757
g15
I01
sbI1
(tg16
(S'f8'
p758
I0
I1
tp759
Rp760
(I3
S'<'
p761
NNNI-1
I-1
I0
tp762
bI00
S'\xfe\xd9\x94[\r\x13\x00\xc0'
p763
tp764
bag3
(g4
(I0
tp765
g6
tp766
Rp767
(g9
(g10
g11
Ntp768
Rp769
(dp770
g15
I01
sbI1
(tg16
(S'f8'
p771
I0
I1
tp772
Rp773
(I3
S'<'
p774
NNNI-1
I-1
I0
tp775
bI00
S'\xe0\x0e\x92\x93?P\xf7\xbf'
p776
tp777
bag3
(g4
(I0
tp778
g6
tp779
Rp780
(g9
(g10
g11
Ntp781
Rp782
(dp783
g15
I01
sbI1
(tg16
(S'f8'
p784
I0
I1
tp785
Rp786
(I3
S'<'
p787
NNNI-1
I-1
I0
tp788
bI00
S'\xaa(\xe1\x9ag\xb7\xda\xbf'
p789
tp790
bag3
(g4
(I0
tp791
g6
tp792
Rp793
(g9
(g10
g11
Ntp794
Rp795
(dp796
g15
I01
sbI1
(tg16
(S'f8'
p797
I0
I1
tp798
Rp799
(I3
S'<'
p800
NNNI-1
I-1
I0
tp801
bI00
S"\xaa9>'S\xa7\xf7\xbf"
p802
tp803
bag3
(g4
(I0
tp804
g6
tp805
Rp806
(g9
(g10
g11
Ntp807
Rp808
(dp809
g15
I01
sbI1
(tg16
(S'f8'
p810
I0
I1
tp811
Rp812
(I3
S'<'
p813
NNNI-1
I-1
I0
tp814
bI00
S'\xb0v<^<M\x07\xc0'
p815
tp816
bag3
(g4
(I0
tp817
g6
tp818
Rp819
(g9
(g10
g11
Ntp820
Rp821
(dp822
g15
I01
sbI1
(tg16
(S'f8'
p823
I0
I1
tp824
Rp825
(I3
S'<'
p826
NNNI-1
I-1
I0
tp827
bI00
S'\xd4\x92flL\x1b\xda\xbf'
p828
tp829
bag3
(g4
(I0
tp830
g6
tp831
Rp832
(g9
(g10
g11
Ntp833
Rp834
(dp835
g15
I01
sbI1
(tg16
(S'f8'
p836
I0
I1
tp837
Rp838
(I3
S'<'
p839
NNNI-1
I-1
I0
tp840
bI00
S'\xa1\x97W\xbe\xb8\x93\xe8\xbf'
p841
tp842
bag3
(g4
(I0
tp843
g6
tp844
Rp845
(g9
(g10
g11
Ntp846
Rp847
(dp848
g15
I01
sbI1
(tg16
(S'f8'
p849
I0
I1
tp850
Rp851
(I3
S'<'
p852
NNNI-1
I-1
I0
tp853
bI00
S'\x85z8\x98\xe8\xab\xfd\xbf'
p854
tp855
bag3
(g4
(I0
tp856
g6
tp857
Rp858
(g9
(g10
g11
Ntp859
Rp860
(dp861
g15
I01
sbI1
(tg16
(S'f8'
p862
I0
I1
tp863
Rp864
(I3
S'<'
p865
NNNI-1
I-1
I0
tp866
bI00
S'\xc2K+\xbd\xd8k\xd3\xbf'
p867
tp868
bag3
(g4
(I0
tp869
g6
tp870
Rp871
(g9
(g10
g11
Ntp872
Rp873
(dp874
g15
I01
sbI1
(tg16
(S'f8'
p875
I0
I1
tp876
Rp877
(I3
S'<'
p878
NNNI-1
I-1
I0
tp879
bI00
S']\xe3\x1d\x01\xc1q\xed\xbf'
p880
tp881
bag3
(g4
(I0
tp882
g6
tp883
Rp884
(g9
(g10
g11
Ntp885
Rp886
(dp887
g15
I01
sbI1
(tg16
(S'f8'
p888
I0
I1
tp889
Rp890
(I3
S'<'
p891
NNNI-1
I-1
I0
tp892
bI00
S'\x08\x9bF\xffN\xbb\x00\xc0'
p893
tp894
bag3
(g4
(I0
tp895
g6
tp896
Rp897
(g9
(g10
g11
Ntp898
Rp899
(dp900
g15
I01
sbI1
(tg16
(S'f8'
p901
I0
I1
tp902
Rp903
(I3
S'<'
p904
NNNI-1
I-1
I0
tp905
bI00
S'R\x8e\xce\x84\xba\xa2\xe9\xbf'
p906
tp907
bag3
(g4
(I0
tp908
g6
tp909
Rp910
(g9
(g10
g11
Ntp911
Rp912
(dp913
g15
I01
sbI1
(tg16
(S'f8'
p914
I0
I1
tp915
Rp916
(I3
S'<'
p917
NNNI-1
I-1
I0
tp918
bI00
S'\xf8\xbd@\x95\x95{\xd1\xbf'
p919
tp920
bag3
(g4
(I0
tp921
g6
tp922
Rp923
(g9
(g10
g11
Ntp924
Rp925
(dp926
g15
I01
sbI1
(tg16
(S'f8'
p927
I0
I1
tp928
Rp929
(I3
S'<'
p930
NNNI-1
I-1
I0
tp931
bI00
S'\xd5C\xa6\xb6\xce\xd9\xa1\xbf'
p932
tp933
bag3
(g4
(I0
tp934
g6
tp935
Rp936
(g9
(g10
g11
Ntp937
Rp938
(dp939
g15
I01
sbI1
(tg16
(S'f8'
p940
I0
I1
tp941
Rp942
(I3
S'<'
p943
NNNI-1
I-1
I0
tp944
bI00
S'i\x02\xe1\xed]t\xc0\xbf'
p945
tp946
bag3
(g4
(I0
tp947
g6
tp948
Rp949
(g9
(g10
g11
Ntp950
Rp951
(dp952
g15
I01
sbI1
(tg16
(S'f8'
p953
I0
I1
tp954
Rp955
(I3
S'<'
p956
NNNI-1
I-1
I0
tp957
bI00
S'\xc7@O\xed\xac\x12\x87?'
p958
tp959
bag3
(g4
(I0
tp960
g6
tp961
Rp962
(g9
(g10
g11
Ntp963
Rp964
(dp965
g15
I01
sbI1
(tg16
(S'f8'
p966
I0
I1
tp967
Rp968
(I3
S'<'
p969
NNNI-1
I-1
I0
tp970
bI00
S'x\x88\xa0\xcc>\xfb\xc7\xbf'
p971
tp972
bag3
(g4
(I0
tp973
g6
tp974
Rp975
(g9
(g10
g11
Ntp976
Rp977
(dp978
g15
I01
sbI1
(tg16
(S'f8'
p979
I0
I1
tp980
Rp981
(I3
S'<'
p982
NNNI-1
I-1
I0
tp983
bI00
S'I\xd9\xc2\t\xb7G\xf4\xbf'
p984
tp985
bag3
(g4
(I0
tp986
g6
tp987
Rp988
(g9
(g10
g11
Ntp989
Rp990
(dp991
g15
I01
sbI1
(tg16
(S'f8'
p992
I0
I1
tp993
Rp994
(I3
S'<'
p995
NNNI-1
I-1
I0
tp996
bI00
S'\xb2J\xbb\xbd3{\x19\xc0'
p997
tp998
bag3
(g4
(I0
tp999
g6
tp1000
Rp1001
(g9
(g10
g11
Ntp1002
Rp1003
(dp1004
g15
I01
sbI1
(tg16
(S'f8'
p1005
I0
I1
tp1006
Rp1007
(I3
S'<'
p1008
NNNI-1
I-1
I0
tp1009
bI00
S'\x87\n\xf8:h\xd9\xf7\xbf'
p1010
tp1011
bag3
(g4
(I0
tp1012
g6
tp1013
Rp1014
(g9
(g10
g11
Ntp1015
Rp1016
(dp1017
g15
I01
sbI1
(tg16
(S'f8'
p1018
I0
I1
tp1019
Rp1020
(I3
S'<'
p1021
NNNI-1
I-1
I0
tp1022
bI00
S'9@\xcf9\xb9\x93\r\xc0'
p1023
tp1024
bag3
(g4
(I0
tp1025
g6
tp1026
Rp1027
(g9
(g10
g11
Ntp1028
Rp1029
(dp1030
g15
I01
sbI1
(tg16
(S'f8'
p1031
I0
I1
tp1032
Rp1033
(I3
S'<'
p1034
NNNI-1
I-1
I0
tp1035
bI00
S'\x89u<(\xb6\x19\x03\xc0'
p1036
tp1037
bag3
(g4
(I0
tp1038
g6
tp1039
Rp1040
(g9
(g10
g11
Ntp1041
Rp1042
(dp1043
g15
I01
sbI1
(tg16
(S'f8'
p1044
I0
I1
tp1045
Rp1046
(I3
S'<'
p1047
NNNI-1
I-1
I0
tp1048
bI00
S'mQ\x8e\x96\xbfA\xff\xbf'
p1049
tp1050
bag3
(g4
(I0
tp1051
g6
tp1052
Rp1053
(g9
(g10
g11
Ntp1054
Rp1055
(dp1056
g15
I01
sbI1
(tg16
(S'f8'
p1057
I0
I1
tp1058
Rp1059
(I3
S'<'
p1060
NNNI-1
I-1
I0
tp1061
bI00
S'\xa1\xf7\x16\xa2B\xd2\x07\xc0'
p1062
tp1063
bag3
(g4
(I0
tp1064
g6
tp1065
Rp1066
(g9
(g10
g11
Ntp1067
Rp1068
(dp1069
g15
I01
sbI1
(tg16
(S'f8'
p1070
I0
I1
tp1071
Rp1072
(I3
S'<'
p1073
NNNI-1
I-1
I0
tp1074
bI00
S'\xa5\x8c75@\xfc\xeb\xbf'
p1075
tp1076
bag3
(g4
(I0
tp1077
g6
tp1078
Rp1079
(g9
(g10
g11
Ntp1080
Rp1081
(dp1082
g15
I01
sbI1
(tg16
(S'f8'
p1083
I0
I1
tp1084
Rp1085
(I3
S'<'
p1086
NNNI-1
I-1
I0
tp1087
bI00
S'\xe8\xb72\xc9\x07\r\xda\xbf'
p1088
tp1089
bag3
(g4
(I0
tp1090
g6
tp1091
Rp1092
(g9
(g10
g11
Ntp1093
Rp1094
(dp1095
g15
I01
sbI1
(tg16
(S'f8'
p1096
I0
I1
tp1097
Rp1098
(I3
S'<'
p1099
NNNI-1
I-1
I0
tp1100
bI00
S'\xc7\xb4#\xad\xe4\x05\x00\xc0'
p1101
tp1102
bag3
(g4
(I0
tp1103
g6
tp1104
Rp1105
(g9
(g10
g11
Ntp1106
Rp1107
(dp1108
g15
I01
sbI1
(tg16
(S'f8'
p1109
I0
I1
tp1110
Rp1111
(I3
S'<'
p1112
NNNI-1
I-1
I0
tp1113
bI00
S'\x9c\x0c3\x81\x8e\xce\x19\xc0'
p1114
tp1115
bag3
(g4
(I0
tp1116
g6
tp1117
Rp1118
(g9
(g10
g11
Ntp1119
Rp1120
(dp1121
g15
I01
sbI1
(tg16
(S'f8'
p1122
I0
I1
tp1123
Rp1124
(I3
S'<'
p1125
NNNI-1
I-1
I0
tp1126
bI00
S'\x92\xad*\x19\xb9T\xf7\xbf'
p1127
tp1128
bag3
(g4
(I0
tp1129
g6
tp1130
Rp1131
(g9
(g10
g11
Ntp1132
Rp1133
(dp1134
g15
I01
sbI1
(tg16
(S'f8'
p1135
I0
I1
tp1136
Rp1137
(I3
S'<'
p1138
NNNI-1
I-1
I0
tp1139
bI00
S'9\x9c\x9b-\xda\t\xf8\xbf'
p1140
tp1141
bag3
(g4
(I0
tp1142
g6
tp1143
Rp1144
(g9
(g10
g11
Ntp1145
Rp1146
(dp1147
g15
I01
sbI1
(tg16
(S'f8'
p1148
I0
I1
tp1149
Rp1150
(I3
S'<'
p1151
NNNI-1
I-1
I0
tp1152
bI00
S'\xf5\xa9\x90\xf0ys\xf5\xbf'
p1153
tp1154
bag3
(g4
(I0
tp1155
g6
tp1156
Rp1157
(g9
(g10
g11
Ntp1158
Rp1159
(dp1160
g15
I01
sbI1
(tg16
(S'f8'
p1161
I0
I1
tp1162
Rp1163
(I3
S'<'
p1164
NNNI-1
I-1
I0
tp1165
bI00
S'b\xce\xc9\x1e\xdf*\xf5\xbf'
p1166
tp1167
bag3
(g4
(I0
tp1168
g6
tp1169
Rp1170
(g9
(g10
g11
Ntp1171
Rp1172
(dp1173
g15
I01
sbI1
(tg16
(S'f8'
p1174
I0
I1
tp1175
Rp1176
(I3
S'<'
p1177
NNNI-1
I-1
I0
tp1178
bI00
S'\x0f\xc5\x92\x8e\\3\xf5\xbf'
p1179
tp1180
bag3
(g4
(I0
tp1181
g6
tp1182
Rp1183
(g9
(g10
g11
Ntp1184
Rp1185
(dp1186
g15
I01
sbI1
(tg16
(S'f8'
p1187
I0
I1
tp1188
Rp1189
(I3
S'<'
p1190
NNNI-1
I-1
I0
tp1191
bI00
S'c\xbbu\xe8\x94\x14\xd7\xbf'
p1192
tp1193
bag3
(g4
(I0
tp1194
g6
tp1195
Rp1196
(g9
(g10
g11
Ntp1197
Rp1198
(dp1199
g15
I01
sbI1
(tg16
(S'f8'
p1200
I0
I1
tp1201
Rp1202
(I3
S'<'
p1203
NNNI-1
I-1
I0
tp1204
bI00
S'\xf7\x84d\xbd\xc8n\xdd\xbf'
p1205
tp1206
bag3
(g4
(I0
tp1207
g6
tp1208
Rp1209
(g9
(g10
g11
Ntp1210
Rp1211
(dp1212
g15
I01
sbI1
(tg16
(S'f8'
p1213
I0
I1
tp1214
Rp1215
(I3
S'<'
p1216
NNNI-1
I-1
I0
tp1217
bI00
S'5\xe6\x0fh\xe6\xd3\x00\xc0'
p1218
tp1219
basS'zstar2_lum'
p1220
(lp1221
g3
(g4
(I0
tp1222
g6
tp1223
Rp1224
(g13
I1
(tg19
I00
S'o9\x8ao\xff,[?'
p1225
tp1226
bag3
(g4
(I0
tp1227
g6
tp1228
Rp1229
(g28
I1
(tg32
I00
S'\xe8}R\x00\xcd3d?'
p1230
tp1231
bag3
(g4
(I0
tp1232
g6
tp1233
Rp1234
(g41
I1
(tg45
I00
S'\xf0[]\xc6S/)?'
p1235
tp1236
bag3
(g4
(I0
tp1237
g6
tp1238
Rp1239
(g54
I1
(tg58
I00
S'\xef\xd5\x7f\x9b%\xb5\x9d?'
p1240
tp1241
bag3
(g4
(I0
tp1242
g6
tp1243
Rp1244
(g67
I1
(tg71
I00
S'1\xd5\xbc\xf8\x9a$=?'
p1245
tp1246
bag3
(g4
(I0
tp1247
g6
tp1248
Rp1249
(g80
I1
(tg84
I00
S'a[I\x1dX\xe09?'
p1250
tp1251
bag3
(g4
(I0
tp1252
g6
tp1253
Rp1254
(g93
I1
(tg97
I00
S'\xd8\x12\xe5\xba\xe2\xc7}?'
p1255
tp1256
bag3
(g4
(I0
tp1257
g6
tp1258
Rp1259
(g106
I1
(tg110
I00
S'\xaa\xb2\x96\xa2\xac\xfd6?'
p1260
tp1261
bag3
(g4
(I0
tp1262
g6
tp1263
Rp1264
(g119
I1
(tg123
I00
S'\x89\x04\xa0\xba\x0eC<?'
p1265
tp1266
bag3
(g4
(I0
tp1267
g6
tp1268
Rp1269
(g132
I1
(tg136
I00
S'\xbf\xef\x9ag\x17\x881?'
p1270
tp1271
bag3
(g4
(I0
tp1272
g6
tp1273
Rp1274
(g145
I1
(tg149
I00
S'\xb9w\x0f3\xdb\xf3a?'
p1275
tp1276
bag3
(g4
(I0
tp1277
g6
tp1278
Rp1279
(g158
I1
(tg162
I00
S'\x15\xd0\xf08/\x06:?'
p1280
tp1281
bag3
(g4
(I0
tp1282
g6
tp1283
Rp1284
(g171
I1
(tg175
I00
S'\xe4\xf8)\xb9\x07\x18f?'
p1285
tp1286
bag3
(g4
(I0
tp1287
g6
tp1288
Rp1289
(g184
I1
(tg188
I00
S'\xe2\xb3nq\xb6\x95]?'
p1290
tp1291
bag3
(g4
(I0
tp1292
g6
tp1293
Rp1294
(g197
I1
(tg201
I00
S'\xa23\xc8uq\xd2R?'
p1295
tp1296
bag3
(g4
(I0
tp1297
g6
tp1298
Rp1299
(g210
I1
(tg214
I00
S'\xad\xe4i\xca\xe6\x7f\x9c?'
p1300
tp1301
bag3
(g4
(I0
tp1302
g6
tp1303
Rp1304
(g223
I1
(tg227
I00
S';-_\xd4>\x8c8?'
p1305
tp1306
bag3
(g4
(I0
tp1307
g6
tp1308
Rp1309
(g236
I1
(tg240
I00
S'Q\xd7T#\xeb\x015?'
p1310
tp1311
bag3
(g4
(I0
tp1312
g6
tp1313
Rp1314
(g249
I1
(tg253
I00
S'\xe9\xf1Ao\x83x6?'
p1315
tp1316
bag3
(g4
(I0
tp1317
g6
tp1318
Rp1319
(g262
I1
(tg266
I00
S'HO\xab\xca\x88/5?'
p1320
tp1321
bag3
(g4
(I0
tp1322
g6
tp1323
Rp1324
(g275
I1
(tg279
I00
S'\xe1\xcb\xf4\xd6\x15E\x9c?'
p1325
tp1326
bag3
(g4
(I0
tp1327
g6
tp1328
Rp1329
(g288
I1
(tg292
I00
S'oN\x99t\x8d\xa08?'
p1330
tp1331
bag3
(g4
(I0
tp1332
g6
tp1333
Rp1334
(g301
I1
(tg305
I00
S')\x1b{|\x94\x16\x8b?'
p1335
tp1336
bag3
(g4
(I0
tp1337
g6
tp1338
Rp1339
(g314
I1
(tg318
I00
S'\n+\xe7\xf0\xdbe8?'
p1340
tp1341
bag3
(g4
(I0
tp1342
g6
tp1343
Rp1344
(g327
I1
(tg331
I00
S'\xe1\xdff\x13\x02/e?'
p1345
tp1346
bag3
(g4
(I0
tp1347
g6
tp1348
Rp1349
(g340
I1
(tg344
I00
S'o\xde\xbf 7W>?'
p1350
tp1351
bag3
(g4
(I0
tp1352
g6
tp1353
Rp1354
(g353
I1
(tg357
I00
S'Iy\xf2\x1cEV;?'
p1355
tp1356
bag3
(g4
(I0
tp1357
g6
tp1358
Rp1359
(g366
I1
(tg370
I00
S'C\xf8\xf3,a\xdc6?'
p1360
tp1361
bag3
(g4
(I0
tp1362
g6
tp1363
Rp1364
(g379
I1
(tg383
I00
S'\x81}\xaa\xd1\xdco\x89?'
p1365
tp1366
bag3
(g4
(I0
tp1367
g6
tp1368
Rp1369
(g392
I1
(tg396
I00
S'\xa6\xba\x8a\xac\xcaC~?'
p1370
tp1371
bag3
(g4
(I0
tp1372
g6
tp1373
Rp1374
(g405
I1
(tg409
I00
S'\x86\x84\x85u^E\x89?'
p1375
tp1376
bag3
(g4
(I0
tp1377
g6
tp1378
Rp1379
(g418
I1
(tg422
I00
S'N\xf6\xdf\xbf\xddtu?'
p1380
tp1381
bag3
(g4
(I0
tp1382
g6
tp1383
Rp1384
(g431
I1
(tg435
I00
S'3\x9e\xde\x9a\xb7L\x93?'
p1385
tp1386
bag3
(g4
(I0
tp1387
g6
tp1388
Rp1389
(g444
I1
(tg448
I00
S'\x85\xfb"\x7f\x1cZN?'
p1390
tp1391
bag3
(g4
(I0
tp1392
g6
tp1393
Rp1394
(g457
I1
(tg461
I00
S'\xcf\xfd\xc1\xd5\xb3\xa95?'
p1395
tp1396
bag3
(g4
(I0
tp1397
g6
tp1398
Rp1399
(g470
I1
(tg474
I00
S'\xf3+\x8d\xbf\x82\xa9\x9c?'
p1400
tp1401
bag3
(g4
(I0
tp1402
g6
tp1403
Rp1404
(g483
I1
(tg487
I00
S'\xc3\x86\xf2%\x07\tF?'
p1405
tp1406
bag3
(g4
(I0
tp1407
g6
tp1408
Rp1409
(g496
I1
(tg500
I00
S'\xba0\x95\xa5\xa1\xdd@?'
p1410
tp1411
bag3
(g4
(I0
tp1412
g6
tp1413
Rp1414
(g509
I1
(tg513
I00
S'\xbev\xf3\xf3\xcb\xedL?'
p1415
tp1416
bag3
(g4
(I0
tp1417
g6
tp1418
Rp1419
(g522
I1
(tg526
I00
S'\xb6\xbbg-\x18T\x8c?'
p1420
tp1421
bag3
(g4
(I0
tp1422
g6
tp1423
Rp1424
(g535
I1
(tg539
I00
S'B)B\t7\xeaH?'
p1425
tp1426
bag3
(g4
(I0
tp1427
g6
tp1428
Rp1429
(g548
I1
(tg552
I00
S'\x81%Zs\tBy?'
p1430
tp1431
bag3
(g4
(I0
tp1432
g6
tp1433
Rp1434
(g561
I1
(tg565
I00
S'\xc5\x00$\x88\xf90X?'
p1435
tp1436
bag3
(g4
(I0
tp1437
g6
tp1438
Rp1439
(g574
I1
(tg578
I00
S'f\xcf\xaf\x13\x90\xf7A?'
p1440
tp1441
bag3
(g4
(I0
tp1442
g6
tp1443
Rp1444
(g587
I1
(tg591
I00
S'J\xd80\xd5\xa5@v?'
p1445
tp1446
bag3
(g4
(I0
tp1447
g6
tp1448
Rp1449
(g600
I1
(tg604
I00
S'\xd7\xb8z\xa1\xc2\xceo?'
p1450
tp1451
bag3
(g4
(I0
tp1452
g6
tp1453
Rp1454
(g613
I1
(tg617
I00
S'\x89\xdf\x84\x8e\xe4\x7fu?'
p1455
tp1456
bag3
(g4
(I0
tp1457
g6
tp1458
Rp1459
(g626
I1
(tg630
I00
S'*e\x86\xcd\x9cl\x97?'
p1460
tp1461
bag3
(g4
(I0
tp1462
g6
tp1463
Rp1464
(g639
I1
(tg643
I00
S'\xc2;\x81\x04\x0c\xb5F?'
p1465
tp1466
bag3
(g4
(I0
tp1467
g6
tp1468
Rp1469
(g652
I1
(tg656
I00
S"\xf4'qt9\xd6\x94?"
p1470
tp1471
bag3
(g4
(I0
tp1472
g6
tp1473
Rp1474
(g665
I1
(tg669
I00
S'\x06\xe6\xf7)[_=?'
p1475
tp1476
bag3
(g4
(I0
tp1477
g6
tp1478
Rp1479
(g678
I1
(tg682
I00
S'\x9d\xc9\xeaH\xf9s=?'
p1480
tp1481
bag3
(g4
(I0
tp1482
g6
tp1483
Rp1484
(g691
I1
(tg695
I00
S'n5\xaf\x92\xf7\xf3\x1b?'
p1485
tp1486
bag3
(g4
(I0
tp1487
g6
tp1488
Rp1489
(g704
I1
(tg708
I00
S'\xdd\x9eP\x82\x98\xaeH?'
p1490
tp1491
bag3
(g4
(I0
tp1492
g6
tp1493
Rp1494
(g717
I1
(tg721
I00
S'\xc9\xb2\x00\x8bK|E?'
p1495
tp1496
bag3
(g4
(I0
tp1497
g6
tp1498
Rp1499
(g730
I1
(tg734
I00
S'L\xa5\x13-\xca\xces?'
p1500
tp1501
bag3
(g4
(I0
tp1502
g6
tp1503
Rp1504
(g743
I1
(tg747
I00
S'\xc7]\xc4\x15\xe6[S?'
p1505
tp1506
bag3
(g4
(I0
tp1507
g6
tp1508
Rp1509
(g756
I1
(tg760
I00
S'\x93naf\x8a\xce2?'
p1510
tp1511
bag3
(g4
(I0
tp1512
g6
tp1513
Rp1514
(g769
I1
(tg773
I00
S'C\x0egV\x0b\x86P?'
p1515
tp1516
bag3
(g4
(I0
tp1517
g6
tp1518
Rp1519
(g782
I1
(tg786
I00
S'\x82\xfd\xaf-\xb4\x8c\x92?'
p1520
tp1521
bag3
(g4
(I0
tp1522
g6
tp1523
Rp1524
(g795
I1
(tg799
I00
S'\x9aq\xcdKQ\xd7O?'
p1525
tp1526
bag3
(g4
(I0
tp1527
g6
tp1528
Rp1529
(g808
I1
(tg812
I00
S'H\xef\x9ce\x80\xb0\x1a?'
p1530
tp1531
bag3
(g4
(I0
tp1532
g6
tp1533
Rp1534
(g821
I1
(tg825
I00
S'"9\xf9\xc6\x7f\x03\x97?'
p1535
tp1536
bag3
(g4
(I0
tp1537
g6
tp1538
Rp1539
(g834
I1
(tg838
I00
S'\x98\x1c\x99\xfbre|?'
p1540
tp1541
bag3
(g4
(I0
tp1542
g6
tp1543
Rp1544
(g847
I1
(tg851
I00
S'Z:\x93\xba\xca88?'
p1545
tp1546
bag3
(g4
(I0
tp1547
g6
tp1548
Rp1549
(g860
I1
(tg864
I00
S'\xfd\xfb\x0f\xf5U\xe0\x96?'
p1550
tp1551
bag3
(g4
(I0
tp1552
g6
tp1553
Rp1554
(g873
I1
(tg877
I00
S'\xbb\x83\xd6\x1am\\t?'
p1555
tp1556
bag3
(g4
(I0
tp1557
g6
tp1558
Rp1559
(g886
I1
(tg890
I00
S'\xe0\xdea\x9b8,3?'
p1560
tp1561
bag3
(g4
(I0
tp1562
g6
tp1563
Rp1564
(g899
I1
(tg903
I00
S'\xa2 +\xbb\xd5+{?'
p1565
tp1566
bag3
(g4
(I0
tp1567
g6
tp1568
Rp1569
(g912
I1
(tg916
I00
S'\xd0\xceyQL+\x96?'
p1570
tp1571
bag3
(g4
(I0
tp1572
g6
tp1573
Rp1574
(g925
I1
(tg929
I00
S'\xc7\x98xwg=\x9b?'
p1575
tp1576
bag3
(g4
(I0
tp1577
g6
tp1578
Rp1579
(g938
I1
(tg942
I00
S'D\xd0\x96\xc4\x7f\xee\x9b?'
p1580
tp1581
bag3
(g4
(I0
tp1582
g6
tp1583
Rp1584
(g951
I1
(tg955
I00
S'@s\xdd\x14P\x82\x9b?'
p1585
tp1586
bag3
(g4
(I0
tp1587
g6
tp1588
Rp1589
(g964
I1
(tg968
I00
S'\x8b\xe3\x1b\xac\x06\x1d\x99?'
p1590
tp1591
bag3
(g4
(I0
tp1592
g6
tp1593
Rp1594
(g977
I1
(tg981
I00
S'\xc65\x88a\x17\xdf[?'
p1595
tp1596
bag3
(g4
(I0
tp1597
g6
tp1598
Rp1599
(g990
I1
(tg994
I00
S'6\xa1\xd9Y\x8d\xf1\x1a?'
p1600
tp1601
bag3
(g4
(I0
tp1602
g6
tp1603
Rp1604
(g1003
I1
(tg1007
I00
S'\xb1\x1c\xd5.\x8e\x91P?'
p1605
tp1606
bag3
(g4
(I0
tp1607
g6
tp1608
Rp1609
(g1016
I1
(tg1020
I00
S'Zf\xa2\xb6x\xd7\x1a?'
p1610
tp1611
bag3
(g4
(I0
tp1612
g6
tp1613
Rp1614
(g1029
I1
(tg1033
I00
S'ed\x004\x00\x13*?'
p1615
tp1616
bag3
(g4
(I0
tp1617
g6
tp1618
Rp1619
(g1042
I1
(tg1046
I00
S'\xb8\x1b\xef\xc9lK5?'
p1620
tp1621
bag3
(g4
(I0
tp1622
g6
tp1623
Rp1624
(g1055
I1
(tg1059
I00
S'\xf4\xf4\xdbn\x00\xa0\x1b?'
p1625
tp1626
bag3
(g4
(I0
tp1627
g6
tp1628
Rp1629
(g1068
I1
(tg1072
I00
S'\x18\xfe\xf0\xa4\xe2\xd5v?'
p1630
tp1631
bag3
(g4
(I0
tp1632
g6
tp1633
Rp1634
(g1081
I1
(tg1085
I00
S'd\xf5e\xa3\xdf\xce\x93?'
p1635
tp1636
bag3
(g4
(I0
tp1637
g6
tp1638
Rp1639
(g1094
I1
(tg1098
I00
S'\x1e$\xc1:\x13h5?'
p1640
tp1641
bag3
(g4
(I0
tp1642
g6
tp1643
Rp1644
(g1107
I1
(tg1111
I00
S')C\x1c\xeb\xe26\x1a?'
p1645
tp1646
bag3
(g4
(I0
tp1647
g6
tp1648
Rp1649
(g1120
I1
(tg1124
I00
S')\rC0\xf1\x02O?'
p1650
tp1651
bag3
(g4
(I0
tp1652
g6
tp1653
Rp1654
(g1133
I1
(tg1137
I00
S's\xb8.w\xfd\x08M?'
p1655
tp1656
bag3
(g4
(I0
tp1657
g6
tp1658
Rp1659
(g1146
I1
(tg1150
I00
S'\xb1(\xee\x11\x89\x95\\?'
p1660
tp1661
bag3
(g4
(I0
tp1662
g6
tp1663
Rp1664
(g1159
I1
(tg1163
I00
S'm\xc0V\xcc\x97\xafW?'
p1665
tp1666
bag3
(g4
(I0
tp1667
g6
tp1668
Rp1669
(g1172
I1
(tg1176
I00
S'\xf8\xa8\xe7O\xd5\x80Z?'
p1670
tp1671
bag3
(g4
(I0
tp1672
g6
tp1673
Rp1674
(g1185
I1
(tg1189
I00
S"\xc6\xfdI(\x98'\x93?"
p1675
tp1676
bag3
(g4
(I0
tp1677
g6
tp1678
Rp1679
(g1198
I1
(tg1202
I00
S'\x06\xbc\x1d\xc9\xcd\xf3\x91?'
p1680
tp1681
bag3
(g4
(I0
tp1682
g6
tp1683
Rp1684
(g1211
I1
(tg1215
I00
S'\xb6E\x8f09\xe74?'
p1685
tp1686
basS'zstar_toto'
p1687
(lp1688
g3
(g4
(I0
tp1689
g6
tp1690
Rp1691
(g13
I1
(tg19
I00
S'\x97\x90.\x0b`\xd7R?'
p1692
tp1693
bag3
(g4
(I0
tp1694
g6
tp1695
Rp1696
(g28
I1
(tg32
I00
S'\xfd\x93l+\xddEb?'
p1697
tp1698
bag3
(g4
(I0
tp1699
g6
tp1700
Rp1701
(g41
I1
(tg45
I00
S"\x9b\xa3\x16\xeb\x13\x86'?"
p1702
tp1703
bag3
(g4
(I0
tp1704
g6
tp1705
Rp1706
(g54
I1
(tg58
I00
S'y\x14\xb6l_>\x99?'
p1707
tp1708
bag3
(g4
(I0
tp1709
g6
tp1710
Rp1711
(g67
I1
(tg71
I00
S'\xa2t\xe9RJ13?'
p1712
tp1713
bag3
(g4
(I0
tp1714
g6
tp1715
Rp1716
(g80
I1
(tg84
I00
S'\xcaq\x99,\x02\xa4+?'
p1717
tp1718
bag3
(g4
(I0
tp1719
g6
tp1720
Rp1721
(g93
I1
(tg97
I00
S'Z\x86\xbcze\xe0t?'
p1722
tp1723
bag3
(g4
(I0
tp1724
g6
tp1725
Rp1726
(g106
I1
(tg110
I00
S'eG\x13\xdf\x05O4?'
p1727
tp1728
bag3
(g4
(I0
tp1729
g6
tp1730
Rp1731
(g119
I1
(tg123
I00
S'\xadeQ\xee\xf0\xf56?'
p1732
tp1733
bag3
(g4
(I0
tp1734
g6
tp1735
Rp1736
(g132
I1
(tg136
I00
S'C\xf8\x02\xd1d\xeb0?'
p1737
tp1738
bag3
(g4
(I0
tp1739
g6
tp1740
Rp1741
(g145
I1
(tg149
I00
S'\xccSR\x9a\xd2\xf0X?'
p1742
tp1743
bag3
(g4
(I0
tp1744
g6
tp1745
Rp1746
(g158
I1
(tg162
I00
S'\x0f\x06\x02-q&3?'
p1747
tp1748
bag3
(g4
(I0
tp1749
g6
tp1750
Rp1751
(g171
I1
(tg175
I00
S'\xe6\x8d]\xddw\xa9_?'
p1752
tp1753
bag3
(g4
(I0
tp1754
g6
tp1755
Rp1756
(g184
I1
(tg188
I00
S'\x98C\xc5\xd2_\x9bX?'
p1757
tp1758
bag3
(g4
(I0
tp1759
g6
tp1760
Rp1761
(g197
I1
(tg201
I00
S'\xa1~\xa0;\xfc\x85H?'
p1762
tp1763
bag3
(g4
(I0
tp1764
g6
tp1765
Rp1766
(g210
I1
(tg214
I00
S'F!\xb9\xcfY\x9c\x96?'
p1767
tp1768
bag3
(g4
(I0
tp1769
g6
tp1770
Rp1771
(g223
I1
(tg227
I00
S'\x8cU\xb2\x0f\xc174?'
p1772
tp1773
bag3
(g4
(I0
tp1774
g6
tp1775
Rp1776
(g236
I1
(tg240
I00
S'\x8b\x81$\xfb\xa1\xaa1?'
p1777
tp1778
bag3
(g4
(I0
tp1779
g6
tp1780
Rp1781
(g249
I1
(tg253
I00
S'\x01p W\xfcQ3?'
p1782
tp1783
bag3
(g4
(I0
tp1784
g6
tp1785
Rp1786
(g262
I1
(tg266
I00
S'N\xf2\x85\xd2\x12y2?'
p1787
tp1788
bag3
(g4
(I0
tp1789
g6
tp1790
Rp1791
(g275
I1
(tg279
I00
S'\xd0\xaf*"\xcb\x0c\x9a?'
p1792
tp1793
bag3
(g4
(I0
tp1794
g6
tp1795
Rp1796
(g288
I1
(tg292
I00
S'q\xf1V\xf54\xea3?'
p1797
tp1798
bag3
(g4
(I0
tp1799
g6
tp1800
Rp1801
(g301
I1
(tg305
I00
S'Uc\x10\x1c\x9e\x00\x80?'
p1802
tp1803
bag3
(g4
(I0
tp1804
g6
tp1805
Rp1806
(g314
I1
(tg318
I00
S'\x02\x0f\x0f\xf4\x11\x922?'
p1807
tp1808
bag3
(g4
(I0
tp1809
g6
tp1810
Rp1811
(g327
I1
(tg331
I00
S'\xcd\xecdbSb_?'
p1812
tp1813
bag3
(g4
(I0
tp1814
g6
tp1815
Rp1816
(g340
I1
(tg344
I00
S'\xf7hkB\xa4m6?'
p1817
tp1818
bag3
(g4
(I0
tp1819
g6
tp1820
Rp1821
(g353
I1
(tg357
I00
S' \xb6\xfe\xad\x99\xa86?'
p1822
tp1823
bag3
(g4
(I0
tp1824
g6
tp1825
Rp1826
(g366
I1
(tg370
I00
S'\xe2\xc6\xe4\xa9\xc4\x801?'
p1827
tp1828
bag3
(g4
(I0
tp1829
g6
tp1830
Rp1831
(g379
I1
(tg383
I00
S'\x82 \x1db\xef\xc7|?'
p1832
tp1833
bag3
(g4
(I0
tp1834
g6
tp1835
Rp1836
(g392
I1
(tg396
I00
S'F\xa1\xfd\xa5m\xf7s?'
p1837
tp1838
bag3
(g4
(I0
tp1839
g6
tp1840
Rp1841
(g405
I1
(tg409
I00
S'\xda\xb0>\x1b\xfd9\x81?'
p1842
tp1843
bag3
(g4
(I0
tp1844
g6
tp1845
Rp1846
(g418
I1
(tg422
I00
S'\xd8\x06\xaa\x1eA\xefk?'
p1847
tp1848
bag3
(g4
(I0
tp1849
g6
tp1850
Rp1851
(g431
I1
(tg435
I00
S'\xdbxo\xed\xcbJ\x90?'
p1852
tp1853
bag3
(g4
(I0
tp1854
g6
tp1855
Rp1856
(g444
I1
(tg448
I00
S'T\x08\\\xc6F\xc1C?'
p1857
tp1858
bag3
(g4
(I0
tp1859
g6
tp1860
Rp1861
(g457
I1
(tg461
I00
S'\x89\x89\x19me\x8a3?'
p1862
tp1863
bag3
(g4
(I0
tp1864
g6
tp1865
Rp1866
(g470
I1
(tg474
I00
S',\xb5\xf9\x82\xc9\n\x98?'
p1867
tp1868
bag3
(g4
(I0
tp1869
g6
tp1870
Rp1871
(g483
I1
(tg487
I00
S'\xc9\x04a\xf1\x9f\xb9@?'
p1872
tp1873
bag3
(g4
(I0
tp1874
g6
tp1875
Rp1876
(g496
I1
(tg500
I00
S'bN#\x94\xc2\xd6;?'
p1877
tp1878
bag3
(g4
(I0
tp1879
g6
tp1880
Rp1881
(g509
I1
(tg513
I00
S'k\xfcz\x14\xe5\xb7C?'
p1882
tp1883
bag3
(g4
(I0
tp1884
g6
tp1885
Rp1886
(g522
I1
(tg526
I00
S'=\x9d\xd4\x01\xab\xc5\x82?'
p1887
tp1888
bag3
(g4
(I0
tp1889
g6
tp1890
Rp1891
(g535
I1
(tg539
I00
S'\x12\x159\x02\xce\x90@?'
p1892
tp1893
bag3
(g4
(I0
tp1894
g6
tp1895
Rp1896
(g548
I1
(tg552
I00
S';\xd9,\xcdL\x1bp?'
p1897
tp1898
bag3
(g4
(I0
tp1899
g6
tp1900
Rp1901
(g561
I1
(tg565
I00
S'Fcc\x01\x82@R?'
p1902
tp1903
bag3
(g4
(I0
tp1904
g6
tp1905
Rp1906
(g574
I1
(tg578
I00
S'\x86\x1a`\xba\xf2\xa4<?'
p1907
tp1908
bag3
(g4
(I0
tp1909
g6
tp1910
Rp1911
(g587
I1
(tg591
I00
S'\x84_\x93*\xe4\x0bq?'
p1912
tp1913
bag3
(g4
(I0
tp1914
g6
tp1915
Rp1916
(g600
I1
(tg604
I00
S'\xe6\x16:D#\xd4e?'
p1917
tp1918
bag3
(g4
(I0
tp1919
g6
tp1920
Rp1921
(g613
I1
(tg617
I00
S'\xa8\xcf\xc6=\xb8Zn?'
p1922
tp1923
bag3
(g4
(I0
tp1924
g6
tp1925
Rp1926
(g626
I1
(tg630
I00
S'1\x18\xbb\xf0t2\x95?'
p1927
tp1928
bag3
(g4
(I0
tp1929
g6
tp1930
Rp1931
(g639
I1
(tg643
I00
S'\x08\xfav\x9c#oA?'
p1932
tp1933
bag3
(g4
(I0
tp1934
g6
tp1935
Rp1936
(g652
I1
(tg656
I00
S'\xa4\x91\x06\xc9_"\x89?'
p1937
tp1938
bag3
(g4
(I0
tp1939
g6
tp1940
Rp1941
(g665
I1
(tg669
I00
S'\xe7\xd4&\xf4\xcd\xf37?'
p1942
tp1943
bag3
(g4
(I0
tp1944
g6
tp1945
Rp1946
(g678
I1
(tg682
I00
S'\x9624t|\x078?'
p1947
tp1948
bag3
(g4
(I0
tp1949
g6
tp1950
Rp1951
(g691
I1
(tg695
I00
S':\xf3/]\xc3d\x1c?'
p1952
tp1953
bag3
(g4
(I0
tp1954
g6
tp1955
Rp1956
(g704
I1
(tg708
I00
S'\x84\x11E\x17\xee\xb0A?'
p1957
tp1958
bag3
(g4
(I0
tp1959
g6
tp1960
Rp1961
(g717
I1
(tg721
I00
S'p(\x96\x00E%C?'
p1962
tp1963
bag3
(g4
(I0
tp1964
g6
tp1965
Rp1966
(g730
I1
(tg734
I00
S'h\xe6\x03\x7f\x95Ao?'
p1967
tp1968
bag3
(g4
(I0
tp1969
g6
tp1970
Rp1971
(g743
I1
(tg747
I00
S'f_\xca=\x15\xe8F?'
p1972
tp1973
bag3
(g4
(I0
tp1974
g6
tp1975
Rp1976
(g756
I1
(tg760
I00
S'Vk\xc4\x9c\x85d-?'
p1977
tp1978
bag3
(g4
(I0
tp1979
g6
tp1980
Rp1981
(g769
I1
(tg773
I00
S'n\xffYj\x13\xdaG?'
p1982
tp1983
bag3
(g4
(I0
tp1984
g6
tp1985
Rp1986
(g782
I1
(tg786
I00
S'\xf2\xb0\x9e\x1aJ\x89\x8b?'
p1987
tp1988
bag3
(g4
(I0
tp1989
g6
tp1990
Rp1991
(g795
I1
(tg799
I00
S'\xc8\x84M5o\x99E?'
p1992
tp1993
bag3
(g4
(I0
tp1994
g6
tp1995
Rp1996
(g808
I1
(tg812
I00
S'V\x92K\x9b/\xb2\x1a?'
p1997
tp1998
bag3
(g4
(I0
tp1999
g6
tp2000
Rp2001
(g821
I1
(tg825
I00
S'\xa1ZC\x91!|\x8c?'
p2002
tp2003
bag3
(g4
(I0
tp2004
g6
tp2005
Rp2006
(g834
I1
(tg838
I00
S'\x82\x97C\x08\xeb\xf7r?'
p2007
tp2008
bag3
(g4
(I0
tp2009
g6
tp2010
Rp2011
(g847
I1
(tg851
I00
S'\xd6\xe2\x00\xc2V\xb92?'
p2012
tp2013
bag3
(g4
(I0
tp2014
g6
tp2015
Rp2016
(g860
I1
(tg864
I00
S'JR\xd2\xa0\xb9\x0e\x92?'
p2017
tp2018
bag3
(g4
(I0
tp2019
g6
tp2020
Rp2021
(g873
I1
(tg877
I00
S'\x9b\xe5\xb2]Q\xfbj?'
p2022
tp2023
bag3
(g4
(I0
tp2024
g6
tp2025
Rp2026
(g886
I1
(tg890
I00
S'\xb8\xd59\x18\x7f\x86.?'
p2027
tp2028
bag3
(g4
(I0
tp2029
g6
tp2030
Rp2031
(g899
I1
(tg903
I00
S'\x10\x0b\xb5\x9e\x183s?'
p2032
tp2033
bag3
(g4
(I0
tp2034
g6
tp2035
Rp2036
(g912
I1
(tg916
I00
S'\x18\x92\xba\xb1*\x0c\x91?'
p2037
tp2038
bag3
(g4
(I0
tp2039
g6
tp2040
Rp2041
(g925
I1
(tg929
I00
S'\x92)\xb2p\x83\x90\x95?'
p2042
tp2043
bag3
(g4
(I0
tp2044
g6
tp2045
Rp2046
(g938
I1
(tg942
I00
S'o\xe0\x87\xf1:g\x92?'
p2047
tp2048
bag3
(g4
(I0
tp2049
g6
tp2050
Rp2051
(g951
I1
(tg955
I00
S'\x1dN&\x85N\x9a\x98?'
p2052
tp2053
bag3
(g4
(I0
tp2054
g6
tp2055
Rp2056
(g964
I1
(tg968
I00
S'\xee\xa3b\xcd:J\x95?'
p2057
tp2058
bag3
(g4
(I0
tp2059
g6
tp2060
Rp2061
(g977
I1
(tg981
I00
S'-3\xab\x9c\x89\xe6T?'
p2062
tp2063
bag3
(g4
(I0
tp2064
g6
tp2065
Rp2066
(g990
I1
(tg994
I00
S'\xf6\xd6\xb9\xf3\x9d\xcc\x1c?'
p2067
tp2068
bag3
(g4
(I0
tp2069
g6
tp2070
Rp2071
(g1003
I1
(tg1007
I00
S'vN\x8f\xf9>\xeeI?'
p2072
tp2073
bag3
(g4
(I0
tp2074
g6
tp2075
Rp2076
(g1016
I1
(tg1020
I00
S'\x98\x8d\xcc\x14d\x16\x1b?'
p2077
tp2078
bag3
(g4
(I0
tp2079
g6
tp2080
Rp2081
(g1029
I1
(tg1033
I00
S'\x9d2\x13\xc5\x10t"?'
p2082
tp2083
bag3
(g4
(I0
tp2084
g6
tp2085
Rp2086
(g1042
I1
(tg1046
I00
S'\x9d\xbf\xa0A\xb4\xb4/?'
p2087
tp2088
bag3
(g4
(I0
tp2089
g6
tp2090
Rp2091
(g1055
I1
(tg1059
I00
S'\xb9\xff\xea\x8cH\x0f\x1c?'
p2092
tp2093
bag3
(g4
(I0
tp2094
g6
tp2095
Rp2096
(g1068
I1
(tg1072
I00
S'J\xc2rl\x0c.r?'
p2097
tp2098
bag3
(g4
(I0
tp2099
g6
tp2100
Rp2101
(g1081
I1
(tg1085
I00
S'I\xb1\xe5b\x14`\x88?'
p2102
tp2103
bag3
(g4
(I0
tp2104
g6
tp2105
Rp2106
(g1094
I1
(tg1098
I00
S'jg\x8a\x06@\xc9,?'
p2107
tp2108
bag3
(g4
(I0
tp2109
g6
tp2110
Rp2111
(g1107
I1
(tg1111
I00
S'/C\x1c\xeb\xe26\x1a?'
p2112
tp2113
bag3
(g4
(I0
tp2114
g6
tp2115
Rp2116
(g1120
I1
(tg1124
I00
S'\t\x81\xec\xee\x86bF?'
p2117
tp2118
bag3
(g4
(I0
tp2119
g6
tp2120
Rp2121
(g1133
I1
(tg1137
I00
S'\xd5\xec[N\x08\x05F?'
p2122
tp2123
bag3
(g4
(I0
tp2124
g6
tp2125
Rp2126
(g1146
I1
(tg1150
I00
S'`\x04w\x8ad\x0bU?'
p2127
tp2128
bag3
(g4
(I0
tp2129
g6
tp2130
Rp2131
(g1159
I1
(tg1163
I00
S'\x83\x08\xfb\x00{fQ?'
p2132
tp2133
bag3
(g4
(I0
tp2134
g6
tp2135
Rp2136
(g1172
I1
(tg1176
I00
S'\x0bH \xd2ngR?'
p2137
tp2138
bag3
(g4
(I0
tp2139
g6
tp2140
Rp2141
(g1185
I1
(tg1189
I00
S' \xec\x83\xb2\xad-\x87?'
p2142
tp2143
bag3
(g4
(I0
tp2144
g6
tp2145
Rp2146
(g1198
I1
(tg1202
I00
S';\x05\xd0\x89\xf5\x96\x8d?'
p2147
tp2148
bag3
(g4
(I0
tp2149
g6
tp2150
Rp2151
(g1211
I1
(tg1215
I00
S']2x\xda\xee\xd0)?'
p2152
tp2153
basS'oh_gas5'
p2154
(lp2155
g3
(g4
(I0
tp2156
g6
tp2157
Rp2158
(g13
I1
(tg19
I00
S'.t\xc4\xd6\x85\x1f\x1f@'
p2159
tp2160
bag3
(g4
(I0
tp2161
g6
tp2162
Rp2163
(g28
I1
(tg32
I00
S'\xec\xb6DAZ\x15 @'
p2164
tp2165
bag3
(g4
(I0
tp2166
g6
tp2167
Rp2168
(g41
I1
(tg45
I00
S'FP\x18\xfb\xfd\xd6\x1a@'
p2169
tp2170
bag3
(g4
(I0
tp2171
g6
tp2172
Rp2173
(g54
I1
(tg58
I00
S'\xcc\x8b}\xcc\x97\xe2 @'
p2174
tp2175
bag3
(g4
(I0
tp2176
g6
tp2177
Rp2178
(g67
I1
(tg71
I00
S'\xcbW\xffv(X\x1b@'
p2179
tp2180
bag3
(g4
(I0
tp2181
g6
tp2182
Rp2183
(g80
I1
(tg84
I00
S'\x8eEf\xdeov\x1a@'
p2184
tp2185
bag3
(g4
(I0
tp2186
g6
tp2187
Rp2188
(g93
I1
(tg97
I00
S'\x08\x05\xc4\xb3\xda\xff @'
p2189
tp2190
bag3
(g4
(I0
tp2191
g6
tp2192
Rp2193
(g106
I1
(tg110
I00
S'\xd9\xf3\taX}\x1a@'
p2194
tp2195
bag3
(g4
(I0
tp2196
g6
tp2197
Rp2198
(g119
I1
(tg123
I00
S'H\xf3\x06\xf3:\xc1\x1c@'
p2199
tp2200
bag3
(g4
(I0
tp2201
g6
tp2202
Rp2203
(g132
I1
(tg136
I00
S'B8\x961@\x02\x1b@'
p2204
tp2205
bag3
(g4
(I0
tp2206
g6
tp2207
Rp2208
(g145
I1
(tg149
I00
S'\xb8\xa3\x83\xfa\xf5>\x1f@'
p2209
tp2210
bag3
(g4
(I0
tp2211
g6
tp2212
Rp2213
(g158
I1
(tg162
I00
S'\xaa\xdb\x88\xeefW\x1c@'
p2214
tp2215
bag3
(g4
(I0
tp2216
g6
tp2217
Rp2218
(g171
I1
(tg175
I00
S'\x9c\x8f\xfd\xdb\xd5\x18 @'
p2219
tp2220
bag3
(g4
(I0
tp2221
g6
tp2222
Rp2223
(g184
I1
(tg188
I00
S"'7,\x8fvw\x1e@"
p2224
tp2225
bag3
(g4
(I0
tp2226
g6
tp2227
Rp2228
(g197
I1
(tg201
I00
S'\x84\xcb\x93#\x8b\xf4\x1d@'
p2229
tp2230
bag3
(g4
(I0
tp2231
g6
tp2232
Rp2233
(g210
I1
(tg214
I00
S'=\xfa\x1d\x80\xa1e!@'
p2234
tp2235
bag3
(g4
(I0
tp2236
g6
tp2237
Rp2238
(g223
I1
(tg227
I00
S'\xba\xa0\x80\xb1\xe5\xa0\x1c@'
p2239
tp2240
bag3
(g4
(I0
tp2241
g6
tp2242
Rp2243
(g236
I1
(tg240
I00
S'\x81\x17]\xe8\x99\x87\x1b@'
p2244
tp2245
bag3
(g4
(I0
tp2246
g6
tp2247
Rp2248
(g249
I1
(tg253
I00
S'Y\x0f\xfe\x98\x9d\x91\x1b@'
p2249
tp2250
bag3
(g4
(I0
tp2251
g6
tp2252
Rp2253
(g262
I1
(tg266
I00
S'%\xf5\x11\x0e\x87\x88\x1a@'
p2254
tp2255
bag3
(g4
(I0
tp2256
g6
tp2257
Rp2258
(g275
I1
(tg279
I00
S'\xcd\xb0\xa4\xdb\x93&!@'
p2259
tp2260
bag3
(g4
(I0
tp2261
g6
tp2262
Rp2263
(g288
I1
(tg292
I00
S'\x03\x90\x8e\xe8\xca\xab\x1b@'
p2264
tp2265
bag3
(g4
(I0
tp2266
g6
tp2267
Rp2268
(g301
I1
(tg305
I00
S'\x9a\xf7D\xf8\x923!@'
p2269
tp2270
bag3
(g4
(I0
tp2271
g6
tp2272
Rp2273
(g314
I1
(tg318
I00
S'\x0e\xbc\x18\xdb\xa4\xcc\x1b@'
p2274
tp2275
bag3
(g4
(I0
tp2276
g6
tp2277
Rp2278
(g327
I1
(tg331
I00
S'T\xacx~\xe8\xca\x1f@'
p2279
tp2280
bag3
(g4
(I0
tp2281
g6
tp2282
Rp2283
(g340
I1
(tg344
I00
S'd\xff\xea3\xc8\x1a\x1c@'
p2284
tp2285
bag3
(g4
(I0
tp2286
g6
tp2287
Rp2288
(g353
I1
(tg357
I00
S'E3\x90\xc6\x89B\x1c@'
p2289
tp2290
bag3
(g4
(I0
tp2291
g6
tp2292
Rp2293
(g366
I1
(tg370
I00
S'\xf2\xab;NKw\x1b@'
p2294
tp2295
bag3
(g4
(I0
tp2296
g6
tp2297
Rp2298
(g379
I1
(tg383
I00
S'|*w\xee\xa4-!@'
p2299
tp2300
bag3
(g4
(I0
tp2301
g6
tp2302
Rp2303
(g392
I1
(tg396
I00
S',\xb9\xacC\xbe\xd7 @'
p2304
tp2305
bag3
(g4
(I0
tp2306
g6
tp2307
Rp2308
(g405
I1
(tg409
I00
S'B\xa0$\x95\xf5}!@'
p2309
tp2310
bag3
(g4
(I0
tp2311
g6
tp2312
Rp2313
(g418
I1
(tg422
I00
S'\xae\x14\x9eP\xbe\x82 @'
p2314
tp2315
bag3
(g4
(I0
tp2316
g6
tp2317
Rp2318
(g431
I1
(tg435
I00
S'\x03Zp`_c!@'
p2319
tp2320
bag3
(g4
(I0
tp2321
g6
tp2322
Rp2323
(g444
I1
(tg448
I00
S'o\xa2\xd8\xc5\xba\xcf\x1d@'
p2324
tp2325
bag3
(g4
(I0
tp2326
g6
tp2327
Rp2328
(g457
I1
(tg461
I00
S'4\xe7\xc3T\x9cR\x1c@'
p2329
tp2330
bag3
(g4
(I0
tp2331
g6
tp2332
Rp2333
(g470
I1
(tg474
I00
S'\xf2;Zu\x1c\xf9 @'
p2334
tp2335
bag3
(g4
(I0
tp2336
g6
tp2337
Rp2338
(g483
I1
(tg487
I00
S'2S\x82N\t\xfa\x1c@'
p2339
tp2340
bag3
(g4
(I0
tp2341
g6
tp2342
Rp2343
(g496
I1
(tg500
I00
S'\x13\x87\x92=<\xb7\x17@'
p2344
tp2345
bag3
(g4
(I0
tp2346
g6
tp2347
Rp2348
(g509
I1
(tg513
I00
S'j;\x8f\xb4\x00\xc4\x1d@'
p2349
tp2350
bag3
(g4
(I0
tp2351
g6
tp2352
Rp2353
(g522
I1
(tg526
I00
S'E1\x84\x04\xdc9!@'
p2354
tp2355
bag3
(g4
(I0
tp2356
g6
tp2357
Rp2358
(g535
I1
(tg539
I00
S'\x7f\xf0\x95\xedX\xd1\x1c@'
p2359
tp2360
bag3
(g4
(I0
tp2361
g6
tp2362
Rp2363
(g548
I1
(tg552
I00
S'a\xe4 3\xf7\xf1\x1f@'
p2364
tp2365
bag3
(g4
(I0
tp2366
g6
tp2367
Rp2368
(g561
I1
(tg565
I00
S')t\xf4\x94\x13\x9e\x1e@'
p2369
tp2370
bag3
(g4
(I0
tp2371
g6
tp2372
Rp2373
(g574
I1
(tg578
I00
S'\x8d\xa2\x81\x8e%H\x1c@'
p2374
tp2375
bag3
(g4
(I0
tp2376
g6
tp2377
Rp2378
(g587
I1
(tg591
I00
S'JmD\xf4"; @'
p2379
tp2380
bag3
(g4
(I0
tp2381
g6
tp2382
Rp2383
(g600
I1
(tg604
I00
S'\xc18m\xf08\xef\x1f@'
p2384
tp2385
bag3
(g4
(I0
tp2386
g6
tp2387
Rp2388
(g613
I1
(tg617
I00
S'\x08\xf5q\x8f\x1e\n @'
p2389
tp2390
bag3
(g4
(I0
tp2391
g6
tp2392
Rp2393
(g626
I1
(tg630
I00
S'\xa26\x8b\xcb\x05\x87!@'
p2394
tp2395
bag3
(g4
(I0
tp2396
g6
tp2397
Rp2398
(g639
I1
(tg643
I00
S'\xdc\xbe\xf1\xbc\xdc&\x1d@'
p2399
tp2400
bag3
(g4
(I0
tp2401
g6
tp2402
Rp2403
(g652
I1
(tg656
I00
S'\x08p\xde\x81\xc0\x19!@'
p2404
tp2405
bag3
(g4
(I0
tp2406
g6
tp2407
Rp2408
(g665
I1
(tg669
I00
S'k\x04\x0f\x1d\xb6A\x1c@'
p2409
tp2410
bag3
(g4
(I0
tp2411
g6
tp2412
Rp2413
(g678
I1
(tg682
I00
S'\xbe\xc6\xa9S\xf0\xc8\x1c@'
p2414
tp2415
bag3
(g4
(I0
tp2416
g6
tp2417
Rp2418
(g691
I1
(tg695
I00
S'N\xf0\x98\xc9\x08\r\x14@'
p2419
tp2420
bag3
(g4
(I0
tp2421
g6
tp2422
Rp2423
(g704
I1
(tg708
I00
S'FM\x1b\x90\xe7\xec\x1d@'
p2424
tp2425
bag3
(g4
(I0
tp2426
g6
tp2427
Rp2428
(g717
I1
(tg721
I00
S'\xb1\x81\xad\xc9\\\x8d\x1d@'
p2429
tp2430
bag3
(g4
(I0
tp2431
g6
tp2432
Rp2433
(g730
I1
(tg734
I00
S'<\x11\xfc\xe9\xd6A @'
p2434
tp2435
bag3
(g4
(I0
tp2436
g6
tp2437
Rp2438
(g743
I1
(tg747
I00
S'\x7f\xf2<?\xf5\x14\x1e@'
p2439
tp2440
bag3
(g4
(I0
tp2441
g6
tp2442
Rp2443
(g756
I1
(tg760
I00
S'\x1e_\xc81\xe6\x84\x1a@'
p2444
tp2445
bag3
(g4
(I0
tp2446
g6
tp2447
Rp2448
(g769
I1
(tg773
I00
S'@\x97]\xff\xe5:\x1e@'
p2449
tp2450
bag3
(g4
(I0
tp2451
g6
tp2452
Rp2453
(g782
I1
(tg786
I00
S"\xa2r\x7f\xb6\x1c'!@"
p2454
tp2455
bag3
(g4
(I0
tp2456
g6
tp2457
Rp2458
(g795
I1
(tg799
I00
S'\x08?\xcc3\x16\xbf\x1d@'
p2459
tp2460
bag3
(g4
(I0
tp2461
g6
tp2462
Rp2463
(g808
I1
(tg812
I00
S'$\xbc7\x9aR\xb8\x17@'
p2464
tp2465
bag3
(g4
(I0
tp2466
g6
tp2467
Rp2468
(g821
I1
(tg825
I00
S'3\xcc\x18\xc5\x05\x05!@'
p2469
tp2470
bag3
(g4
(I0
tp2471
g6
tp2472
Rp2473
(g834
I1
(tg838
I00
S'g\xcce\x9c\x84Q @'
p2474
tp2475
bag3
(g4
(I0
tp2476
g6
tp2477
Rp2478
(g847
I1
(tg851
I00
S'\x97-\xf4\x139\xcf\x1b@'
p2479
tp2480
bag3
(g4
(I0
tp2481
g6
tp2482
Rp2483
(g860
I1
(tg864
I00
S'\xe6\x82\x81\x97\xcc\x8b\x1f@'
p2484
tp2485
bag3
(g4
(I0
tp2486
g6
tp2487
Rp2488
(g873
I1
(tg877
I00
S'\x86u\xde\xbf\xd0\x14 @'
p2489
tp2490
bag3
(g4
(I0
tp2491
g6
tp2492
Rp2493
(g886
I1
(tg890
I00
S'\xfdk\x9a\xf3\xc4\xc0\x19@'
p2494
tp2495
bag3
(g4
(I0
tp2496
g6
tp2497
Rp2498
(g899
I1
(tg903
I00
S'\xdb\x80\xcd\xc04\xf3\x1e@'
p2499
tp2500
bag3
(g4
(I0
tp2501
g6
tp2502
Rp2503
(g912
I1
(tg916
I00
S'P\xf1\xeaPX4!@'
p2504
tp2505
bag3
(g4
(I0
tp2506
g6
tp2507
Rp2508
(g925
I1
(tg929
I00
S'\x82z\r\xaaH\x98!@'
p2509
tp2510
bag3
(g4
(I0
tp2511
g6
tp2512
Rp2513
(g938
I1
(tg942
I00
S'\x1f\xbd\xfe\x1b\xd8<!@'
p2514
tp2515
bag3
(g4
(I0
tp2516
g6
tp2517
Rp2518
(g951
I1
(tg955
I00
S'.\x1c\x1f\xbd\xa9%!@'
p2519
tp2520
bag3
(g4
(I0
tp2521
g6
tp2522
Rp2523
(g964
I1
(tg968
I00
S'8:\xe0>\xc2H!@'
p2524
tp2525
bag3
(g4
(I0
tp2526
g6
tp2527
Rp2528
(g977
I1
(tg981
I00
S'c\xf5\xa3\x870\xa2\x1e@'
p2529
tp2530
bag3
(g4
(I0
tp2531
g6
tp2532
Rp2533
(g990
I1
(tg994
I00
S'\xb8{\xb5\xb5F\xc0\x14@'
p2534
tp2535
bag3
(g4
(I0
tp2536
g6
tp2537
Rp2538
(g1003
I1
(tg1007
I00
S'\xf3\xa46\x0cj\xf7\x1d@'
p2539
tp2540
bag3
(g4
(I0
tp2541
g6
tp2542
Rp2543
(g1016
I1
(tg1020
I00
S'l\xe7%\xf6\xd9\xeb\x18@'
p2544
tp2545
bag3
(g4
(I0
tp2546
g6
tp2547
Rp2548
(g1029
I1
(tg1033
I00
S'C\xf98Q\xd3\xac\x1b@'
p2549
tp2550
bag3
(g4
(I0
tp2551
g6
tp2552
Rp2553
(g1042
I1
(tg1046
I00
S'\xfbm\x9f\xd9tC\x1b@'
p2554
tp2555
bag3
(g4
(I0
tp2556
g6
tp2557
Rp2558
(g1055
I1
(tg1059
I00
S'\x1d\xdeC\xcfO\xea\x19@'
p2559
tp2560
bag3
(g4
(I0
tp2561
g6
tp2562
Rp2563
(g1068
I1
(tg1072
I00
S'\xcf\xa9\xaa\x1c\xf6q @'
p2564
tp2565
bag3
(g4
(I0
tp2566
g6
tp2567
Rp2568
(g1081
I1
(tg1085
I00
S'D\x0c\x8a\xe8\x9dl!@'
p2569
tp2570
bag3
(g4
(I0
tp2571
g6
tp2572
Rp2573
(g1094
I1
(tg1098
I00
S'|\xae\xd8\x141\xb2\x1b@'
p2574
tp2575
bag3
(g4
(I0
tp2576
g6
tp2577
Rp2578
(g1107
I1
(tg1111
I00
S'\xd8\xaf\xcc\xd8\xc9e\x14@'
p2579
tp2580
bag3
(g4
(I0
tp2581
g6
tp2582
Rp2583
(g1120
I1
(tg1124
I00
S'\x17\x0e%\xaa2[\x1d@'
p2584
tp2585
bag3
(g4
(I0
tp2586
g6
tp2587
Rp2588
(g1133
I1
(tg1137
I00
S'X8\x99\xdc`@\x1d@'
p2589
tp2590
bag3
(g4
(I0
tp2591
g6
tp2592
Rp2593
(g1146
I1
(tg1150
I00
S'\xc9\xf0P\x89} \x1f@'
p2594
tp2595
bag3
(g4
(I0
tp2596
g6
tp2597
Rp2598
(g1159
I1
(tg1163
I00
S'\x87 \xd3A+\x8a\x1e@'
p2599
tp2600
bag3
(g4
(I0
tp2601
g6
tp2602
Rp2603
(g1172
I1
(tg1176
I00
S'f\xab\x81\xfdO\xc7\x1e@'
p2604
tp2605
bag3
(g4
(I0
tp2606
g6
tp2607
Rp2608
(g1185
I1
(tg1189
I00
S'\xf2Mr\xf5\xb9U!@'
p2609
tp2610
bag3
(g4
(I0
tp2611
g6
tp2612
Rp2613
(g1198
I1
(tg1202
I00
S'\x91\xf0\x06.\xaa\x0b!@'
p2614
tp2615
bag3
(g4
(I0
tp2616
g6
tp2617
Rp2618
(g1211
I1
(tg1215
I00
S'\xc0\xde\xec\x9d\xe3\x00\x1c@'
p2619
tp2620
basS'oh_gas2'
p2621
(lp2622
g3
(g4
(I0
tp2623
g6
tp2624
Rp2625
(g13
I1
(tg19
I00
S'\xe5\xa0\xf3\xab\xd6\xb5\x1f@'
p2626
tp2627
bag3
(g4
(I0
tp2628
g6
tp2629
Rp2630
(g28
I1
(tg32
I00
S'@\xd6\x02\xe8\xf1Y @'
p2631
tp2632
bag3
(g4
(I0
tp2633
g6
tp2634
Rp2635
(g41
I1
(tg45
I00
S'\x9d\x83\xeb\x19\xe5\xd1\x1b@'
p2636
tp2637
bag3
(g4
(I0
tp2638
g6
tp2639
Rp2640
(g54
I1
(tg58
I00
S'r\x1d\xeb\xff\xc6\xc3"@'
p2641
tp2642
bag3
(g4
(I0
tp2643
g6
tp2644
Rp2645
(g67
I1
(tg71
I00
S"\xf0n <']\x1d@"
p2646
tp2647
bag3
(g4
(I0
tp2648
g6
tp2649
Rp2650
(g80
I1
(tg84
I00
S'\xb6\xf7d\xa4\x1aC\x1d@'
p2651
tp2652
bag3
(g4
(I0
tp2653
g6
tp2654
Rp2655
(g93
I1
(tg97
I00
S'\xb4\x16#V\x05@!@'
p2656
tp2657
bag3
(g4
(I0
tp2658
g6
tp2659
Rp2660
(g106
I1
(tg110
I00
S'\x89\x0e+\x84\x90\xda\x1b@'
p2661
tp2662
bag3
(g4
(I0
tp2663
g6
tp2664
Rp2665
(g119
I1
(tg123
I00
S'D@\x07\x07I\xac\x1d@'
p2666
tp2667
bag3
(g4
(I0
tp2668
g6
tp2669
Rp2670
(g132
I1
(tg136
I00
S',\x0b|\x98-\xcb\x1b@'
p2671
tp2672
bag3
(g4
(I0
tp2673
g6
tp2674
Rp2675
(g145
I1
(tg149
I00
S'R\x7f\x0f\x03\xe3" @'
p2676
tp2677
bag3
(g4
(I0
tp2678
g6
tp2679
Rp2680
(g158
I1
(tg162
I00
S'\x9e\xa9\x1d\xb53\xde\x1d@'
p2681
tp2682
bag3
(g4
(I0
tp2683
g6
tp2684
Rp2685
(g171
I1
(tg175
I00
S'(\r\x8e\x9dc[ @'
p2686
tp2687
bag3
(g4
(I0
tp2688
g6
tp2689
Rp2690
(g184
I1
(tg188
I00
S'\xed\x06\xe1\xe9\xc4\xd5\x1f@'
p2691
tp2692
bag3
(g4
(I0
tp2693
g6
tp2694
Rp2695
(g197
I1
(tg201
I00
S'\xb0\xda\xee\x1cv\xfe\x1e@'
p2696
tp2697
bag3
(g4
(I0
tp2698
g6
tp2699
Rp2700
(g210
I1
(tg214
I00
S'k\x86\xe8\xce\xa7\xec"@'
p2701
tp2702
bag3
(g4
(I0
tp2703
g6
tp2704
Rp2705
(g223
I1
(tg227
I00
S'\x1a\x13`\xab\xc1\x05\x1d@'
p2706
tp2707
bag3
(g4
(I0
tp2708
g6
tp2709
Rp2710
(g236
I1
(tg240
I00
S'\xbb\x88\xc0\xf9\x9a~\x1c@'
p2711
tp2712
bag3
(g4
(I0
tp2713
g6
tp2714
Rp2715
(g249
I1
(tg253
I00
S'\xff\x9d\xb8\xf2S\xb1\x1c@'
p2716
tp2717
bag3
(g4
(I0
tp2718
g6
tp2719
Rp2720
(g262
I1
(tg266
I00
S'\x07\x02>5\xe0c\x1c@'
p2721
tp2722
bag3
(g4
(I0
tp2723
g6
tp2724
Rp2725
(g275
I1
(tg279
I00
S'h\x1fM\x9f\xeb\xbc"@'
p2726
tp2727
bag3
(g4
(I0
tp2728
g6
tp2729
Rp2730
(g288
I1
(tg292
I00
S'x\x08\\\xa7\xef\xe5\x1c@'
p2731
tp2732
bag3
(g4
(I0
tp2733
g6
tp2734
Rp2735
(g301
I1
(tg305
I00
S'\x14\x05\xbc\xec^\xa7!@'
p2736
tp2737
bag3
(g4
(I0
tp2738
g6
tp2739
Rp2740
(g314
I1
(tg318
I00
S'0\x7f\x15\xd6Fp\x1d@'
p2741
tp2742
bag3
(g4
(I0
tp2743
g6
tp2744
Rp2745
(g327
I1
(tg331
I00
S'\xd1S*\xb0\x19@ @'
p2746
tp2747
bag3
(g4
(I0
tp2748
g6
tp2749
Rp2750
(g340
I1
(tg344
I00
S'\x1c\xd0\x0e.H\x99\x1d@'
p2751
tp2752
bag3
(g4
(I0
tp2753
g6
tp2754
Rp2755
(g353
I1
(tg357
I00
S'nS\xba\x1b\xd41\x1d@'
p2756
tp2757
bag3
(g4
(I0
tp2758
g6
tp2759
Rp2760
(g366
I1
(tg370
I00
S'fa\x1e\x9a\xd9\n\x1d@'
p2761
tp2762
bag3
(g4
(I0
tp2763
g6
tp2764
Rp2765
(g379
I1
(tg383
I00
S'\xae\xa7\x98\xed\x90\x9a!@'
p2766
tp2767
bag3
(g4
(I0
tp2768
g6
tp2769
Rp2770
(g392
I1
(tg396
I00
S'*\xcb=\xee\xee+!@'
p2771
tp2772
bag3
(g4
(I0
tp2773
g6
tp2774
Rp2775
(g405
I1
(tg409
I00
S'\xea\xca\xf9\x03\x8a\xc6!@'
p2776
tp2777
bag3
(g4
(I0
tp2778
g6
tp2779
Rp2780
(g418
I1
(tg422
I00
S'\x87z\x83\xca\xd2\xea @'
p2781
tp2782
bag3
(g4
(I0
tp2783
g6
tp2784
Rp2785
(g431
I1
(tg435
I00
S'\x10\x0c\xea:\x87\r"@'
p2786
tp2787
bag3
(g4
(I0
tp2788
g6
tp2789
Rp2790
(g444
I1
(tg448
I00
S'\x9f\x05\x03\xc2`#\x1f@'
p2791
tp2792
bag3
(g4
(I0
tp2793
g6
tp2794
Rp2795
(g457
I1
(tg461
I00
S'\x9c`\x00;0\xfd\x1c@'
p2796
tp2797
bag3
(g4
(I0
tp2798
g6
tp2799
Rp2800
(g470
I1
(tg474
I00
S'\x92J\x84\xef\x87\xce"@'
p2801
tp2802
bag3
(g4
(I0
tp2803
g6
tp2804
Rp2805
(g483
I1
(tg487
I00
S'\x99\x0f\xdeL~\xe6\x1d@'
p2806
tp2807
bag3
(g4
(I0
tp2808
g6
tp2809
Rp2810
(g496
I1
(tg500
I00
S'e1\xbc\x87\xd8\xd5\x1d@'
p2811
tp2812
bag3
(g4
(I0
tp2813
g6
tp2814
Rp2815
(g509
I1
(tg513
I00
S'\t\xb8\x97\x0e\xb3\xf8\x1e@'
p2816
tp2817
bag3
(g4
(I0
tp2818
g6
tp2819
Rp2820
(g522
I1
(tg526
I00
S'\xc0\xf8\xedrv\xbd!@'
p2821
tp2822
bag3
(g4
(I0
tp2823
g6
tp2824
Rp2825
(g535
I1
(tg539
I00
S'\x92\xec\x1a\xd0\x16%\x1e@'
p2826
tp2827
bag3
(g4
(I0
tp2828
g6
tp2829
Rp2830
(g548
I1
(tg552
I00
S'Nb\x9b\xde\xb1\xf7 @'
p2831
tp2832
bag3
(g4
(I0
tp2833
g6
tp2834
Rp2835
(g561
I1
(tg565
I00
S';^+\x1e-g\x1f@'
p2836
tp2837
bag3
(g4
(I0
tp2838
g6
tp2839
Rp2840
(g574
I1
(tg578
I00
S'+XF\x9e\xed\x9c\x1d@'
p2841
tp2842
bag3
(g4
(I0
tp2843
g6
tp2844
Rp2845
(g587
I1
(tg591
I00
S'\xb7\xa5\xea\x86\xc8\xcf @'
p2846
tp2847
bag3
(g4
(I0
tp2848
g6
tp2849
Rp2850
(g600
I1
(tg604
I00
S'Go\\)\x10\x93 @'
p2851
tp2852
bag3
(g4
(I0
tp2853
g6
tp2854
Rp2855
(g613
I1
(tg617
I00
S'Nx\xf6\x04\xd6\xd4 @'
p2856
tp2857
bag3
(g4
(I0
tp2858
g6
tp2859
Rp2860
(g626
I1
(tg630
I00
S'A\x87\x89b\x93h"@'
p2861
tp2862
bag3
(g4
(I0
tp2863
g6
tp2864
Rp2865
(g639
I1
(tg643
I00
S'[\xc2j\x94\x7f\xe8\x1e@'
p2866
tp2867
bag3
(g4
(I0
tp2868
g6
tp2869
Rp2870
(g652
I1
(tg656
I00
S'\x98\xca\x9b$\xf6\x0f"@'
p2871
tp2872
bag3
(g4
(I0
tp2873
g6
tp2874
Rp2875
(g665
I1
(tg669
I00
S'3P\xeb\r\x89\x1f\x1d@'
p2876
tp2877
bag3
(g4
(I0
tp2878
g6
tp2879
Rp2880
(g678
I1
(tg682
I00
S'D\x17G(\xd2.\x1d@'
p2881
tp2882
bag3
(g4
(I0
tp2883
g6
tp2884
Rp2885
(g691
I1
(tg695
I00
S'\x13O\x8fe\x94-\x15@'
p2886
tp2887
bag3
(g4
(I0
tp2888
g6
tp2889
Rp2890
(g704
I1
(tg708
I00
S'\x99\xa0\xc0(0a\x1e@'
p2891
tp2892
bag3
(g4
(I0
tp2893
g6
tp2894
Rp2895
(g717
I1
(tg721
I00
S'\x945\xc9\x7f\xf4\x14\x1e@'
p2896
tp2897
bag3
(g4
(I0
tp2898
g6
tp2899
Rp2900
(g730
I1
(tg734
I00
S'*)\x17\xd4\xf8\xb1 @'
p2901
tp2902
bag3
(g4
(I0
tp2903
g6
tp2904
Rp2905
(g743
I1
(tg747
I00
S'\xd6"\x9eiz\x1d\x1f@'
p2906
tp2907
bag3
(g4
(I0
tp2908
g6
tp2909
Rp2910
(g756
I1
(tg760
I00
S'\xee\xc6\x8b\x11~\x88\x1c@'
p2911
tp2912
bag3
(g4
(I0
tp2913
g6
tp2914
Rp2915
(g769
I1
(tg773
I00
S'\x15\xf6p \x95\xcc\x1e@'
p2916
tp2917
bag3
(g4
(I0
tp2918
g6
tp2919
Rp2920
(g782
I1
(tg786
I00
S'\xad\xfe/\x03U\x13"@'
p2921
tp2922
bag3
(g4
(I0
tp2923
g6
tp2924
Rp2925
(g795
I1
(tg799
I00
S'\xd7\xc55\xf3\xe7,\x1f@'
p2926
tp2927
bag3
(g4
(I0
tp2928
g6
tp2929
Rp2930
(g808
I1
(tg812
I00
S'\xc5ff\xc6\x1f\xe6\x19@'
p2931
tp2932
bag3
(g4
(I0
tp2933
g6
tp2934
Rp2935
(g821
I1
(tg825
I00
S'\x9cvr\xc3\x8a)"@'
p2936
tp2937
bag3
(g4
(I0
tp2938
g6
tp2939
Rp2940
(g834
I1
(tg838
I00
S'c\xab:\xc7\x90\xf4 @'
p2941
tp2942
bag3
(g4
(I0
tp2943
g6
tp2944
Rp2945
(g847
I1
(tg851
I00
S'\xd0\rj0\x1c\x02\x1d@'
p2946
tp2947
bag3
(g4
(I0
tp2948
g6
tp2949
Rp2950
(g860
I1
(tg864
I00
S'\x10\xe3hP\xfe\x0b"@'
p2951
tp2952
bag3
(g4
(I0
tp2953
g6
tp2954
Rp2955
(g873
I1
(tg877
I00
S'\xfb@<\x10\\\xce @'
p2956
tp2957
bag3
(g4
(I0
tp2958
g6
tp2959
Rp2960
(g886
I1
(tg890
I00
S'\xdbwo\x86\xd6k\x1c@'
p2961
tp2962
bag3
(g4
(I0
tp2963
g6
tp2964
Rp2965
(g899
I1
(tg903
I00
S'\x06\x80V\r\xaf\xbc @'
p2966
tp2967
bag3
(g4
(I0
tp2968
g6
tp2969
Rp2970
(g912
I1
(tg916
I00
S'2\x80\xbaCK\x12"@'
p2971
tp2972
bag3
(g4
(I0
tp2973
g6
tp2974
Rp2975
(g925
I1
(tg929
I00
S'\x08\xc4F(\x8f\xd1"@'
p2976
tp2977
bag3
(g4
(I0
tp2978
g6
tp2979
Rp2980
(g938
I1
(tg942
I00
S'\xd1\xeb\xa9\x953\x82"@'
p2981
tp2982
bag3
(g4
(I0
tp2983
g6
tp2984
Rp2985
(g951
I1
(tg955
I00
S':)\xa7ek\xcb"@'
p2986
tp2987
bag3
(g4
(I0
tp2988
g6
tp2989
Rp2990
(g964
I1
(tg968
I00
S'\x84P_\\\xf3o"@'
p2991
tp2992
bag3
(g4
(I0
tp2993
g6
tp2994
Rp2995
(g977
I1
(tg981
I00
S'=\xf1v\xdf\xfd\x93\x1f@'
p2996
tp2997
bag3
(g4
(I0
tp2998
g6
tp2999
Rp3000
(g990
I1
(tg994
I00
S'\xa5\x92\xf9\xfa\x82!\x19@'
p3001
tp3002
bag3
(g4
(I0
tp3003
g6
tp3004
Rp3005
(g1003
I1
(tg1007
I00
S'\xaa\xc4\x92\xad\xd0\xa0\x1e@'
p3006
tp3007
bag3
(g4
(I0
tp3008
g6
tp3009
Rp3010
(g1016
I1
(tg1020
I00
S'\x1ds\xcd\xbcl\xf5\x19@'
p3011
tp3012
bag3
(g4
(I0
tp3013
g6
tp3014
Rp3015
(g1029
I1
(tg1033
I00
S'\x08acM\x91\xbe\x1c@'
p3016
tp3017
bag3
(g4
(I0
tp3018
g6
tp3019
Rp3020
(g1042
I1
(tg1046
I00
S'\x13!\x9cC\xb1u\x1d@'
p3021
tp3022
bag3
(g4
(I0
tp3023
g6
tp3024
Rp3025
(g1055
I1
(tg1059
I00
S'\xa1q\xba\x17\xcac\x1b@'
p3026
tp3027
bag3
(g4
(I0
tp3028
g6
tp3029
Rp3030
(g1068
I1
(tg1072
I00
S'\xd2\xc8\xf7w\xa6\xdf @'
p3031
tp3032
bag3
(g4
(I0
tp3033
g6
tp3034
Rp3035
(g1081
I1
(tg1085
I00
S'\xfc1R\x11\xe1\x0c"@'
p3036
tp3037
bag3
(g4
(I0
tp3038
g6
tp3039
Rp3040
(g1094
I1
(tg1098
I00
S'\xf0;\xf3\xc4\x10V\x1d@'
p3041
tp3042
bag3
(g4
(I0
tp3043
g6
tp3044
Rp3045
(g1107
I1
(tg1111
I00
S'\n\x83\xeb\xffx\xeb\x14@'
p3046
tp3047
bag3
(g4
(I0
tp3048
g6
tp3049
Rp3050
(g1120
I1
(tg1124
I00
S't\x98\xa3\xa1\xc5u\x1e@'
p3051
tp3052
bag3
(g4
(I0
tp3053
g6
tp3054
Rp3055
(g1133
I1
(tg1137
I00
S'\xf0P\x9d\xda\x90i\x1e@'
p3056
tp3057
bag3
(g4
(I0
tp3058
g6
tp3059
Rp3060
(g1146
I1
(tg1150
I00
S'^\xc2\xb8\xcf\x94\xd3\x1f@'
p3061
tp3062
bag3
(g4
(I0
tp3063
g6
tp3064
Rp3065
(g1159
I1
(tg1163
I00
S'\xa4\x1eX\xfe\xda\x9e\x1f@'
p3066
tp3067
bag3
(g4
(I0
tp3068
g6
tp3069
Rp3070
(g1172
I1
(tg1176
I00
S'\xaby\xe4\x97]\xb1\x1f@'
p3071
tp3072
bag3
(g4
(I0
tp3073
g6
tp3074
Rp3075
(g1185
I1
(tg1189
I00
S'U\x15\x0b\xbe\x8f\xeb!@'
p3076
tp3077
bag3
(g4
(I0
tp3078
g6
tp3079
Rp3080
(g1198
I1
(tg1202
I00
S'\xa9\xb8\xc5\r\x92\xf6!@'
p3081
tp3082
bag3
(g4
(I0
tp3083
g6
tp3084
Rp3085
(g1211
I1
(tg1215
I00
S'\n)\xe2\xf7\x10V\x1d@'
p3086
tp3087
basS'oh_gas3'
p3088
(lp3089
g3
(g4
(I0
tp3090
g6
tp3091
Rp3092
(g13
I1
(tg19
I00
S'\x1339N7\xa2\x1f@'
p3093
tp3094
bag3
(g4
(I0
tp3095
g6
tp3096
Rp3097
(g28
I1
(tg32
I00
S'\xbe\xffy@\xa2T @'
p3098
tp3099
bag3
(g4
(I0
tp3100
g6
tp3101
Rp3102
(g41
I1
(tg45
I00
S'(\x0c2\xcd"\x97\x1b@'
p3103
tp3104
bag3
(g4
(I0
tp3105
g6
tp3106
Rp3107
(g54
I1
(tg58
I00
S'H]\xf8\xfdX\xc1"@'
p3108
tp3109
bag3
(g4
(I0
tp3110
g6
tp3111
Rp3112
(g67
I1
(tg71
I00
S'C\x1a\rd\x0eW\x1d@'
p3113
tp3114
bag3
(g4
(I0
tp3115
g6
tp3116
Rp3117
(g80
I1
(tg84
I00
S'\xd6:\x12\x81b<\x1d@'
p3118
tp3119
bag3
(g4
(I0
tp3120
g6
tp3121
Rp3122
(g93
I1
(tg97
I00
S'\x99\x9e;\xcf\xd9?!@'
p3123
tp3124
bag3
(g4
(I0
tp3125
g6
tp3126
Rp3127
(g106
I1
(tg110
I00
S'\xbe\x9cz;3\x89\x1b@'
p3128
tp3129
bag3
(g4
(I0
tp3130
g6
tp3131
Rp3132
(g119
I1
(tg123
I00
S'\xbdl\x05\xdf\xad\xa9\x1d@'
p3133
tp3134
bag3
(g4
(I0
tp3135
g6
tp3136
Rp3137
(g132
I1
(tg136
I00
S'N|C\x8cX\xc8\x1b@'
p3138
tp3139
bag3
(g4
(I0
tp3140
g6
tp3141
Rp3142
(g145
I1
(tg149
I00
S'\xc1\x7f\xce\xba\xe3\x17 @'
p3143
tp3144
bag3
(g4
(I0
tp3145
g6
tp3146
Rp3147
(g158
I1
(tg162
I00
S'\xea\xbf\xe3q\xf0\xdc\x1d@'
p3148
tp3149
bag3
(g4
(I0
tp3150
g6
tp3151
Rp3152
(g171
I1
(tg175
I00
S'\xdf\x8bF\x0b\xffW @'
p3153
tp3154
bag3
(g4
(I0
tp3155
g6
tp3156
Rp3157
(g184
I1
(tg188
I00
S'\xc6\x0e\xe1a\x8b\xa0\x1f@'
p3158
tp3159
bag3
(g4
(I0
tp3160
g6
tp3161
Rp3162
(g197
I1
(tg201
I00
S'\xabf0\x0c\xa6\xd6\x1e@'
p3163
tp3164
bag3
(g4
(I0
tp3165
g6
tp3166
Rp3167
(g210
I1
(tg214
I00
S'\xf3[\x95:\x90\xe5"@'
p3168
tp3169
bag3
(g4
(I0
tp3170
g6
tp3171
Rp3172
(g223
I1
(tg227
I00
S'\xbar\x87B(\t\x1d@'
p3173
tp3174
bag3
(g4
(I0
tp3175
g6
tp3176
Rp3177
(g236
I1
(tg240
I00
S'\xd4\x1d\x97q\x96s\x1c@'
p3178
tp3179
bag3
(g4
(I0
tp3180
g6
tp3181
Rp3182
(g249
I1
(tg253
I00
S'PB\x16$\x03\xae\x1c@'
p3183
tp3184
bag3
(g4
(I0
tp3185
g6
tp3186
Rp3187
(g262
I1
(tg266
I00
S'\xea\xc53\xb2qh\x1c@'
p3188
tp3189
bag3
(g4
(I0
tp3190
g6
tp3191
Rp3192
(g275
I1
(tg279
I00
S'\x1a\n\xfcm\x1a\xab"@'
p3193
tp3194
bag3
(g4
(I0
tp3195
g6
tp3196
Rp3197
(g288
I1
(tg292
I00
S'h\xbcC\xbe\xc9\xeb\x1c@'
p3198
tp3199
bag3
(g4
(I0
tp3200
g6
tp3201
Rp3202
(g301
I1
(tg305
I00
S'>\xd8<\xe2\x02\xa5!@'
p3203
tp3204
bag3
(g4
(I0
tp3205
g6
tp3206
Rp3207
(g314
I1
(tg318
I00
S'E\xaf\\4\xaed\x1d@'
p3208
tp3209
bag3
(g4
(I0
tp3210
g6
tp3211
Rp3212
(g327
I1
(tg331
I00
S'\x1c\x18\xa1W\xa9= @'
p3213
tp3214
bag3
(g4
(I0
tp3215
g6
tp3216
Rp3217
(g340
I1
(tg344
I00
S'\x08\xbe\xe5X\xa2\x96\x1d@'
p3218
tp3219
bag3
(g4
(I0
tp3220
g6
tp3221
Rp3222
(g353
I1
(tg357
I00
S'\xf5\x08\x8cv"/\x1d@'
p3223
tp3224
bag3
(g4
(I0
tp3225
g6
tp3226
Rp3227
(g366
I1
(tg370
I00
S'L\x13\xc1\x80\x16\x08\x1d@'
p3228
tp3229
bag3
(g4
(I0
tp3230
g6
tp3231
Rp3232
(g379
I1
(tg383
I00
S'\xf4\xd4w\x82\x0e\x98!@'
p3233
tp3234
bag3
(g4
(I0
tp3235
g6
tp3236
Rp3237
(g392
I1
(tg396
I00
S'\x18f\x1a\xb2|(!@'
p3238
tp3239
bag3
(g4
(I0
tp3240
g6
tp3241
Rp3242
(g405
I1
(tg409
I00
S'\xcf\x1c\x94<[\xc5!@'
p3243
tp3244
bag3
(g4
(I0
tp3245
g6
tp3246
Rp3247
(g418
I1
(tg422
I00
S'\xe1\x91&#\xe2\xe9 @'
p3248
tp3249
bag3
(g4
(I0
tp3250
g6
tp3251
Rp3252
(g431
I1
(tg435
I00
S'\xf6d7\xdb\xce\xf7!@'
p3253
tp3254
bag3
(g4
(I0
tp3255
g6
tp3256
Rp3257
(g444
I1
(tg448
I00
S'\xa2{\xa9%t#\x1f@'
p3258
tp3259
bag3
(g4
(I0
tp3260
g6
tp3261
Rp3262
(g457
I1
(tg461
I00
S'<\xc7\x81\xfeL\xd8\x1c@'
p3263
tp3264
bag3
(g4
(I0
tp3265
g6
tp3266
Rp3267
(g470
I1
(tg474
I00
S'<\x02\xe0\x10Q\xc5"@'
p3268
tp3269
bag3
(g4
(I0
tp3270
g6
tp3271
Rp3272
(g483
I1
(tg487
I00
S'\xddz\x8f\xc7\xe2\xe7\x1d@'
p3273
tp3274
bag3
(g4
(I0
tp3275
g6
tp3276
Rp3277
(g496
I1
(tg500
I00
S'k\xc7\x17l\x82\x9c\x1d@'
p3278
tp3279
bag3
(g4
(I0
tp3280
g6
tp3281
Rp3282
(g509
I1
(tg513
I00
S'\xda\x8b\x9e`\xfa\xf7\x1e@'
p3283
tp3284
bag3
(g4
(I0
tp3285
g6
tp3286
Rp3287
(g522
I1
(tg526
I00
S'l\x16)\xde\xa3\xb8!@'
p3288
tp3289
bag3
(g4
(I0
tp3290
g6
tp3291
Rp3292
(g535
I1
(tg539
I00
S'\xf9%e\xb7B\x1f\x1e@'
p3293
tp3294
bag3
(g4
(I0
tp3295
g6
tp3296
Rp3297
(g548
I1
(tg552
I00
S'\xa82\x05\xd7"\xf5 @'
p3298
tp3299
bag3
(g4
(I0
tp3300
g6
tp3301
Rp3302
(g561
I1
(tg565
I00
S'\x1f\x82\x9aa\x92O\x1f@'
p3303
tp3304
bag3
(g4
(I0
tp3305
g6
tp3306
Rp3307
(g574
I1
(tg578
I00
S'7\x0e\xe9\xfe9\x8f\x1d@'
p3308
tp3309
bag3
(g4
(I0
tp3310
g6
tp3311
Rp3312
(g587
I1
(tg591
I00
S'\x08\x9b4\xb0\x8d\xc8 @'
p3313
tp3314
bag3
(g4
(I0
tp3315
g6
tp3316
Rp3317
(g600
I1
(tg604
I00
S'U\xa3\xecTC\x82 @'
p3318
tp3319
bag3
(g4
(I0
tp3320
g6
tp3321
Rp3322
(g613
I1
(tg617
I00
S'\x90\xed\xfe\xb1\xf5\xc9 @'
p3323
tp3324
bag3
(g4
(I0
tp3325
g6
tp3326
Rp3327
(g626
I1
(tg630
I00
S'9\xb8\xa0V,W"@'
p3328
tp3329
bag3
(g4
(I0
tp3330
g6
tp3331
Rp3332
(g639
I1
(tg643
I00
S'T\xb7a\xf3u\xe5\x1e@'
p3333
tp3334
bag3
(g4
(I0
tp3335
g6
tp3336
Rp3337
(g652
I1
(tg656
I00
S'\xd3\xb3\'\xf0I\r"@'
p3338
tp3339
bag3
(g4
(I0
tp3340
g6
tp3341
Rp3342
(g665
I1
(tg669
I00
S"\x86]\xc9'\xbc\n\x1d@"
p3343
tp3344
bag3
(g4
(I0
tp3345
g6
tp3346
Rp3347
(g678
I1
(tg682
I00
S'o\x02\xa6a\x1e)\x1d@'
p3348
tp3349
bag3
(g4
(I0
tp3350
g6
tp3351
Rp3352
(g691
I1
(tg695
I00
S'\xaa\xca\xc7\xde,\x90\x14@'
p3353
tp3354
bag3
(g4
(I0
tp3355
g6
tp3356
Rp3357
(g704
I1
(tg708
I00
S'\xad\xb0\xf0\xaf\x89`\x1e@'
p3358
tp3359
bag3
(g4
(I0
tp3360
g6
tp3361
Rp3362
(g717
I1
(tg721
I00
S'\xc2\xab\x11\xb5h\x01\x1e@'
p3363
tp3364
bag3
(g4
(I0
tp3365
g6
tp3366
Rp3367
(g730
I1
(tg734
I00
S'\xe4\xc3E?\x15\xae @'
p3368
tp3369
bag3
(g4
(I0
tp3370
g6
tp3371
Rp3372
(g743
I1
(tg747
I00
S'\x0ey\xfdUl\x1a\x1f@'
p3373
tp3374
bag3
(g4
(I0
tp3375
g6
tp3376
Rp3377
(g756
I1
(tg760
I00
S'\xba\xe2]\xd0G\x88\x1c@'
p3378
tp3379
bag3
(g4
(I0
tp3380
g6
tp3381
Rp3382
(g769
I1
(tg773
I00
S'\xe9|\xad\xe5\xc6\xba\x1e@'
p3383
tp3384
bag3
(g4
(I0
tp3385
g6
tp3386
Rp3387
(g782
I1
(tg786
I00
S'\x06\xab\x99\x87\x13\xfa!@'
p3388
tp3389
bag3
(g4
(I0
tp3390
g6
tp3391
Rp3392
(g795
I1
(tg799
I00
S'\xfbG\xa0i\x0b%\x1f@'
p3393
tp3394
bag3
(g4
(I0
tp3395
g6
tp3396
Rp3397
(g808
I1
(tg812
I00
S'\xba\x1d\x13\x90\xf5\xdf\x19@'
p3398
tp3399
bag3
(g4
(I0
tp3400
g6
tp3401
Rp3402
(g821
I1
(tg825
I00
S'\xa0\x11K\x08\xd4\'"@'
p3403
tp3404
bag3
(g4
(I0
tp3405
g6
tp3406
Rp3407
(g834
I1
(tg838
I00
S'F<\xdd\x023\xe5 @'
p3408
tp3409
bag3
(g4
(I0
tp3410
g6
tp3411
Rp3412
(g847
I1
(tg851
I00
S'C\xc4j\x17\xba\x03\x1d@'
p3413
tp3414
bag3
(g4
(I0
tp3415
g6
tp3416
Rp3417
(g860
I1
(tg864
I00
S'O\xaf{\xf0[\xfc!@'
p3418
tp3419
bag3
(g4
(I0
tp3420
g6
tp3421
Rp3422
(g873
I1
(tg877
I00
S'BH\xa7\xd9\x13\xcc @'
p3423
tp3424
bag3
(g4
(I0
tp3425
g6
tp3426
Rp3427
(g886
I1
(tg890
I00
S'\xec\xd9\xb4%\xbbk\x1c@'
p3428
tp3429
bag3
(g4
(I0
tp3430
g6
tp3431
Rp3432
(g899
I1
(tg903
I00
S'\x0c\xb5JU\xc2\x9d @'
p3433
tp3434
bag3
(g4
(I0
tp3435
g6
tp3436
Rp3437
(g912
I1
(tg916
I00
S'e\xd3\x13H\x12\xf7!@'
p3438
tp3439
bag3
(g4
(I0
tp3440
g6
tp3441
Rp3442
(g925
I1
(tg929
I00
S'\xce\xee\xfb"+\xc5"@'
p3443
tp3444
bag3
(g4
(I0
tp3445
g6
tp3446
Rp3447
(g938
I1
(tg942
I00
S'IY\xe6C&\x80"@'
p3448
tp3449
bag3
(g4
(I0
tp3450
g6
tp3451
Rp3452
(g951
I1
(tg955
I00
S'8\xb2T\x80\x18\xc8"@'
p3453
tp3454
bag3
(g4
(I0
tp3455
g6
tp3456
Rp3457
(g964
I1
(tg968
I00
S'\xf5\xb1\x0b\xadp]"@'
p3458
tp3459
bag3
(g4
(I0
tp3460
g6
tp3461
Rp3462
(g977
I1
(tg981
I00
S'\x1d $z\xb4z\x1f@'
p3463
tp3464
bag3
(g4
(I0
tp3465
g6
tp3466
Rp3467
(g990
I1
(tg994
I00
S'\x08\xd5\x1d\xa2\xc6\xf3\x18@'
p3468
tp3469
bag3
(g4
(I0
tp3470
g6
tp3471
Rp3472
(g1003
I1
(tg1007
I00
S'\xde\xbf#u-\x97\x1e@'
p3473
tp3474
bag3
(g4
(I0
tp3475
g6
tp3476
Rp3477
(g1016
I1
(tg1020
I00
S'\xfc\xc1\x88#\x7f\xc0\x19@'
p3478
tp3479
bag3
(g4
(I0
tp3480
g6
tp3481
Rp3482
(g1029
I1
(tg1033
I00
S'\xf4\xd2\xb5\xec\xc5\xbf\x1c@'
p3483
tp3484
bag3
(g4
(I0
tp3485
g6
tp3486
Rp3487
(g1042
I1
(tg1046
I00
S'\xc0Q<4\xd8t\x1d@'
p3488
tp3489
bag3
(g4
(I0
tp3490
g6
tp3491
Rp3492
(g1055
I1
(tg1059
I00
S'd\x85/\x95\x16[\x1b@'
p3493
tp3494
bag3
(g4
(I0
tp3495
g6
tp3496
Rp3497
(g1068
I1
(tg1072
I00
S't\xb2\xb0\xe31\xd9 @'
p3498
tp3499
bag3
(g4
(I0
tp3500
g6
tp3501
Rp3502
(g1081
I1
(tg1085
I00
S'\x9b[\x9f\xab\x0f\t"@'
p3503
tp3504
bag3
(g4
(I0
tp3505
g6
tp3506
Rp3507
(g1094
I1
(tg1098
I00
S'\x8c\x871\xbd\xccU\x1d@'
p3508
tp3509
bag3
(g4
(I0
tp3510
g6
tp3511
Rp3512
(g1107
I1
(tg1111
I00
S'\xeeWk\x85\x93\xc7\x14@'
p3513
tp3514
bag3
(g4
(I0
tp3515
g6
tp3516
Rp3517
(g1120
I1
(tg1124
I00
S'\xd8\xaf\xd3E\x04l\x1e@'
p3518
tp3519
bag3
(g4
(I0
tp3520
g6
tp3521
Rp3522
(g1133
I1
(tg1137
I00
S'\x02\xb3]\xaf\xf8G\x1e@'
p3523
tp3524
bag3
(g4
(I0
tp3525
g6
tp3526
Rp3527
(g1146
I1
(tg1150
I00
S'Q\x82Z\xa6\x88\xcc\x1f@'
p3528
tp3529
bag3
(g4
(I0
tp3530
g6
tp3531
Rp3532
(g1159
I1
(tg1163
I00
S'\xa5\x8c\xce3\x02\x92\x1f@'
p3533
tp3534
bag3
(g4
(I0
tp3535
g6
tp3536
Rp3537
(g1172
I1
(tg1176
I00
S'ue%G\xff\xa3\x1f@'
p3538
tp3539
bag3
(g4
(I0
tp3540
g6
tp3541
Rp3542
(g1185
I1
(tg1189
I00
S'\xa7\xb1<\xc5N\xe6!@'
p3543
tp3544
bag3
(g4
(I0
tp3545
g6
tp3546
Rp3547
(g1198
I1
(tg1202
I00
S'\xdc\xca\x83\xeb\t\xe9!@'
p3548
tp3549
bag3
(g4
(I0
tp3550
g6
tp3551
Rp3552
(g1211
I1
(tg1215
I00
S'G\n\xed\xc6_V\x1d@'
p3553
tp3554
basS'mstar_rh'
p3555
(lp3556
g3
(g4
(I0
tp3557
g6
tp3558
Rp3559
(g9
(cpynbody.units
CompositeUnit
p3560
g11
Ntp3561
Rp3562
(dp3563
S'_powers'
p3564
(lp3565
cfractions
Fraction
p3566
(S'1'
p3567
tp3568
Rp3569
asS'_scale'
p3570
I1
sS'_bases'
p3571
(lp3572
cpynbody.units
_resurrect_named_unit
p3573
(S'Msol'
p3574
S'M_{\\odot}'
p3575
g9
(g3560
g11
Ntp3576
Rp3577
(dp3578
g3564
(lp3579
I1
asg3570
F1.98892e+30
sg3571
(lp3580
g3573
(S'kg'
p3581
NNtp3582
Rp3583
asbtp3584
Rp3585
asbI1
(tg19
I00
S'\x8c\xbc\\\xe7\xc6\xa7\xa7A'
p3586
tp3587
bag3
(g4
(I0
tp3588
g6
tp3589
Rp3590
(g9
(g3560
g11
Ntp3591
Rp3592
(dp3593
g3564
(lp3594
g3566
(g3567
tp3595
Rp3596
asg3570
I1
sg3571
(lp3597
g3585
asbI1
(tg32
I00
S'@@n\xa8\xe9\xe2\xb9A'
p3598
tp3599
bag3
(g4
(I0
tp3600
g6
tp3601
Rp3602
(g9
(g3560
g11
Ntp3603
Rp3604
(dp3605
g3564
(lp3606
g3566
(g3567
tp3607
Rp3608
asg3570
I1
sg3571
(lp3609
g3585
asbI1
(tg45
I00
S'\x04\xff\n\xda\xbb\x97AA'
p3610
tp3611
bag3
(g4
(I0
tp3612
g6
tp3613
Rp3614
(g9
(g3560
g11
Ntp3615
Rp3616
(dp3617
g3564
(lp3618
g3566
(g3567
tp3619
Rp3620
asg3570
I1
sg3571
(lp3621
g3585
asbI1
(tg58
I00
S'\x80nh\xaf\xdaS\nB'
p3622
tp3623
bag3
(g4
(I0
tp3624
g6
tp3625
Rp3626
(g9
(g3560
g11
Ntp3627
Rp3628
(dp3629
g3564
(lp3630
g3566
(g3567
tp3631
Rp3632
asg3570
I1
sg3571
(lp3633
g3585
asbI1
(tg71
I00
S'6\x8b\x87 \xb9\xc6/A'
p3634
tp3635
bag3
(g4
(I0
tp3636
g6
tp3637
Rp3638
(g9
(g3560
g11
Ntp3639
Rp3640
(dp3641
g3564
(lp3642
g3566
(g3567
tp3643
Rp3644
asg3570
I1
sg3571
(lp3645
g3585
asbI1
(tg84
I00
S'\xb3\x9dsV\xbe\x0b\x1bA'
p3646
tp3647
bag3
(g4
(I0
tp3648
g6
tp3649
Rp3650
(g9
(g3560
g11
Ntp3651
Rp3652
(dp3653
g3564
(lp3654
g3566
(g3567
tp3655
Rp3656
asg3570
I1
sg3571
(lp3657
g3585
asbI1
(tg97
I00
S'm\x8b\x82B\xe9\xef\xc9A'
p3658
tp3659
bag3
(g4
(I0
tp3660
g6
tp3661
Rp3662
(g9
(g3560
g11
Ntp3663
Rp3664
(dp3665
g3564
(lp3666
g3566
(g3567
tp3667
Rp3668
asg3570
I1
sg3571
(lp3669
g3585
asbI1
(tg110
I00
S'l\xb5\x83\x80,\xabEA'
p3670
tp3671
bag3
(g4
(I0
tp3672
g6
tp3673
Rp3674
(g9
(g3560
g11
Ntp3675
Rp3676
(dp3677
g3564
(lp3678
g3566
(g3567
tp3679
Rp3680
asg3570
I1
sg3571
(lp3681
g3585
asbI1
(tg123
I00
S'T\xa7\x8d\xcc\rpFA'
p3682
tp3683
bag3
(g4
(I0
tp3684
g6
tp3685
Rp3686
(g9
(g3560
g11
Ntp3687
Rp3688
(dp3689
g3564
(lp3690
g3566
(g3567
tp3691
Rp3692
asg3570
I1
sg3571
(lp3693
g3585
asbI1
(tg136
I00
S'\x99+\xe3\xda\xcec4A'
p3694
tp3695
bag3
(g4
(I0
tp3696
g6
tp3697
Rp3698
(g9
(g3560
g11
Ntp3699
Rp3700
(dp3701
g3564
(lp3702
g3566
(g3567
tp3703
Rp3704
asg3570
I1
sg3571
(lp3705
g3585
asbI1
(tg149
I00
S'\xcc\x04\xa1\x9c\x94Z\xb7A'
p3706
tp3707
bag3
(g4
(I0
tp3708
g6
tp3709
Rp3710
(g9
(g3560
g11
Ntp3711
Rp3712
(dp3713
g3564
(lp3714
g3566
(g3567
tp3715
Rp3716
asg3570
I1
sg3571
(lp3717
g3585
asbI1
(tg162
I00
S'&l\xe0\xad\x11%GA'
p3718
tp3719
bag3
(g4
(I0
tp3720
g6
tp3721
Rp3722
(g9
(g3560
g11
Ntp3723
Rp3724
(dp3725
g3564
(lp3726
g3566
(g3567
tp3727
Rp3728
asg3570
I1
sg3571
(lp3729
g3585
asbI1
(tg175
I00
S'\xd9\xdd\x92\xf8\xabu\xbbA'
p3730
tp3731
bag3
(g4
(I0
tp3732
g6
tp3733
Rp3734
(g9
(g3560
g11
Ntp3735
Rp3736
(dp3737
g3564
(lp3738
g3566
(g3567
tp3739
Rp3740
asg3570
I1
sg3571
(lp3741
g3585
asbI1
(tg188
I00
S'P\x0f\xd8\xf0\r\xe4\xb4A'
p3742
tp3743
bag3
(g4
(I0
tp3744
g6
tp3745
Rp3746
(g9
(g3560
g11
Ntp3747
Rp3748
(dp3749
g3564
(lp3750
g3566
(g3567
tp3751
Rp3752
asg3570
I1
sg3571
(lp3753
g3585
asbI1
(tg201
I00
S'\xb9"wy\x1d\xf9\xafA'
p3754
tp3755
bag3
(g4
(I0
tp3756
g6
tp3757
Rp3758
(g9
(g3560
g11
Ntp3759
Rp3760
(dp3761
g3564
(lp3762
g3566
(g3567
tp3763
Rp3764
asg3570
I1
sg3571
(lp3765
g3585
asbI1
(tg214
I00
S'\x85\x97\xf4\x08B[(B'
p3766
tp3767
bag3
(g4
(I0
tp3768
g6
tp3769
Rp3770
(g9
(g3560
g11
Ntp3771
Rp3772
(dp3773
g3564
(lp3774
g3566
(g3567
tp3775
Rp3776
asg3570
I1
sg3571
(lp3777
g3585
asbI1
(tg227
I00
S'6Q$\rP\x94\\A'
p3778
tp3779
bag3
(g4
(I0
tp3780
g6
tp3781
Rp3782
(g9
(g3560
g11
Ntp3783
Rp3784
(dp3785
g3564
(lp3786
g3566
(g3567
tp3787
Rp3788
asg3570
I1
sg3571
(lp3789
g3585
asbI1
(tg240
I00
S'd\x8f\xf1\xa8\xd5\xbbHA'
p3790
tp3791
bag3
(g4
(I0
tp3792
g6
tp3793
Rp3794
(g9
(g3560
g11
Ntp3795
Rp3796
(dp3797
g3564
(lp3798
g3566
(g3567
tp3799
Rp3800
asg3570
I1
sg3571
(lp3801
g3585
asbI1
(tg253
I00
S'\xe4\xfe"\xe5\xa3\x00PA'
p3802
tp3803
bag3
(g4
(I0
tp3804
g6
tp3805
Rp3806
(g9
(g3560
g11
Ntp3807
Rp3808
(dp3809
g3564
(lp3810
g3566
(g3567
tp3811
Rp3812
asg3570
I1
sg3571
(lp3813
g3585
asbI1
(tg266
I00
S'\x1a\x1f\xaf\x9c\x1f\xf70A'
p3814
tp3815
bag3
(g4
(I0
tp3816
g6
tp3817
Rp3818
(g9
(g3560
g11
Ntp3819
Rp3820
(dp3821
g3564
(lp3822
g3566
(g3567
tp3823
Rp3824
asg3570
I1
sg3571
(lp3825
g3585
asbI1
(tg279
I00
S'\x03i~\t\xaf\xb61B'
p3826
tp3827
bag3
(g4
(I0
tp3828
g6
tp3829
Rp3830
(g9
(g3560
g11
Ntp3831
Rp3832
(dp3833
g3564
(lp3834
g3566
(g3567
tp3835
Rp3836
asg3570
I1
sg3571
(lp3837
g3585
asbI1
(tg292
I00
S'\xb4u\xb5a\xec\t3A'
p3838
tp3839
bag3
(g4
(I0
tp3840
g6
tp3841
Rp3842
(g9
(g3560
g11
Ntp3843
Rp3844
(dp3845
g3564
(lp3846
g3566
(g3567
tp3847
Rp3848
asg3570
I1
sg3571
(lp3849
g3585
asbI1
(tg305
I00
S'PU\x81\xa3\xa8\x16\xd3A'
p3850
tp3851
bag3
(g4
(I0
tp3852
g6
tp3853
Rp3854
(g9
(g3560
g11
Ntp3855
Rp3856
(dp3857
g3564
(lp3858
g3566
(g3567
tp3859
Rp3860
asg3570
I1
sg3571
(lp3861
g3585
asbI1
(tg318
I00
S'\xc6.-\xb6^\xc1IA'
p3862
tp3863
bag3
(g4
(I0
tp3864
g6
tp3865
Rp3866
(g9
(g3560
g11
Ntp3867
Rp3868
(dp3869
g3564
(lp3870
g3566
(g3567
tp3871
Rp3872
asg3570
I1
sg3571
(lp3873
g3585
asbI1
(tg331
I00
S'>\xcea\x98\x1d\xe1\xb2A'
p3874
tp3875
bag3
(g4
(I0
tp3876
g6
tp3877
Rp3878
(g9
(g3560
g11
Ntp3879
Rp3880
(dp3881
g3564
(lp3882
g3566
(g3567
tp3883
Rp3884
asg3570
I1
sg3571
(lp3885
g3585
asbI1
(tg344
I00
S"c\x0fL\xa6'\xf3NA"
p3886
tp3887
bag3
(g4
(I0
tp3888
g6
tp3889
Rp3890
(g9
(g3560
g11
Ntp3891
Rp3892
(dp3893
g3564
(lp3894
g3566
(g3567
tp3895
Rp3896
asg3570
I1
sg3571
(lp3897
g3585
asbI1
(tg357
I00
S'\xac\x98\xbd\xdb^0MA'
p3898
tp3899
bag3
(g4
(I0
tp3900
g6
tp3901
Rp3902
(g9
(g3560
g11
Ntp3903
Rp3904
(dp3905
g3564
(lp3906
g3566
(g3567
tp3907
Rp3908
asg3570
I1
sg3571
(lp3909
g3585
asbI1
(tg370
I00
S'\x02\xca\xa5\xf1\xc7\xa0@A'
p3910
tp3911
bag3
(g4
(I0
tp3912
g6
tp3913
Rp3914
(g9
(g3560
g11
Ntp3915
Rp3916
(dp3917
g3564
(lp3918
g3566
(g3567
tp3919
Rp3920
asg3570
I1
sg3571
(lp3921
g3585
asbI1
(tg383
I00
S'\xc5\xa8\xc4\xc8i"\xd7A'
p3922
tp3923
bag3
(g4
(I0
tp3924
g6
tp3925
Rp3926
(g9
(g3560
g11
Ntp3927
Rp3928
(dp3929
g3564
(lp3930
g3566
(g3567
tp3931
Rp3932
asg3570
I1
sg3571
(lp3933
g3585
asbI1
(tg396
I00
S'\xe4J\x98\xec\x07\xac\xd3A'
p3934
tp3935
bag3
(g4
(I0
tp3936
g6
tp3937
Rp3938
(g9
(g3560
g11
Ntp3939
Rp3940
(dp3941
g3564
(lp3942
g3566
(g3567
tp3943
Rp3944
asg3570
I1
sg3571
(lp3945
g3585
asbI1
(tg409
I00
S'\x95\xc6\xbfh\xebs\xe2A'
p3946
tp3947
bag3
(g4
(I0
tp3948
g6
tp3949
Rp3950
(g9
(g3560
g11
Ntp3951
Rp3952
(dp3953
g3564
(lp3954
g3566
(g3567
tp3955
Rp3956
asg3570
I1
sg3571
(lp3957
g3585
asbI1
(tg422
I00
S'\xc8\x86+\nR&\xcaA'
p3958
tp3959
bag3
(g4
(I0
tp3960
g6
tp3961
Rp3962
(g9
(g3560
g11
Ntp3963
Rp3964
(dp3965
g3564
(lp3966
g3566
(g3567
tp3967
Rp3968
asg3570
I1
sg3571
(lp3969
g3585
asbI1
(tg435
I00
S'\xc4k\xf4\xd0\xb9\xc5\xf6A'
p3970
tp3971
bag3
(g4
(I0
tp3972
g6
tp3973
Rp3974
(g9
(g3560
g11
Ntp3975
Rp3976
(dp3977
g3564
(lp3978
g3566
(g3567
tp3979
Rp3980
asg3570
I1
sg3571
(lp3981
g3585
asbI1
(tg448
I00
S'\\U\xfa\xb8\xa0,hA'
p3982
tp3983
bag3
(g4
(I0
tp3984
g6
tp3985
Rp3986
(g9
(g3560
g11
Ntp3987
Rp3988
(dp3989
g3564
(lp3990
g3566
(g3567
tp3991
Rp3992
asg3570
I1
sg3571
(lp3993
g3585
asbI1
(tg461
I00
S'\xb3\xd0\r\xce\xa0\xbciA'
p3994
tp3995
bag3
(g4
(I0
tp3996
g6
tp3997
Rp3998
(g9
(g3560
g11
Ntp3999
Rp4000
(dp4001
g3564
(lp4002
g3566
(g3567
tp4003
Rp4004
asg3570
I1
sg3571
(lp4005
g3585
asbI1
(tg474
I00
S'\x91\xe5\x87\xc0i84B'
p4006
tp4007
bag3
(g4
(I0
tp4008
g6
tp4009
Rp4010
(g9
(g3560
g11
Ntp4011
Rp4012
(dp4013
g3564
(lp4014
g3566
(g3567
tp4015
Rp4016
asg3570
I1
sg3571
(lp4017
g3585
asbI1
(tg487
I00
S'h\xe1\xd2f\xd0\xf5`A'
p4018
tp4019
bag3
(g4
(I0
tp4020
g6
tp4021
Rp4022
(g9
(g3560
g11
Ntp4023
Rp4024
(dp4025
g3564
(lp4026
g3566
(g3567
tp4027
Rp4028
asg3570
I1
sg3571
(lp4029
g3585
asbI1
(tg500
I00
S'\xf2F\x9b\xc1\x15\xf1iA'
p4030
tp4031
bag3
(g4
(I0
tp4032
g6
tp4033
Rp4034
(g9
(g3560
g11
Ntp4035
Rp4036
(dp4037
g3564
(lp4038
g3566
(g3567
tp4039
Rp4040
asg3570
I1
sg3571
(lp4041
g3585
asbI1
(tg513
I00
S'De\xf8\x83M\x84qA'
p4042
tp4043
bag3
(g4
(I0
tp4044
g6
tp4045
Rp4046
(g9
(g3560
g11
Ntp4047
Rp4048
(dp4049
g3564
(lp4050
g3566
(g3567
tp4051
Rp4052
asg3570
I1
sg3571
(lp4053
g3585
asbI1
(tg526
I00
S')\x1a\xe5&\xb8\xfe\xe6A'
p4054
tp4055
bag3
(g4
(I0
tp4056
g6
tp4057
Rp4058
(g9
(g3560
g11
Ntp4059
Rp4060
(dp4061
g3564
(lp4062
g3566
(g3567
tp4063
Rp4064
asg3570
I1
sg3571
(lp4065
g3585
asbI1
(tg539
I00
S'\x99OpPL\x85hA'
p4066
tp4067
bag3
(g4
(I0
tp4068
g6
tp4069
Rp4070
(g9
(g3560
g11
Ntp4071
Rp4072
(dp4073
g3564
(lp4074
g3566
(g3567
tp4075
Rp4076
asg3570
I1
sg3571
(lp4077
g3585
asbI1
(tg552
I00
S'\x95\x05\xb3\xa28\x89\xd1A'
p4078
tp4079
bag3
(g4
(I0
tp4080
g6
tp4081
Rp4082
(g9
(g3560
g11
Ntp4083
Rp4084
(dp4085
g3564
(lp4086
g3566
(g3567
tp4087
Rp4088
asg3570
I1
sg3571
(lp4089
g3585
asbI1
(tg565
I00
S'\xc1\xaf\xff\x17\xca\x04\x9fA'
p4090
tp4091
bag3
(g4
(I0
tp4092
g6
tp4093
Rp4094
(g9
(g3560
g11
Ntp4095
Rp4096
(dp4097
g3564
(lp4098
g3566
(g3567
tp4099
Rp4100
asg3570
I1
sg3571
(lp4101
g3585
asbI1
(tg578
I00
S'\xdc\xd7\xf4nY\x14uA'
p4102
tp4103
bag3
(g4
(I0
tp4104
g6
tp4105
Rp4106
(g9
(g3560
g11
Ntp4107
Rp4108
(dp4109
g3564
(lp4110
g3566
(g3567
tp4111
Rp4112
asg3570
I1
sg3571
(lp4113
g3585
asbI1
(tg591
I00
S'\xcd:\xfb?N\x91\xe1A'
p4114
tp4115
bag3
(g4
(I0
tp4116
g6
tp4117
Rp4118
(g9
(g3560
g11
Ntp4119
Rp4120
(dp4121
g3564
(lp4122
g3566
(g3567
tp4123
Rp4124
asg3570
I1
sg3571
(lp4125
g3585
asbI1
(tg604
I00
S'\xdb\xb7\xb7\xd8@\x15\xd2A'
p4126
tp4127
bag3
(g4
(I0
tp4128
g6
tp4129
Rp4130
(g9
(g3560
g11
Ntp4131
Rp4132
(dp4133
g3564
(lp4134
g3566
(g3567
tp4135
Rp4136
asg3570
I1
sg3571
(lp4137
g3585
asbI1
(tg617
I00
S'\xb2}\xc4\xbcwz\xd6A'
p4138
tp4139
bag3
(g4
(I0
tp4140
g6
tp4141
Rp4142
(g9
(g3560
g11
Ntp4143
Rp4144
(dp4145
g3564
(lp4146
g3566
(g3567
tp4147
Rp4148
asg3570
I1
sg3571
(lp4149
g3585
asbI1
(tg630
I00
S'\x17\xe8\x92\x01\xfe\x14\x07B'
p4150
tp4151
bag3
(g4
(I0
tp4152
g6
tp4153
Rp4154
(g9
(g3560
g11
Ntp4155
Rp4156
(dp4157
g3564
(lp4158
g3566
(g3567
tp4159
Rp4160
asg3570
I1
sg3571
(lp4161
g3585
asbI1
(tg643
I00
S'p\x94\x17\x89\xb09sA'
p4162
tp4163
bag3
(g4
(I0
tp4164
g6
tp4165
Rp4166
(g9
(g3560
g11
Ntp4167
Rp4168
(dp4169
g3564
(lp4170
g3566
(g3567
tp4171
Rp4172
asg3570
I1
sg3571
(lp4173
g3585
asbI1
(tg656
I00
S'\x19\x90\xdePw\xd1\xf4A'
p4174
tp4175
bag3
(g4
(I0
tp4176
g6
tp4177
Rp4178
(g9
(g3560
g11
Ntp4179
Rp4180
(dp4181
g3564
(lp4182
g3566
(g3567
tp4183
Rp4184
asg3570
I1
sg3571
(lp4185
g3585
asbI1
(tg669
I00
S'\xe4\x9ax@\xe5\x07lA'
p4186
tp4187
bag3
(g4
(I0
tp4188
g6
tp4189
Rp4190
(g9
(g3560
g11
Ntp4191
Rp4192
(dp4193
g3564
(lp4194
g3566
(g3567
tp4195
Rp4196
asg3570
I1
sg3571
(lp4197
g3585
asbI1
(tg682
I00
S'\xdfd\x00jn\x06rA'
p4198
tp4199
bag3
(g4
(I0
tp4200
g6
tp4201
Rp4202
(g9
(g3560
g11
Ntp4203
Rp4204
(dp4205
g3564
(lp4206
g3566
(g3567
tp4207
Rp4208
asg3570
I1
sg3571
(lp4209
g3585
asbI1
(tg695
I00
S'\xddq\x81\xd2+\x18\xe0@'
p4210
tp4211
bag3
(g4
(I0
tp4212
g6
tp4213
Rp4214
(g9
(g3560
g11
Ntp4215
Rp4216
(dp4217
g3564
(lp4218
g3566
(g3567
tp4219
Rp4220
asg3570
I1
sg3571
(lp4221
g3585
asbI1
(tg708
I00
S'\x9ai+K\xb6\t\x87A'
p4222
tp4223
bag3
(g4
(I0
tp4224
g6
tp4225
Rp4226
(g9
(g3560
g11
Ntp4227
Rp4228
(dp4229
g3564
(lp4230
g3566
(g3567
tp4231
Rp4232
asg3570
I1
sg3571
(lp4233
g3585
asbI1
(tg721
I00
S'#\xbb\x15\x99\xa6\x05\x8eA'
p4234
tp4235
bag3
(g4
(I0
tp4236
g6
tp4237
Rp4238
(g9
(g3560
g11
Ntp4239
Rp4240
(dp4241
g3564
(lp4242
g3566
(g3567
tp4243
Rp4244
asg3570
I1
sg3571
(lp4245
g3585
asbI1
(tg734
I00
S'!U\x19P\xfc\x16\xdcA'
p4246
tp4247
bag3
(g4
(I0
tp4248
g6
tp4249
Rp4250
(g9
(g3560
g11
Ntp4251
Rp4252
(dp4253
g3564
(lp4254
g3566
(g3567
tp4255
Rp4256
asg3570
I1
sg3571
(lp4257
g3585
asbI1
(tg747
I00
S'\xa5h\x84W\xba\x9e\x80A'
p4258
tp4259
bag3
(g4
(I0
tp4260
g6
tp4261
Rp4262
(g9
(g3560
g11
Ntp4263
Rp4264
(dp4265
g3564
(lp4266
g3566
(g3567
tp4267
Rp4268
asg3570
I1
sg3571
(lp4269
g3585
asbI1
(tg760
I00
S'\x88\x86\xa4\x0bPy\xfd@'
p4270
tp4271
bag3
(g4
(I0
tp4272
g6
tp4273
Rp4274
(g9
(g3560
g11
Ntp4275
Rp4276
(dp4277
g3564
(lp4278
g3566
(g3567
tp4279
Rp4280
asg3570
I1
sg3571
(lp4281
g3585
asbI1
(tg773
I00
S'\x1e+\xcb\xaaW\xe0\x85A'
p4282
tp4283
bag3
(g4
(I0
tp4284
g6
tp4285
Rp4286
(g9
(g3560
g11
Ntp4287
Rp4288
(dp4289
g3564
(lp4290
g3566
(g3567
tp4291
Rp4292
asg3570
I1
sg3571
(lp4293
g3585
asbI1
(tg786
I00
S'\xd4\xe6yJ\x9fQ\xfbA'
p4294
tp4295
bag3
(g4
(I0
tp4296
g6
tp4297
Rp4298
(g9
(g3560
g11
Ntp4299
Rp4300
(dp4301
g3564
(lp4302
g3566
(g3567
tp4303
Rp4304
asg3570
I1
sg3571
(lp4305
g3585
asbI1
(tg799
I00
S'\xb0\t\x85j6M\x80A'
p4306
tp4307
bag3
(g4
(I0
tp4308
g6
tp4309
Rp4310
(g9
(g3560
g11
Ntp4311
Rp4312
(dp4313
g3564
(lp4314
g3566
(g3567
tp4315
Rp4316
asg3570
I1
sg3571
(lp4317
g3585
asbI1
(tg812
I00
S'x\xe8\xe4\xd6\x88\xbb\xe5@'
p4318
tp4319
bag3
(g4
(I0
tp4320
g6
tp4321
Rp4322
(g9
(g3560
g11
Ntp4323
Rp4324
(dp4325
g3564
(lp4326
g3566
(g3567
tp4327
Rp4328
asg3570
I1
sg3571
(lp4329
g3585
asbI1
(tg825
I00
S'I\xd3\xfeo\x98_\xf0A'
p4330
tp4331
bag3
(g4
(I0
tp4332
g6
tp4333
Rp4334
(g9
(g3560
g11
Ntp4335
Rp4336
(dp4337
g3564
(lp4338
g3566
(g3567
tp4339
Rp4340
asg3570
I1
sg3571
(lp4341
g3585
asbI1
(tg838
I00
S'\x9f\x03\xbb\x07\x96\xc6\xe9A'
p4342
tp4343
bag3
(g4
(I0
tp4344
g6
tp4345
Rp4346
(g9
(g3560
g11
Ntp4347
Rp4348
(dp4349
g3564
(lp4350
g3566
(g3567
tp4351
Rp4352
asg3570
I1
sg3571
(lp4353
g3585
asbI1
(tg851
I00
S'8\x9be~\xd0\xb5&A'
p4354
tp4355
bag3
(g4
(I0
tp4356
g6
tp4357
Rp4358
(g9
(g3560
g11
Ntp4359
Rp4360
(dp4361
g3564
(lp4362
g3566
(g3567
tp4363
Rp4364
asg3570
I1
sg3571
(lp4365
g3585
asbI1
(tg864
I00
S'\xc9Q\xde\xb9\xd4\x1c\x0eB'
p4366
tp4367
bag3
(g4
(I0
tp4368
g6
tp4369
Rp4370
(g9
(g3560
g11
Ntp4371
Rp4372
(dp4373
g3564
(lp4374
g3566
(g3567
tp4375
Rp4376
asg3570
I1
sg3571
(lp4377
g3585
asbI1
(tg877
I00
S'lB\x01H\xc6C\xabA'
p4378
tp4379
bag3
(g4
(I0
tp4380
g6
tp4381
Rp4382
(g9
(g3560
g11
Ntp4383
Rp4384
(dp4385
g3564
(lp4386
g3566
(g3567
tp4387
Rp4388
asg3570
I1
sg3571
(lp4389
g3585
asbI1
(tg890
I00
S'\xc0\xcaq}\xf7\x06\x02A'
p4390
tp4391
bag3
(g4
(I0
tp4392
g6
tp4393
Rp4394
(g9
(g3560
g11
Ntp4395
Rp4396
(dp4397
g3564
(lp4398
g3566
(g3567
tp4399
Rp4400
asg3570
I1
sg3571
(lp4401
g3585
asbI1
(tg903
I00
S'],\xe7\xa2r\x11\xf1A'
p4402
tp4403
bag3
(g4
(I0
tp4404
g6
tp4405
Rp4406
(g9
(g3560
g11
Ntp4407
Rp4408
(dp4409
g3564
(lp4410
g3566
(g3567
tp4411
Rp4412
asg3570
I1
sg3571
(lp4413
g3585
asbI1
(tg916
I00
S'f\xdb#\x16];\rB'
p4414
tp4415
bag3
(g4
(I0
tp4416
g6
tp4417
Rp4418
(g9
(g3560
g11
Ntp4419
Rp4420
(dp4421
g3564
(lp4422
g3566
(g3567
tp4423
Rp4424
asg3570
I1
sg3571
(lp4425
g3585
asbI1
(tg929
I00
S';t\x11\xf0j[\x1aB'
p4426
tp4427
bag3
(g4
(I0
tp4428
g6
tp4429
Rp4430
(g9
(g3560
g11
Ntp4431
Rp4432
(dp4433
g3564
(lp4434
g3566
(g3567
tp4435
Rp4436
asg3570
I1
sg3571
(lp4437
g3585
asbI1
(tg942
I00
S'\x8b\xc2\x95d\xb3\xb5\x08B'
p4438
tp4439
bag3
(g4
(I0
tp4440
g6
tp4441
Rp4442
(g9
(g3560
g11
Ntp4443
Rp4444
(dp4445
g3564
(lp4446
g3566
(g3567
tp4447
Rp4448
asg3570
I1
sg3571
(lp4449
g3585
asbI1
(tg955
I00
S'\xbcl\xf4\x10\xf7\x0e\x19B'
p4450
tp4451
bag3
(g4
(I0
tp4452
g6
tp4453
Rp4454
(g9
(g3560
g11
Ntp4455
Rp4456
(dp4457
g3564
(lp4458
g3566
(g3567
tp4459
Rp4460
asg3570
I1
sg3571
(lp4461
g3585
asbI1
(tg968
I00
S'[\xb1\xcb\x0fZ\xd2\x15B'
p4462
tp4463
bag3
(g4
(I0
tp4464
g6
tp4465
Rp4466
(g9
(g3560
g11
Ntp4467
Rp4468
(dp4469
g3564
(lp4470
g3566
(g3567
tp4471
Rp4472
asg3570
I1
sg3571
(lp4473
g3585
asbI1
(tg981
I00
S'F7 \x9bK\xd1\xa1A'
p4474
tp4475
bag3
(g4
(I0
tp4476
g6
tp4477
Rp4478
(g9
(g3560
g11
Ntp4479
Rp4480
(dp4481
g3564
(lp4482
g3566
(g3567
tp4483
Rp4484
asg3570
I1
sg3571
(lp4485
g3585
asbI1
(tg994
I00
S'T\xd5\xb0i\x1eh\xd8@'
p4486
tp4487
bag3
(g4
(I0
tp4488
g6
tp4489
Rp4490
(g9
(g3560
g11
Ntp4491
Rp4492
(dp4493
g3564
(lp4494
g3566
(g3567
tp4495
Rp4496
asg3570
I1
sg3571
(lp4497
g3585
asbI1
(tg1007
I00
S'\x15\xc4<\x10\xc1\x90\x98A'
p4498
tp4499
bag3
(g4
(I0
tp4500
g6
tp4501
Rp4502
(g9
(g3560
g11
Ntp4503
Rp4504
(dp4505
g3564
(lp4506
g3566
(g3567
tp4507
Rp4508
asg3570
I1
sg3571
(lp4509
g3585
asbI1
(tg1020
I00
S'Z\x14Y\xa9B\xb8\xe0@'
p4510
tp4511
bag3
(g4
(I0
tp4512
g6
tp4513
Rp4514
(g9
(g3560
g11
Ntp4515
Rp4516
(dp4517
g3564
(lp4518
g3566
(g3567
tp4519
Rp4520
asg3570
I1
sg3571
(lp4521
g3585
asbI1
(tg1033
I00
S"\x98k\xdbm'\x10\x0bA"
p4522
tp4523
bag3
(g4
(I0
tp4524
g6
tp4525
Rp4526
(g9
(g3560
g11
Ntp4527
Rp4528
(dp4529
g3564
(lp4530
g3566
(g3567
tp4531
Rp4532
asg3570
I1
sg3571
(lp4533
g3585
asbI1
(tg1046
I00
S'\x82\x16\x9a\xfa\x18\x1f\x19A'
p4534
tp4535
bag3
(g4
(I0
tp4536
g6
tp4537
Rp4538
(g9
(g3560
g11
Ntp4539
Rp4540
(dp4541
g3564
(lp4542
g3566
(g3567
tp4543
Rp4544
asg3570
I1
sg3571
(lp4545
g3585
asbI1
(tg1059
I00
S'\x0e\x82L\x87\xc14\x04A'
p4546
tp4547
bag3
(g4
(I0
tp4548
g6
tp4549
Rp4550
(g9
(g3560
g11
Ntp4551
Rp4552
(dp4553
g3564
(lp4554
g3566
(g3567
tp4555
Rp4556
asg3570
I1
sg3571
(lp4557
g3585
asbI1
(tg1072
I00
S'A\xfd\xbe\xf8\xee|\xddA'
p4558
tp4559
bag3
(g4
(I0
tp4560
g6
tp4561
Rp4562
(g9
(g3560
g11
Ntp4563
Rp4564
(dp4565
g3564
(lp4566
g3566
(g3567
tp4567
Rp4568
asg3570
I1
sg3571
(lp4569
g3585
asbI1
(tg1085
I00
S'\x82rU\xee\x8e\xa3\xf6A'
p4570
tp4571
bag3
(g4
(I0
tp4572
g6
tp4573
Rp4574
(g9
(g3560
g11
Ntp4575
Rp4576
(dp4577
g3564
(lp4578
g3566
(g3567
tp4579
Rp4580
asg3570
I1
sg3571
(lp4581
g3585
asbI1
(tg1098
I00
S'\x96\xeadP-\xbf\x1dA'
p4582
tp4583
bag3
(g4
(I0
tp4584
g6
tp4585
Rp4586
(g9
(g3560
g11
Ntp4587
Rp4588
(dp4589
g3564
(lp4590
g3566
(g3567
tp4591
Rp4592
asg3570
I1
sg3571
(lp4593
g3585
asbI1
(tg1111
I00
S'P\x1d|\x88K\xf0\xd6@'
p4594
tp4595
bag3
(g4
(I0
tp4596
g6
tp4597
Rp4598
(g9
(g3560
g11
Ntp4599
Rp4600
(dp4601
g3564
(lp4602
g3566
(g3567
tp4603
Rp4604
asg3570
I1
sg3571
(lp4605
g3585
asbI1
(tg1124
I00
S'`\\\xeb\x99"|zA'
p4606
tp4607
bag3
(g4
(I0
tp4608
g6
tp4609
Rp4610
(g9
(g3560
g11
Ntp4611
Rp4612
(dp4613
g3564
(lp4614
g3566
(g3567
tp4615
Rp4616
asg3570
I1
sg3571
(lp4617
g3585
asbI1
(tg1137
I00
S'\xe4\xf4i \xe4o\x97A'
p4618
tp4619
bag3
(g4
(I0
tp4620
g6
tp4621
Rp4622
(g9
(g3560
g11
Ntp4623
Rp4624
(dp4625
g3564
(lp4626
g3566
(g3567
tp4627
Rp4628
asg3570
I1
sg3571
(lp4629
g3585
asbI1
(tg1150
I00
S'\xc2\xc7K\x90\x9fR\xa1A'
p4630
tp4631
bag3
(g4
(I0
tp4632
g6
tp4633
Rp4634
(g9
(g3560
g11
Ntp4635
Rp4636
(dp4637
g3564
(lp4638
g3566
(g3567
tp4639
Rp4640
asg3570
I1
sg3571
(lp4641
g3585
asbI1
(tg1163
I00
S'\xda\xe8\xa5#a\xdb\x96A'
p4642
tp4643
bag3
(g4
(I0
tp4644
g6
tp4645
Rp4646
(g9
(g3560
g11
Ntp4647
Rp4648
(dp4649
g3564
(lp4650
g3566
(g3567
tp4651
Rp4652
asg3570
I1
sg3571
(lp4653
g3585
asbI1
(tg1176
I00
S'\x7f\xfb\x18\x13|x\x9fA'
p4654
tp4655
bag3
(g4
(I0
tp4656
g6
tp4657
Rp4658
(g9
(g3560
g11
Ntp4659
Rp4660
(dp4661
g3564
(lp4662
g3566
(g3567
tp4663
Rp4664
asg3570
I1
sg3571
(lp4665
g3585
asbI1
(tg1189
I00
S'x\xe2\x9a\xedf`\xfeA'
p4666
tp4667
bag3
(g4
(I0
tp4668
g6
tp4669
Rp4670
(g9
(g3560
g11
Ntp4671
Rp4672
(dp4673
g3564
(lp4674
g3566
(g3567
tp4675
Rp4676
asg3570
I1
sg3571
(lp4677
g3585
asbI1
(tg1202
I00
S'\xf6\x01\nW\x06\xa7\x04B'
p4678
tp4679
bag3
(g4
(I0
tp4680
g6
tp4681
Rp4682
(g9
(g3560
g11
Ntp4683
Rp4684
(dp4685
g3564
(lp4686
g3566
(g3567
tp4687
Rp4688
asg3570
I1
sg3571
(lp4689
g3585
asbI1
(tg1215
I00
S'\x0e\xd6\x8c\x07FU\x19A'
p4690
tp4691
basS'zstar3'
p4692
(lp4693
g3
(g4
(I0
tp4694
g6
tp4695
Rp4696
(g13
I1
(tg19
I00
S'\x11a\x7f\x85\xd9\x88S?'
p4697
tp4698
bag3
(g4
(I0
tp4699
g6
tp4700
Rp4701
(g28
I1
(tg32
I00
S'\x80\x95RS\x84\xa4b?'
p4702
tp4703
bag3
(g4
(I0
tp4704
g6
tp4705
Rp4706
(g41
I1
(tg45
I00
S"-\xc6\xdbh\xb2\x8f'?"
p4707
tp4708
bag3
(g4
(I0
tp4709
g6
tp4710
Rp4711
(g54
I1
(tg58
I00
S'\xa2\xd9\x93s\xa9\x00\x9b?'
p4712
tp4713
bag3
(g4
(I0
tp4714
g6
tp4715
Rp4716
(g67
I1
(tg71
I00
S'\x8f\x9f<\xcf/54?'
p4717
tp4718
bag3
(g4
(I0
tp4719
g6
tp4720
Rp4721
(g80
I1
(tg84
I00
S'%\xbc3E<,/?'
p4722
tp4723
bag3
(g4
(I0
tp4724
g6
tp4725
Rp4726
(g93
I1
(tg97
I00
S'\x08\xeb)\xb7Nqu?'
p4727
tp4728
bag3
(g4
(I0
tp4729
g6
tp4730
Rp4731
(g106
I1
(tg110
I00
S'T\xef\xb0]\x88w4?'
p4732
tp4733
bag3
(g4
(I0
tp4734
g6
tp4735
Rp4736
(g119
I1
(tg123
I00
S'\x08\xcd\xb2\x04\x0e\x897?'
p4737
tp4738
bag3
(g4
(I0
tp4739
g6
tp4740
Rp4741
(g132
I1
(tg136
I00
S'\xdd~\x0e,\x93\xd00?'
p4742
tp4743
bag3
(g4
(I0
tp4744
g6
tp4745
Rp4746
(g145
I1
(tg149
I00
S'\x0b\xd4\x7fG\x166[?'
p4747
tp4748
bag3
(g4
(I0
tp4749
g6
tp4750
Rp4751
(g158
I1
(tg162
I00
S'5\xa2\xc4H\xe5T4?'
p4752
tp4753
bag3
(g4
(I0
tp4754
g6
tp4755
Rp4756
(g171
I1
(tg175
I00
S'-|$.\x1f\x94`?'
p4757
tp4758
bag3
(g4
(I0
tp4759
g6
tp4760
Rp4761
(g184
I1
(tg188
I00
S'\xdb1\x1b\xf5\x0ffY?'
p4762
tp4763
bag3
(g4
(I0
tp4764
g6
tp4765
Rp4766
(g197
I1
(tg201
I00
S'\xd3\r\xd7S\xf0\xf3J?'
p4767
tp4768
bag3
(g4
(I0
tp4769
g6
tp4770
Rp4771
(g210
I1
(tg214
I00
S'+I_u\xf0A\x99?'
p4772
tp4773
bag3
(g4
(I0
tp4774
g6
tp4775
Rp4776
(g223
I1
(tg227
I00
S'f\x15ql\x8b74?'
p4777
tp4778
bag3
(g4
(I0
tp4779
g6
tp4780
Rp4781
(g236
I1
(tg240
I00
S'\xd5\x99\x01\x96\x88\xf21?'
p4782
tp4783
bag3
(g4
(I0
tp4784
g6
tp4785
Rp4786
(g249
I1
(tg253
I00
S'-K\xd3\x86\xb3\x833?'
p4787
tp4788
bag3
(g4
(I0
tp4789
g6
tp4790
Rp4791
(g262
I1
(tg266
I00
S'\xfc\xe9\xc30mE3?'
p4792
tp4793
bag3
(g4
(I0
tp4794
g6
tp4795
Rp4796
(g275
I1
(tg279
I00
S'|\x9d~\xd3\xd2\x90\x9a?'
p4797
tp4798
bag3
(g4
(I0
tp4799
g6
tp4800
Rp4801
(g288
I1
(tg292
I00
S'\xa8\x0e\xe0\xa4\xe4_4?'
p4802
tp4803
bag3
(g4
(I0
tp4804
g6
tp4805
Rp4806
(g301
I1
(tg305
I00
S'`\x9d"h\x05\xe2\x80?'
p4807
tp4808
bag3
(g4
(I0
tp4809
g6
tp4810
Rp4811
(g314
I1
(tg318
I00
S'\xe5\xaf6\xa5^:3?'
p4812
tp4813
bag3
(g4
(I0
tp4814
g6
tp4815
Rp4816
(g327
I1
(tg331
I00
S't\x18\xc9\xfa}&`?'
p4817
tp4818
bag3
(g4
(I0
tp4819
g6
tp4820
Rp4821
(g340
I1
(tg344
I00
S'\xf3\xd7!(\x00\xe66?'
p4822
tp4823
bag3
(g4
(I0
tp4824
g6
tp4825
Rp4826
(g353
I1
(tg357
I00
S'i]\x88\xbc\xc5\xa96?'
p4827
tp4828
bag3
(g4
(I0
tp4829
g6
tp4830
Rp4831
(g366
I1
(tg370
I00
S'\xcaV\\4\xd0\r2?'
p4832
tp4833
bag3
(g4
(I0
tp4834
g6
tp4835
Rp4836
(g379
I1
(tg383
I00
S'\x06\x89k9\x9fw\x7f?'
p4837
tp4838
bag3
(g4
(I0
tp4839
g6
tp4840
Rp4841
(g392
I1
(tg396
I00
S'\xe8\x98\x1f\x18\\#u?'
p4842
tp4843
bag3
(g4
(I0
tp4844
g6
tp4845
Rp4846
(g405
I1
(tg409
I00
S'\x1c,\xa0\xf4\xf5\xc7\x81?'
p4847
tp4848
bag3
(g4
(I0
tp4849
g6
tp4850
Rp4851
(g418
I1
(tg422
I00
S'V\xc5\xae$\xb9\x8dn?'
p4852
tp4853
bag3
(g4
(I0
tp4854
g6
tp4855
Rp4856
(g431
I1
(tg435
I00
S'\xec\x99[\xc0.f\x90?'
p4857
tp4858
bag3
(g4
(I0
tp4859
g6
tp4860
Rp4861
(g444
I1
(tg448
I00
S'\xc8\xf2k\x11J\xe2D?'
p4862
tp4863
bag3
(g4
(I0
tp4864
g6
tp4865
Rp4866
(g457
I1
(tg461
I00
S'\xef\xfd\xc5\xc5\xdd\xb23?'
p4867
tp4868
bag3
(g4
(I0
tp4869
g6
tp4870
Rp4871
(g470
I1
(tg474
I00
S'`\xc3:Hf\x88\x9a?'
p4872
tp4873
bag3
(g4
(I0
tp4874
g6
tp4875
Rp4876
(g483
I1
(tg487
I00
S'\\e\xfe\x86\xc0AA?'
p4877
tp4878
bag3
(g4
(I0
tp4879
g6
tp4880
Rp4881
(g496
I1
(tg500
I00
S'\x8c\n\xd0\xce\xb1\x16=?'
p4882
tp4883
bag3
(g4
(I0
tp4884
g6
tp4885
Rp4886
(g509
I1
(tg513
I00
S'\xe3\xd8\x9c\xb0\x90\xfcD?'
p4887
tp4888
bag3
(g4
(I0
tp4889
g6
tp4890
Rp4891
(g522
I1
(tg526
I00
S'\xe9\xb0\xe6Y(\x8e\x83?'
p4892
tp4893
bag3
(g4
(I0
tp4894
g6
tp4895
Rp4896
(g535
I1
(tg539
I00
S'J\xe2\xcc\x8e\xc5\xe5A?'
p4897
tp4898
bag3
(g4
(I0
tp4899
g6
tp4900
Rp4901
(g548
I1
(tg552
I00
S'\xdd8\x94\xa8\xc5_q?'
p4902
tp4903
bag3
(g4
(I0
tp4904
g6
tp4905
Rp4906
(g561
I1
(tg565
I00
S'\xd3\x84\x1bai\xccR?'
p4907
tp4908
bag3
(g4
(I0
tp4909
g6
tp4910
Rp4911
(g574
I1
(tg578
I00
S'\xb9\x08\x9c\xc8\x8a,=?'
p4912
tp4913
bag3
(g4
(I0
tp4914
g6
tp4915
Rp4916
(g587
I1
(tg591
I00
S'\xef\xc4\xc6\n\x86\xc3r?'
p4917
tp4918
bag3
(g4
(I0
tp4919
g6
tp4920
Rp4921
(g600
I1
(tg604
I00
S'\xd1\xf1r\t\xaa\x0ch?'
p4922
tp4923
bag3
(g4
(I0
tp4924
g6
tp4925
Rp4926
(g613
I1
(tg617
I00
S'\x80\xd9cLL\xb5p?'
p4927
tp4928
bag3
(g4
(I0
tp4929
g6
tp4930
Rp4931
(g626
I1
(tg630
I00
S'j\xdeT\x9c\xd7\x9d\x95?'
p4932
tp4933
bag3
(g4
(I0
tp4934
g6
tp4935
Rp4936
(g639
I1
(tg643
I00
S'\x80\x05~]`\xcdA?'
p4937
tp4938
bag3
(g4
(I0
tp4939
g6
tp4940
Rp4941
(g652
I1
(tg656
I00
S':d\xb0|\xdc\x96\x8d?'
p4942
tp4943
bag3
(g4
(I0
tp4944
g6
tp4945
Rp4946
(g665
I1
(tg669
I00
S'\t2O\xc9\xf8\x158?'
p4947
tp4948
bag3
(g4
(I0
tp4949
g6
tp4950
Rp4951
(g678
I1
(tg682
I00
S'\x8e\x1b \x8ai59?'
p4952
tp4953
bag3
(g4
(I0
tp4954
g6
tp4955
Rp4956
(g691
I1
(tg695
I00
S':\xf3/]\xc3d\x1c?'
p4957
tp4958
bag3
(g4
(I0
tp4959
g6
tp4960
Rp4961
(g704
I1
(tg708
I00
S'\xedv\xb4\xf6\xfc\xbbB?'
p4962
tp4963
bag3
(g4
(I0
tp4964
g6
tp4965
Rp4966
(g717
I1
(tg721
I00
S'\xdd\x19e\x8c\xb8qC?'
p4967
tp4968
bag3
(g4
(I0
tp4969
g6
tp4970
Rp4971
(g730
I1
(tg734
I00
S'A\x93\xe5\xef\xe6,p?'
p4972
tp4973
bag3
(g4
(I0
tp4974
g6
tp4975
Rp4976
(g743
I1
(tg747
I00
S'7\x96\xbc\x83D_I?'
p4977
tp4978
bag3
(g4
(I0
tp4979
g6
tp4980
Rp4981
(g756
I1
(tg760
I00
S'\x8d\x12\xfd\x8d8\xb8-?'
p4982
tp4983
bag3
(g4
(I0
tp4984
g6
tp4985
Rp4986
(g769
I1
(tg773
I00
S'\x86\xdbb\xb6\x02/I?'
p4987
tp4988
bag3
(g4
(I0
tp4989
g6
tp4990
Rp4991
(g782
I1
(tg786
I00
S'\x01\xb5\x9f\xa5\xf6\xba\x8c?'
p4992
tp4993
bag3
(g4
(I0
tp4994
g6
tp4995
Rp4996
(g795
I1
(tg799
I00
S'hH\x82\x0e\xab.G?'
p4997
tp4998
bag3
(g4
(I0
tp4999
g6
tp5000
Rp5001
(g808
I1
(tg812
I00
S'\x94I\xac\x10<\xa5\x1a?'
p5002
tp5003
bag3
(g4
(I0
tp5004
g6
tp5005
Rp5006
(g821
I1
(tg825
I00
S'\xeb\x87\xdb=1\x03\x8f?'
p5007
tp5008
bag3
(g4
(I0
tp5009
g6
tp5010
Rp5011
(g834
I1
(tg838
I00
S'\xa2\xda\xf7\xfa\x80\x0bt?'
p5012
tp5013
bag3
(g4
(I0
tp5014
g6
tp5015
Rp5016
(g847
I1
(tg851
I00
S'\xf9dO\xe7\xa6 3?'
p5017
tp5018
bag3
(g4
(I0
tp5019
g6
tp5020
Rp5021
(g860
I1
(tg864
I00
S'\xff0\xcd\xae\x91.\x93?'
p5022
tp5023
bag3
(g4
(I0
tp5024
g6
tp5025
Rp5026
(g873
I1
(tg877
I00
S'"\x95\xd9,|\x17m?'
p5027
tp5028
bag3
(g4
(I0
tp5029
g6
tp5030
Rp5031
(g886
I1
(tg890
I00
S'%\x92Pf\xd7N0?'
p5032
tp5033
bag3
(g4
(I0
tp5034
g6
tp5035
Rp5036
(g899
I1
(tg903
I00
S'\x8fT\x9dIt\xa2u?'
p5037
tp5038
bag3
(g4
(I0
tp5039
g6
tp5040
Rp5041
(g912
I1
(tg916
I00
S'l\xa6\xa4j\x80\x08\x92?'
p5042
tp5043
bag3
(g4
(I0
tp5044
g6
tp5045
Rp5046
(g925
I1
(tg929
I00
S'*\xb2\xc83\x06\xee\x97?'
p5047
tp5048
bag3
(g4
(I0
tp5049
g6
tp5050
Rp5051
(g938
I1
(tg942
I00
S'\x88A\x8c\xa57^\x95?'
p5052
tp5053
bag3
(g4
(I0
tp5054
g6
tp5055
Rp5056
(g951
I1
(tg955
I00
S'\xa7q\xe0\xafS%\x99?'
p5057
tp5058
bag3
(g4
(I0
tp5059
g6
tp5060
Rp5061
(g964
I1
(tg968
I00
S't\xe5\x83\r0]\x96?'
p5062
tp5063
bag3
(g4
(I0
tp5064
g6
tp5065
Rp5066
(g977
I1
(tg981
I00
S'\xf4]\xde27\xadU?'
p5067
tp5068
bag3
(g4
(I0
tp5069
g6
tp5070
Rp5071
(g990
I1
(tg994
I00
S'\xb8F\xc4\xe4T\xb2\x1c?'
p5072
tp5073
bag3
(g4
(I0
tp5074
g6
tp5075
Rp5076
(g1003
I1
(tg1007
I00
S'\xbc\x92u\xa8.)K?'
p5077
tp5078
bag3
(g4
(I0
tp5079
g6
tp5080
Rp5081
(g1016
I1
(tg1020
I00
S'\x14/\xbcp?\x08\x1b?'
p5082
tp5083
bag3
(g4
(I0
tp5084
g6
tp5085
Rp5086
(g1029
I1
(tg1033
I00
S'\xdb-\x98vV\xa4#?'
p5087
tp5088
bag3
(g4
(I0
tp5089
g6
tp5090
Rp5091
(g1042
I1
(tg1046
I00
S'\xc3|\xf9S4\xef0?'
p5092
tp5093
bag3
(g4
(I0
tp5094
g6
tp5095
Rp5096
(g1055
I1
(tg1059
I00
S'\xf8\x1f\x89\xe5H\xdd\x1b?'
p5097
tp5098
bag3
(g4
(I0
tp5099
g6
tp5100
Rp5101
(g1068
I1
(tg1072
I00
S'\xdck\xf1\xde\xd4\xdcr?'
p5102
tp5103
bag3
(g4
(I0
tp5104
g6
tp5105
Rp5106
(g1081
I1
(tg1085
I00
S'\x10j\x9c\x14\\\x81\x8a?'
p5107
tp5108
bag3
(g4
(I0
tp5109
g6
tp5110
Rp5111
(g1094
I1
(tg1098
I00
S'\x8b\xad.R\xf2\x96.?'
p5112
tp5113
bag3
(g4
(I0
tp5114
g6
tp5115
Rp5116
(g1107
I1
(tg1111
I00
S'-C\x1c\xeb\xe26\x1a?'
p5117
tp5118
bag3
(g4
(I0
tp5119
g6
tp5120
Rp5121
(g1120
I1
(tg1124
I00
S'\xc6\xb5\xde\xda\x903H?'
p5122
tp5123
bag3
(g4
(I0
tp5124
g6
tp5125
Rp5126
(g1133
I1
(tg1137
I00
S'\x04K\xa7\x17[\xbfG?'
p5127
tp5128
bag3
(g4
(I0
tp5129
g6
tp5130
Rp5131
(g1146
I1
(tg1150
I00
S'J\xf1\xf0\x7f:\xb0U?'
p5132
tp5133
bag3
(g4
(I0
tp5134
g6
tp5135
Rp5136
(g1159
I1
(tg1163
I00
S"&\xd2T'UER?"
p5137
tp5138
bag3
(g4
(I0
tp5139
g6
tp5140
Rp5141
(g1172
I1
(tg1176
I00
S'\xe7\xf0\xef\xa0\x87\x9cS?'
p5142
tp5143
bag3
(g4
(I0
tp5144
g6
tp5145
Rp5146
(g1185
I1
(tg1189
I00
S'\x98\xbb\x80\xe2Ma\x8a?'
p5147
tp5148
bag3
(g4
(I0
tp5149
g6
tp5150
Rp5151
(g1198
I1
(tg1202
I00
S'\xd4\xa4\xd5\xefo*\x8e?'
p5152
tp5153
bag3
(g4
(I0
tp5154
g6
tp5155
Rp5156
(g1211
I1
(tg1215
I00
S'\x1b\xde\xd6\x17\xa8\x1e,?'
p5157
tp5158
basS'zstar4'
p5159
(lp5160
g3
(g4
(I0
tp5161
g6
tp5162
Rp5163
(g13
I1
(tg19
I00
S'h/\xaf\xf1|\xc6U?'
p5164
tp5165
bag3
(g4
(I0
tp5166
g6
tp5167
Rp5168
(g28
I1
(tg32
I00
S'b\x1bg\xaay/c?'
p5169
tp5170
bag3
(g4
(I0
tp5171
g6
tp5172
Rp5173
(g41
I1
(tg45
I00
S"\xd8\xbf\x85\xda\xa0\x86'?"
p5174
tp5175
bag3
(g4
(I0
tp5176
g6
tp5177
Rp5178
(g54
I1
(tg58
I00
S'\x81\xea\xe6d\xeb\x1a\x9a?'
p5179
tp5180
bag3
(g4
(I0
tp5181
g6
tp5182
Rp5183
(g67
I1
(tg71
I00
S'\xd8\xd4\x99>\xd3@3?'
p5184
tp5185
bag3
(g4
(I0
tp5186
g6
tp5187
Rp5188
(g80
I1
(tg84
I00
S'\x91W\x85\xe7\x80\xca+?'
p5189
tp5190
bag3
(g4
(I0
tp5191
g6
tp5192
Rp5193
(g93
I1
(tg97
I00
S"K\xa6K'\x06ov?"
p5194
tp5195
bag3
(g4
(I0
tp5196
g6
tp5197
Rp5198
(g106
I1
(tg110
I00
S'\xde\x0c)\xa1\x12k4?'
p5199
tp5200
bag3
(g4
(I0
tp5201
g6
tp5202
Rp5203
(g119
I1
(tg123
I00
S'\xb1\x86\xd2y\xaf\x137?'
p5204
tp5205
bag3
(g4
(I0
tp5206
g6
tp5207
Rp5208
(g132
I1
(tg136
I00
S'\x9b\xde\xea\xcd\t\xd20?'
p5209
tp5210
bag3
(g4
(I0
tp5211
g6
tp5212
Rp5213
(g145
I1
(tg149
I00
S'\x0b\x96\xc1Y\xfe\xc0\\?'
p5214
tp5215
bag3
(g4
(I0
tp5216
g6
tp5217
Rp5218
(g158
I1
(tg162
I00
S'd\xf7\xbc\xee\xc4|3?'
p5219
tp5220
bag3
(g4
(I0
tp5221
g6
tp5222
Rp5223
(g171
I1
(tg175
I00
S'h\xd0\x9aU*@b?'
p5224
tp5225
bag3
(g4
(I0
tp5226
g6
tp5227
Rp5228
(g184
I1
(tg188
I00
S'6\x88\xef\x90v\xe1Z?'
p5229
tp5230
bag3
(g4
(I0
tp5231
g6
tp5232
Rp5233
(g197
I1
(tg201
I00
S':\xe1:\xf7\xe8\x8dN?'
p5234
tp5235
bag3
(g4
(I0
tp5236
g6
tp5237
Rp5238
(g210
I1
(tg214
I00
S'g\xba\xa9\xed\xbar\x99?'
p5239
tp5240
bag3
(g4
(I0
tp5241
g6
tp5242
Rp5243
(g223
I1
(tg227
I00
S'\xb7\xf3\xd0\x87\xd4<4?'
p5244
tp5245
bag3
(g4
(I0
tp5246
g6
tp5247
Rp5248
(g236
I1
(tg240
I00
S'_sN-\xb7\xd81?'
p5249
tp5250
bag3
(g4
(I0
tp5251
g6
tp5252
Rp5253
(g249
I1
(tg253
I00
S'|\xc8\x93\xd9\xde\x7f3?'
p5254
tp5255
bag3
(g4
(I0
tp5256
g6
tp5257
Rp5258
(g262
I1
(tg266
I00
S'\xe53v\xa3m\x043?'
p5259
tp5260
bag3
(g4
(I0
tp5261
g6
tp5262
Rp5263
(g275
I1
(tg279
I00
S'\xbbg\x9d \x15\x97\x9a?'
p5264
tp5265
bag3
(g4
(I0
tp5266
g6
tp5267
Rp5268
(g288
I1
(tg292
I00
S"\x173.n'\xfd3?"
p5269
tp5270
bag3
(g4
(I0
tp5271
g6
tp5272
Rp5273
(g301
I1
(tg305
I00
S'P\xed+\x03y\x84\x82?'
p5274
tp5275
bag3
(g4
(I0
tp5276
g6
tp5277
Rp5278
(g314
I1
(tg318
I00
S'\x80\xa6r\xa3\xea33?'
p5279
tp5280
bag3
(g4
(I0
tp5281
g6
tp5282
Rp5283
(g327
I1
(tg331
I00
S'\xfe\x8a\x82\xcb\xa2\rb?'
p5284
tp5285
bag3
(g4
(I0
tp5286
g6
tp5287
Rp5288
(g340
I1
(tg344
I00
S'L@<9\xb2\xd56?'
p5289
tp5290
bag3
(g4
(I0
tp5291
g6
tp5292
Rp5293
(g353
I1
(tg357
I00
S'J\x10\xfb\x86v\xae6?'
p5294
tp5295
bag3
(g4
(I0
tp5296
g6
tp5297
Rp5298
(g366
I1
(tg370
I00
S':K\x1b_\xff\xc71?'
p5299
tp5300
bag3
(g4
(I0
tp5301
g6
tp5302
Rp5303
(g379
I1
(tg383
I00
S'\xb8s\xa3z\xf2W\x81?'
p5304
tp5305
bag3
(g4
(I0
tp5306
g6
tp5307
Rp5308
(g392
I1
(tg396
I00
S'F\x99\x88\\c\xbev?'
p5309
tp5310
bag3
(g4
(I0
tp5311
g6
tp5312
Rp5313
(g405
I1
(tg409
I00
S'k\x04;\x0f\\\xc9\x82?'
p5314
tp5315
bag3
(g4
(I0
tp5316
g6
tp5317
Rp5318
(g418
I1
(tg422
I00
S'\x8a,\x8fn0\xd8p?'
p5319
tp5320
bag3
(g4
(I0
tp5321
g6
tp5322
Rp5323
(g431
I1
(tg435
I00
S'\xafQr(j[\x90?'
p5324
tp5325
bag3
(g4
(I0
tp5326
g6
tp5327
Rp5328
(g444
I1
(tg448
I00
S'\x04\x1aN\xb3/aD?'
p5329
tp5330
bag3
(g4
(I0
tp5331
g6
tp5332
Rp5333
(g457
I1
(tg461
I00
S'\xc5\x02\x07;o\xf83?'
p5334
tp5335
bag3
(g4
(I0
tp5336
g6
tp5337
Rp5338
(g470
I1
(tg474
I00
S'\xc4F%\xf3)\xaf\x9a?'
p5339
tp5340
bag3
(g4
(I0
tp5341
g6
tp5342
Rp5343
(g483
I1
(tg487
I00
S'\xdc\xfb)tJ\x86A?'
p5344
tp5345
bag3
(g4
(I0
tp5346
g6
tp5347
Rp5348
(g496
I1
(tg500
I00
S'8uW\x85\xb8\xe0=?'
p5349
tp5350
bag3
(g4
(I0
tp5351
g6
tp5352
Rp5353
(g509
I1
(tg513
I00
S'\xfa\xe2M\xf6\xbe\x81E?'
p5354
tp5355
bag3
(g4
(I0
tp5356
g6
tp5357
Rp5358
(g522
I1
(tg526
I00
S'O\xa5R\x97\x1b\x9e\x84?'
p5359
tp5360
bag3
(g4
(I0
tp5361
g6
tp5362
Rp5363
(g535
I1
(tg539
I00
S'kU\x88\xa40MB?'
p5364
tp5365
bag3
(g4
(I0
tp5366
g6
tp5367
Rp5368
(g548
I1
(tg552
I00
S'\x8a\xf0\xe4\x92\xddrs?'
p5369
tp5370
bag3
(g4
(I0
tp5371
g6
tp5372
Rp5373
(g561
I1
(tg565
I00
S'\xf4\xabP\xce\xa4\xadT?'
p5374
tp5375
bag3
(g4
(I0
tp5376
g6
tp5377
Rp5378
(g574
I1
(tg578
I00
S'r\x98\xd0\xfaB+>?'
p5379
tp5380
bag3
(g4
(I0
tp5381
g6
tp5382
Rp5383
(g587
I1
(tg591
I00
S'\x87\x9e\xf4\xd1\xfe^s?'
p5384
tp5385
bag3
(g4
(I0
tp5386
g6
tp5387
Rp5388
(g600
I1
(tg604
I00
S'\xe4p\x19\xa33\xd9j?'
p5389
tp5390
bag3
(g4
(I0
tp5391
g6
tp5392
Rp5393
(g613
I1
(tg617
I00
S'\x18V\x19\x90\xc1\xc4r?'
p5394
tp5395
bag3
(g4
(I0
tp5396
g6
tp5397
Rp5398
(g626
I1
(tg630
I00
S'(\x19\x91\xcc|\xc5\x95?'
p5399
tp5400
bag3
(g4
(I0
tp5401
g6
tp5402
Rp5403
(g639
I1
(tg643
I00
S'\x9d\xc3I\xe2\xeb\xffA?'
p5404
tp5405
bag3
(g4
(I0
tp5406
g6
tp5407
Rp5408
(g652
I1
(tg656
I00
S'\x11\x14\xd8\xb9f=\x8e?'
p5409
tp5410
bag3
(g4
(I0
tp5411
g6
tp5412
Rp5413
(g665
I1
(tg669
I00
S'pQ\x8d\t|%9?'
p5414
tp5415
bag3
(g4
(I0
tp5416
g6
tp5417
Rp5418
(g678
I1
(tg682
I00
S'\xa7(\xab\xc5&\xd29?'
p5419
tp5420
bag3
(g4
(I0
tp5421
g6
tp5422
Rp5423
(g691
I1
(tg695
I00
S'\xd1|`\xa9\xaf\xbe\x1e?'
p5424
tp5425
bag3
(g4
(I0
tp5426
g6
tp5427
Rp5428
(g704
I1
(tg708
I00
S'\x06j\xc0&\x9b"D?'
p5429
tp5430
bag3
(g4
(I0
tp5431
g6
tp5432
Rp5433
(g717
I1
(tg721
I00
S'\xce\xeaC\x8e2\xd0C?'
p5434
tp5435
bag3
(g4
(I0
tp5436
g6
tp5437
Rp5438
(g730
I1
(tg734
I00
S'@\x01\xff\x012\x93q?'
p5439
tp5440
bag3
(g4
(I0
tp5441
g6
tp5442
Rp5443
(g743
I1
(tg747
I00
S'\xbd\x1c\xcb\x99\xeb\x99J?'
p5444
tp5445
bag3
(g4
(I0
tp5446
g6
tp5447
Rp5448
(g756
I1
(tg760
I00
S'Vk\xc4\x9c\x85d-?'
p5449
tp5450
bag3
(g4
(I0
tp5451
g6
tp5452
Rp5453
(g769
I1
(tg773
I00
S';8}\xa9\xe7\xf3J?'
p5454
tp5455
bag3
(g4
(I0
tp5456
g6
tp5457
Rp5458
(g782
I1
(tg786
I00
S')E%v\x92&\x8f?'
p5459
tp5460
bag3
(g4
(I0
tp5461
g6
tp5462
Rp5463
(g795
I1
(tg799
I00
S'\x87\x8a\xf3\xdf\xeb\xb0G?'
p5464
tp5465
bag3
(g4
(I0
tp5466
g6
tp5467
Rp5468
(g808
I1
(tg812
I00
S'\xd5\x1f\xfaE\xe9\xb2\x1a?'
p5469
tp5470
bag3
(g4
(I0
tp5471
g6
tp5472
Rp5473
(g821
I1
(tg825
I00
S'\xa6\xe0\x1a\x02s0\x90?'
p5474
tp5475
bag3
(g4
(I0
tp5476
g6
tp5477
Rp5478
(g834
I1
(tg838
I00
S'$\xd1\x0c\xed\xb14z?'
p5479
tp5480
bag3
(g4
(I0
tp5481
g6
tp5482
Rp5483
(g847
I1
(tg851
I00
S'\xac\x18F\xc2\xae\xc52?'
p5484
tp5485
bag3
(g4
(I0
tp5486
g6
tp5487
Rp5488
(g860
I1
(tg864
I00
S'\x1d\xb4\x16\xfd8\xf7\x92?'
p5489
tp5490
bag3
(g4
(I0
tp5491
g6
tp5492
Rp5493
(g873
I1
(tg877
I00
S'\xc3\xcdq"\xc9\xefm?'
p5494
tp5495
bag3
(g4
(I0
tp5496
g6
tp5497
Rp5498
(g886
I1
(tg890
I00
S'\xb8\xd59\x18\x7f\x86.?'
p5499
tp5500
bag3
(g4
(I0
tp5501
g6
tp5502
Rp5503
(g899
I1
(tg903
I00
S'\xe48P\xb4>\xe5f?'
p5504
tp5505
bag3
(g4
(I0
tp5506
g6
tp5507
Rp5508
(g912
I1
(tg916
I00
S'K\xd5\xd2m\xdc2\x93?'
p5509
tp5510
bag3
(g4
(I0
tp5511
g6
tp5512
Rp5513
(g925
I1
(tg929
I00
S'ye\xed\xc0\xe1\x97\x98?'
p5514
tp5515
bag3
(g4
(I0
tp5516
g6
tp5517
Rp5518
(g938
I1
(tg942
I00
S'o~\xe5hJ\xd9\x95?'
p5519
tp5520
bag3
(g4
(I0
tp5521
g6
tp5522
Rp5523
(g951
I1
(tg955
I00
S"\x97\xbc\xcfC')\x99?"
p5524
tp5525
bag3
(g4
(I0
tp5526
g6
tp5527
Rp5528
(g964
I1
(tg968
I00
S'\x0e,\xa88PN\x96?'
p5529
tp5530
bag3
(g4
(I0
tp5531
g6
tp5532
Rp5533
(g977
I1
(tg981
I00
S'\xe7\xd9!}\xdf\xa9V?'
p5534
tp5535
bag3
(g4
(I0
tp5536
g6
tp5537
Rp5538
(g990
I1
(tg994
I00
S'\xdb\x88O\x08\xab\xd1\x1c?'
p5539
tp5540
bag3
(g4
(I0
tp5541
g6
tp5542
Rp5543
(g1003
I1
(tg1007
I00
S'\x99)\xc6)\xac!M?'
p5544
tp5545
bag3
(g4
(I0
tp5546
g6
tp5547
Rp5548
(g1016
I1
(tg1020
I00
S'g\x97\xda\xe7\xe9\x16\x1b?'
p5549
tp5550
bag3
(g4
(I0
tp5551
g6
tp5552
Rp5553
(g1029
I1
(tg1033
I00
S'\x9c\xcfw\x156\x7f"?'
p5554
tp5555
bag3
(g4
(I0
tp5556
g6
tp5557
Rp5558
(g1042
I1
(tg1046
I00
S'\x1b0\x96\xe3w\xdc/?'
p5559
tp5560
bag3
(g4
(I0
tp5561
g6
tp5562
Rp5563
(g1055
I1
(tg1059
I00
S'x\xbed\xbd^\t\x1c?'
p5564
tp5565
bag3
(g4
(I0
tp5566
g6
tp5567
Rp5568
(g1068
I1
(tg1072
I00
S'\x1eWt\xf1\xd2\x0ft?'
p5569
tp5570
bag3
(g4
(I0
tp5571
g6
tp5572
Rp5573
(g1081
I1
(tg1085
I00
S'b\x92C\x82z\xe7\x8c?'
p5574
tp5575
bag3
(g4
(I0
tp5576
g6
tp5577
Rp5578
(g1094
I1
(tg1098
I00
S'qE25\x03\xd6,?'
p5579
tp5580
bag3
(g4
(I0
tp5581
g6
tp5582
Rp5583
(g1107
I1
(tg1111
I00
S'/C\x1c\xeb\xe26\x1a?'
p5584
tp5585
bag3
(g4
(I0
tp5586
g6
tp5587
Rp5588
(g1120
I1
(tg1124
I00
S'w[(T@UI?'
p5589
tp5590
bag3
(g4
(I0
tp5591
g6
tp5592
Rp5593
(g1133
I1
(tg1137
I00
S'-1\xb7\xa2\x96\x9eK?'
p5594
tp5595
bag3
(g4
(I0
tp5596
g6
tp5597
Rp5598
(g1146
I1
(tg1150
I00
S'G\xf2\xa3v\xed\x91W?'
p5599
tp5600
bag3
(g4
(I0
tp5601
g6
tp5602
Rp5603
(g1159
I1
(tg1163
I00
S']\x1ag\x14\x97\xc4S?'
p5604
tp5605
bag3
(g4
(I0
tp5606
g6
tp5607
Rp5608
(g1172
I1
(tg1176
I00
S'\x8ab\xe7\xbdA%U?'
p5609
tp5610
bag3
(g4
(I0
tp5611
g6
tp5612
Rp5613
(g1185
I1
(tg1189
I00
S'\x9cq\xffrL\x0c\x8f?'
p5614
tp5615
bag3
(g4
(I0
tp5616
g6
tp5617
Rp5618
(g1198
I1
(tg1202
I00
S'P\x0e:fO\xa3\x8d?'
p5619
tp5620
bag3
(g4
(I0
tp5621
g6
tp5622
Rp5623
(g1211
I1
(tg1215
I00
S'\xee7\xb9\x17o\xdc)?'
p5624
tp5625
basS'zstar5'
p5626
(lp5627
g3
(g4
(I0
tp5628
g6
tp5629
Rp5630
(g13
I1
(tg19
I00
S'\x97\x90.\x0b`\xd7R?'
p5631
tp5632
bag3
(g4
(I0
tp5633
g6
tp5634
Rp5635
(g28
I1
(tg32
I00
S'\xfd\x93l+\xddEb?'
p5636
tp5637
bag3
(g4
(I0
tp5638
g6
tp5639
Rp5640
(g41
I1
(tg45
I00
S"\x9b\xa3\x16\xeb\x13\x86'?"
p5641
tp5642
bag3
(g4
(I0
tp5643
g6
tp5644
Rp5645
(g54
I1
(tg58
I00
S'y\x14\xb6l_>\x99?'
p5646
tp5647
bag3
(g4
(I0
tp5648
g6
tp5649
Rp5650
(g67
I1
(tg71
I00
S'\xa2t\xe9RJ13?'
p5651
tp5652
bag3
(g4
(I0
tp5653
g6
tp5654
Rp5655
(g80
I1
(tg84
I00
S'\xcaq\x99,\x02\xa4+?'
p5656
tp5657
bag3
(g4
(I0
tp5658
g6
tp5659
Rp5660
(g93
I1
(tg97
I00
S'Z\x86\xbcze\xe0t?'
p5661
tp5662
bag3
(g4
(I0
tp5663
g6
tp5664
Rp5665
(g106
I1
(tg110
I00
S'eG\x13\xdf\x05O4?'
p5666
tp5667
bag3
(g4
(I0
tp5668
g6
tp5669
Rp5670
(g119
I1
(tg123
I00
S'\xadeQ\xee\xf0\xf56?'
p5671
tp5672
bag3
(g4
(I0
tp5673
g6
tp5674
Rp5675
(g132
I1
(tg136
I00
S'C\xf8\x02\xd1d\xeb0?'
p5676
tp5677
bag3
(g4
(I0
tp5678
g6
tp5679
Rp5680
(g145
I1
(tg149
I00
S'\xccSR\x9a\xd2\xf0X?'
p5681
tp5682
bag3
(g4
(I0
tp5683
g6
tp5684
Rp5685
(g158
I1
(tg162
I00
S'\x0f\x06\x02-q&3?'
p5686
tp5687
bag3
(g4
(I0
tp5688
g6
tp5689
Rp5690
(g171
I1
(tg175
I00
S'\xe6\x8d]\xddw\xa9_?'
p5691
tp5692
bag3
(g4
(I0
tp5693
g6
tp5694
Rp5695
(g184
I1
(tg188
I00
S'\x98C\xc5\xd2_\x9bX?'
p5696
tp5697
bag3
(g4
(I0
tp5698
g6
tp5699
Rp5700
(g197
I1
(tg201
I00
S'\xa1~\xa0;\xfc\x85H?'
p5701
tp5702
bag3
(g4
(I0
tp5703
g6
tp5704
Rp5705
(g210
I1
(tg214
I00
S'F!\xb9\xcfY\x9c\x96?'
p5706
tp5707
bag3
(g4
(I0
tp5708
g6
tp5709
Rp5710
(g223
I1
(tg227
I00
S'\x8cU\xb2\x0f\xc174?'
p5711
tp5712
bag3
(g4
(I0
tp5713
g6
tp5714
Rp5715
(g236
I1
(tg240
I00
S'\x8b\x81$\xfb\xa1\xaa1?'
p5716
tp5717
bag3
(g4
(I0
tp5718
g6
tp5719
Rp5720
(g249
I1
(tg253
I00
S'\x01p W\xfcQ3?'
p5721
tp5722
bag3
(g4
(I0
tp5723
g6
tp5724
Rp5725
(g262
I1
(tg266
I00
S'N\xf2\x85\xd2\x12y2?'
p5726
tp5727
bag3
(g4
(I0
tp5728
g6
tp5729
Rp5730
(g275
I1
(tg279
I00
S'\xd0\xaf*"\xcb\x0c\x9a?'
p5731
tp5732
bag3
(g4
(I0
tp5733
g6
tp5734
Rp5735
(g288
I1
(tg292
I00
S'q\xf1V\xf54\xea3?'
p5736
tp5737
bag3
(g4
(I0
tp5738
g6
tp5739
Rp5740
(g301
I1
(tg305
I00
S'Uc\x10\x1c\x9e\x00\x80?'
p5741
tp5742
bag3
(g4
(I0
tp5743
g6
tp5744
Rp5745
(g314
I1
(tg318
I00
S'\x02\x0f\x0f\xf4\x11\x922?'
p5746
tp5747
bag3
(g4
(I0
tp5748
g6
tp5749
Rp5750
(g327
I1
(tg331
I00
S'\xcd\xecdbSb_?'
p5751
tp5752
bag3
(g4
(I0
tp5753
g6
tp5754
Rp5755
(g340
I1
(tg344
I00
S'\xf7hkB\xa4m6?'
p5756
tp5757
bag3
(g4
(I0
tp5758
g6
tp5759
Rp5760
(g353
I1
(tg357
I00
S' \xb6\xfe\xad\x99\xa86?'
p5761
tp5762
bag3
(g4
(I0
tp5763
g6
tp5764
Rp5765
(g366
I1
(tg370
I00
S'\xe2\xc6\xe4\xa9\xc4\x801?'
p5766
tp5767
bag3
(g4
(I0
tp5768
g6
tp5769
Rp5770
(g379
I1
(tg383
I00
S'\x82 \x1db\xef\xc7|?'
p5771
tp5772
bag3
(g4
(I0
tp5773
g6
tp5774
Rp5775
(g392
I1
(tg396
I00
S'F\xa1\xfd\xa5m\xf7s?'
p5776
tp5777
bag3
(g4
(I0
tp5778
g6
tp5779
Rp5780
(g405
I1
(tg409
I00
S'\xda\xb0>\x1b\xfd9\x81?'
p5781
tp5782
bag3
(g4
(I0
tp5783
g6
tp5784
Rp5785
(g418
I1
(tg422
I00
S'\xd8\x06\xaa\x1eA\xefk?'
p5786
tp5787
bag3
(g4
(I0
tp5788
g6
tp5789
Rp5790
(g431
I1
(tg435
I00
S'\xdbxo\xed\xcbJ\x90?'
p5791
tp5792
bag3
(g4
(I0
tp5793
g6
tp5794
Rp5795
(g444
I1
(tg448
I00
S'T\x08\\\xc6F\xc1C?'
p5796
tp5797
bag3
(g4
(I0
tp5798
g6
tp5799
Rp5800
(g457
I1
(tg461
I00
S'\x89\x89\x19me\x8a3?'
p5801
tp5802
bag3
(g4
(I0
tp5803
g6
tp5804
Rp5805
(g470
I1
(tg474
I00
S',\xb5\xf9\x82\xc9\n\x98?'
p5806
tp5807
bag3
(g4
(I0
tp5808
g6
tp5809
Rp5810
(g483
I1
(tg487
I00
S'\xc9\x04a\xf1\x9f\xb9@?'
p5811
tp5812
bag3
(g4
(I0
tp5813
g6
tp5814
Rp5815
(g496
I1
(tg500
I00
S'bN#\x94\xc2\xd6;?'
p5816
tp5817
bag3
(g4
(I0
tp5818
g6
tp5819
Rp5820
(g509
I1
(tg513
I00
S'k\xfcz\x14\xe5\xb7C?'
p5821
tp5822
bag3
(g4
(I0
tp5823
g6
tp5824
Rp5825
(g522
I1
(tg526
I00
S'=\x9d\xd4\x01\xab\xc5\x82?'
p5826
tp5827
bag3
(g4
(I0
tp5828
g6
tp5829
Rp5830
(g535
I1
(tg539
I00
S'\x12\x159\x02\xce\x90@?'
p5831
tp5832
bag3
(g4
(I0
tp5833
g6
tp5834
Rp5835
(g548
I1
(tg552
I00
S';\xd9,\xcdL\x1bp?'
p5836
tp5837
bag3
(g4
(I0
tp5838
g6
tp5839
Rp5840
(g561
I1
(tg565
I00
S'Fcc\x01\x82@R?'
p5841
tp5842
bag3
(g4
(I0
tp5843
g6
tp5844
Rp5845
(g574
I1
(tg578
I00
S'\x86\x1a`\xba\xf2\xa4<?'
p5846
tp5847
bag3
(g4
(I0
tp5848
g6
tp5849
Rp5850
(g587
I1
(tg591
I00
S'\x84_\x93*\xe4\x0bq?'
p5851
tp5852
bag3
(g4
(I0
tp5853
g6
tp5854
Rp5855
(g600
I1
(tg604
I00
S'\xe6\x16:D#\xd4e?'
p5856
tp5857
bag3
(g4
(I0
tp5858
g6
tp5859
Rp5860
(g613
I1
(tg617
I00
S'\xa8\xcf\xc6=\xb8Zn?'
p5861
tp5862
bag3
(g4
(I0
tp5863
g6
tp5864
Rp5865
(g626
I1
(tg630
I00
S'1\x18\xbb\xf0t2\x95?'
p5866
tp5867
bag3
(g4
(I0
tp5868
g6
tp5869
Rp5870
(g639
I1
(tg643
I00
S'\x08\xfav\x9c#oA?'
p5871
tp5872
bag3
(g4
(I0
tp5873
g6
tp5874
Rp5875
(g652
I1
(tg656
I00
S'\xa4\x91\x06\xc9_"\x89?'
p5876
tp5877
bag3
(g4
(I0
tp5878
g6
tp5879
Rp5880
(g665
I1
(tg669
I00
S'\xe7\xd4&\xf4\xcd\xf37?'
p5881
tp5882
bag3
(g4
(I0
tp5883
g6
tp5884
Rp5885
(g678
I1
(tg682
I00
S'\x9624t|\x078?'
p5886
tp5887
bag3
(g4
(I0
tp5888
g6
tp5889
Rp5890
(g691
I1
(tg695
I00
S':\xf3/]\xc3d\x1c?'
p5891
tp5892
bag3
(g4
(I0
tp5893
g6
tp5894
Rp5895
(g704
I1
(tg708
I00
S'\x84\x11E\x17\xee\xb0A?'
p5896
tp5897
bag3
(g4
(I0
tp5898
g6
tp5899
Rp5900
(g717
I1
(tg721
I00
S'p(\x96\x00E%C?'
p5901
tp5902
bag3
(g4
(I0
tp5903
g6
tp5904
Rp5905
(g730
I1
(tg734
I00
S'h\xe6\x03\x7f\x95Ao?'
p5906
tp5907
bag3
(g4
(I0
tp5908
g6
tp5909
Rp5910
(g743
I1
(tg747
I00
S'f_\xca=\x15\xe8F?'
p5911
tp5912
bag3
(g4
(I0
tp5913
g6
tp5914
Rp5915
(g756
I1
(tg760
I00
S'Vk\xc4\x9c\x85d-?'
p5916
tp5917
bag3
(g4
(I0
tp5918
g6
tp5919
Rp5920
(g769
I1
(tg773
I00
S'n\xffYj\x13\xdaG?'
p5921
tp5922
bag3
(g4
(I0
tp5923
g6
tp5924
Rp5925
(g782
I1
(tg786
I00
S'\xf2\xb0\x9e\x1aJ\x89\x8b?'
p5926
tp5927
bag3
(g4
(I0
tp5928
g6
tp5929
Rp5930
(g795
I1
(tg799
I00
S'\xc8\x84M5o\x99E?'
p5931
tp5932
bag3
(g4
(I0
tp5933
g6
tp5934
Rp5935
(g808
I1
(tg812
I00
S'V\x92K\x9b/\xb2\x1a?'
p5936
tp5937
bag3
(g4
(I0
tp5938
g6
tp5939
Rp5940
(g821
I1
(tg825
I00
S'\xa1ZC\x91!|\x8c?'
p5941
tp5942
bag3
(g4
(I0
tp5943
g6
tp5944
Rp5945
(g834
I1
(tg838
I00
S'\x82\x97C\x08\xeb\xf7r?'
p5946
tp5947
bag3
(g4
(I0
tp5948
g6
tp5949
Rp5950
(g847
I1
(tg851
I00
S'\xd6\xe2\x00\xc2V\xb92?'
p5951
tp5952
bag3
(g4
(I0
tp5953
g6
tp5954
Rp5955
(g860
I1
(tg864
I00
S'JR\xd2\xa0\xb9\x0e\x92?'
p5956
tp5957
bag3
(g4
(I0
tp5958
g6
tp5959
Rp5960
(g873
I1
(tg877
I00
S'\x9b\xe5\xb2]Q\xfbj?'
p5961
tp5962
bag3
(g4
(I0
tp5963
g6
tp5964
Rp5965
(g886
I1
(tg890
I00
S'\xb8\xd59\x18\x7f\x86.?'
p5966
tp5967
bag3
(g4
(I0
tp5968
g6
tp5969
Rp5970
(g899
I1
(tg903
I00
S'\x10\x0b\xb5\x9e\x183s?'
p5971
tp5972
bag3
(g4
(I0
tp5973
g6
tp5974
Rp5975
(g912
I1
(tg916
I00
S'\x18\x92\xba\xb1*\x0c\x91?'
p5976
tp5977
bag3
(g4
(I0
tp5978
g6
tp5979
Rp5980
(g925
I1
(tg929
I00
S'\x92)\xb2p\x83\x90\x95?'
p5981
tp5982
bag3
(g4
(I0
tp5983
g6
tp5984
Rp5985
(g938
I1
(tg942
I00
S'o\xe0\x87\xf1:g\x92?'
p5986
tp5987
bag3
(g4
(I0
tp5988
g6
tp5989
Rp5990
(g951
I1
(tg955
I00
S'\x1dN&\x85N\x9a\x98?'
p5991
tp5992
bag3
(g4
(I0
tp5993
g6
tp5994
Rp5995
(g964
I1
(tg968
I00
S'\xee\xa3b\xcd:J\x95?'
p5996
tp5997
bag3
(g4
(I0
tp5998
g6
tp5999
Rp6000
(g977
I1
(tg981
I00
S'-3\xab\x9c\x89\xe6T?'
p6001
tp6002
bag3
(g4
(I0
tp6003
g6
tp6004
Rp6005
(g990
I1
(tg994
I00
S'\xf6\xd6\xb9\xf3\x9d\xcc\x1c?'
p6006
tp6007
bag3
(g4
(I0
tp6008
g6
tp6009
Rp6010
(g1003
I1
(tg1007
I00
S'vN\x8f\xf9>\xeeI?'
p6011
tp6012
bag3
(g4
(I0
tp6013
g6
tp6014
Rp6015
(g1016
I1
(tg1020
I00
S'\x98\x8d\xcc\x14d\x16\x1b?'
p6016
tp6017
bag3
(g4
(I0
tp6018
g6
tp6019
Rp6020
(g1029
I1
(tg1033
I00
S'\x9d2\x13\xc5\x10t"?'
p6021
tp6022
bag3
(g4
(I0
tp6023
g6
tp6024
Rp6025
(g1042
I1
(tg1046
I00
S'\x9d\xbf\xa0A\xb4\xb4/?'
p6026
tp6027
bag3
(g4
(I0
tp6028
g6
tp6029
Rp6030
(g1055
I1
(tg1059
I00
S'\xb9\xff\xea\x8cH\x0f\x1c?'
p6031
tp6032
bag3
(g4
(I0
tp6033
g6
tp6034
Rp6035
(g1068
I1
(tg1072
I00
S'J\xc2rl\x0c.r?'
p6036
tp6037
bag3
(g4
(I0
tp6038
g6
tp6039
Rp6040
(g1081
I1
(tg1085
I00
S'I\xb1\xe5b\x14`\x88?'
p6041
tp6042
bag3
(g4
(I0
tp6043
g6
tp6044
Rp6045
(g1094
I1
(tg1098
I00
S'jg\x8a\x06@\xc9,?'
p6046
tp6047
bag3
(g4
(I0
tp6048
g6
tp6049
Rp6050
(g1107
I1
(tg1111
I00
S'/C\x1c\xeb\xe26\x1a?'
p6051
tp6052
bag3
(g4
(I0
tp6053
g6
tp6054
Rp6055
(g1120
I1
(tg1124
I00
S'\t\x81\xec\xee\x86bF?'
p6056
tp6057
bag3
(g4
(I0
tp6058
g6
tp6059
Rp6060
(g1133
I1
(tg1137
I00
S'\xd5\xec[N\x08\x05F?'
p6061
tp6062
bag3
(g4
(I0
tp6063
g6
tp6064
Rp6065
(g1146
I1
(tg1150
I00
S'`\x04w\x8ad\x0bU?'
p6066
tp6067
bag3
(g4
(I0
tp6068
g6
tp6069
Rp6070
(g1159
I1
(tg1163
I00
S'\x83\x08\xfb\x00{fQ?'
p6071
tp6072
bag3
(g4
(I0
tp6073
g6
tp6074
Rp6075
(g1172
I1
(tg1176
I00
S'\x0bH \xd2ngR?'
p6076
tp6077
bag3
(g4
(I0
tp6078
g6
tp6079
Rp6080
(g1185
I1
(tg1189
I00
S' \xec\x83\xb2\xad-\x87?'
p6081
tp6082
bag3
(g4
(I0
tp6083
g6
tp6084
Rp6085
(g1198
I1
(tg1202
I00
S';\x05\xd0\x89\xf5\x96\x8d?'
p6086
tp6087
bag3
(g4
(I0
tp6088
g6
tp6089
Rp6090
(g1211
I1
(tg1215
I00
S']2x\xda\xee\xd0)?'
p6091
tp6092
basS'feh'
p6093
(lp6094
g3
(g4
(I0
tp6095
g6
tp6096
Rp6097
(g13
I1
(tg19
I00
S'\x0f\xb5\xd3G\xb8@\xf7\xbf'
p6098
tp6099
bag3
(g4
(I0
tp6100
g6
tp6101
Rp6102
(g28
I1
(tg32
I00
S'2B\xce\x1d\x95\x13\xf4\xbf'
p6103
tp6104
bag3
(g4
(I0
tp6105
g6
tp6106
Rp6107
(g41
I1
(tg45
I00
S'a\x07H\\\xa0\xba\x02\xc0'
p6108
tp6109
bag3
(g4
(I0
tp6110
g6
tp6111
Rp6112
(g54
I1
(tg58
I00
S'\x92\xc6\xa2\x97i\x83\xa8\xbf'
p6113
tp6114
bag3
(g4
(I0
tp6115
g6
tp6116
Rp6117
(g67
I1
(tg71
I00
S'\xc3qE\x10_X\x00\xc0'
p6118
tp6119
bag3
(g4
(I0
tp6120
g6
tp6121
Rp6122
(g80
I1
(tg84
I00
S'\xd1\xc4\xb4v9\xfb\x03\xc0'
p6123
tp6124
bag3
(g4
(I0
tp6125
g6
tp6126
Rp6127
(g93
I1
(tg97
I00
S'\x96{*\xe3\x93\x9f\xed\xbf'
p6128
tp6129
bag3
(g4
(I0
tp6130
g6
tp6131
Rp6132
(g106
I1
(tg110
I00
S'%\x06d\x1ai\xe2\xff\xbf'
p6133
tp6134
bag3
(g4
(I0
tp6135
g6
tp6136
Rp6137
(g119
I1
(tg123
I00
S'\xd0\xc4ak\xb4-\xfd\xbf'
p6138
tp6139
bag3
(g4
(I0
tp6140
g6
tp6141
Rp6142
(g132
I1
(tg136
I00
S'\xd4\xaa\xfe\xd0\xbbY\xff\xbf'
p6143
tp6144
bag3
(g4
(I0
tp6145
g6
tp6146
Rp6147
(g145
I1
(tg149
I00
S'\xf2X\xf3\xfb\x0ch\xf6\xbf'
p6148
tp6149
bag3
(g4
(I0
tp6150
g6
tp6151
Rp6152
(g158
I1
(tg162
I00
S'EeY\x8a\xc1b\xff\xbf'
p6153
tp6154
bag3
(g4
(I0
tp6155
g6
tp6156
Rp6157
(g171
I1
(tg175
I00
S'\\\x07\xf9\xbd\xa3.\xf4\xbf'
p6158
tp6159
bag3
(g4
(I0
tp6160
g6
tp6161
Rp6162
(g184
I1
(tg188
I00
S'\x11\xa1\x19\x15%c\xf6\xbf'
p6163
tp6164
bag3
(g4
(I0
tp6165
g6
tp6166
Rp6167
(g197
I1
(tg201
I00
S'\xb1\xe1D\xf9\x1f\xb2\xf9\xbf'
p6168
tp6169
bag3
(g4
(I0
tp6170
g6
tp6171
Rp6172
(g210
I1
(tg214
I00
S'\xfb\x19\xd2\xc1\x8c\xdd\xc6\xbf'
p6173
tp6174
bag3
(g4
(I0
tp6175
g6
tp6176
Rp6177
(g223
I1
(tg227
I00
S'Vr\xa8\x02\x93\x9d\xfe\xbf'
p6178
tp6179
bag3
(g4
(I0
tp6180
g6
tp6181
Rp6182
(g236
I1
(tg240
I00
S'+\x99\x96\xc8x\x1d\xff\xbf'
p6183
tp6184
bag3
(g4
(I0
tp6185
g6
tp6186
Rp6187
(g249
I1
(tg253
I00
S'\x87\xa7e\xdb\xf5\t\xfe\xbf'
p6188
tp6189
bag3
(g4
(I0
tp6190
g6
tp6191
Rp6192
(g262
I1
(tg266
I00
S'\xa8\xc2k\xdb\xd7\xe6\x01\xc0'
p6193
tp6194
bag3
(g4
(I0
tp6195
g6
tp6196
Rp6197
(g275
I1
(tg279
I00
S'\xb1\xcc\xc8lzY\xa2\xbf'
p6198
tp6199
bag3
(g4
(I0
tp6200
g6
tp6201
Rp6202
(g288
I1
(tg292
I00
S'.\xaa\x08\xf24\x06\xfe\xbf'
p6203
tp6204
bag3
(g4
(I0
tp6205
g6
tp6206
Rp6207
(g301
I1
(tg305
I00
S'\x05E\xfcA\xab\x1a\xe7\xbf'
p6208
tp6209
bag3
(g4
(I0
tp6210
g6
tp6211
Rp6212
(g314
I1
(tg318
I00
S'\xc4\xf7\xadh\xa7\x86\xff\xbf'
p6213
tp6214
bag3
(g4
(I0
tp6215
g6
tp6216
Rp6217
(g327
I1
(tg331
I00
S'A+\xacb\xe1\x1a\xf4\xbf'
p6218
tp6219
bag3
(g4
(I0
tp6220
g6
tp6221
Rp6222
(g340
I1
(tg344
I00
S'Ul\xfc\x16i~\xfd\xbf'
p6223
tp6224
bag3
(g4
(I0
tp6225
g6
tp6226
Rp6227
(g353
I1
(tg357
I00
S'\xa9\xa1\xf1\x9e.\xc1\xfc\xbf'
p6228
tp6229
bag3
(g4
(I0
tp6230
g6
tp6231
Rp6232
(g366
I1
(tg370
I00
S'\xc6N\xc4\x94.T\x00\xc0'
p6233
tp6234
bag3
(g4
(I0
tp6235
g6
tp6236
Rp6237
(g379
I1
(tg383
I00
S'f\xf3K\t*\x1b\xe9\xbf'
p6238
tp6239
bag3
(g4
(I0
tp6240
g6
tp6241
Rp6242
(g392
I1
(tg396
I00
S'\xc4h\xe4\xf2\xcf\x13\xed\xbf'
p6243
tp6244
bag3
(g4
(I0
tp6245
g6
tp6246
Rp6247
(g405
I1
(tg409
I00
S'\x9d\xec\xa4\xcd\xb4\x15\xe7\xbf'
p6248
tp6249
bag3
(g4
(I0
tp6250
g6
tp6251
Rp6252
(g418
I1
(tg422
I00
S'\xaf\x15~|u\xd4\xf0\xbf'
p6253
tp6254
bag3
(g4
(I0
tp6255
g6
tp6256
Rp6257
(g431
I1
(tg435
I00
S'\xeas\xbfE\xd0G\xd7\xbf'
p6258
tp6259
bag3
(g4
(I0
tp6260
g6
tp6261
Rp6262
(g444
I1
(tg448
I00
S'\x0e\x97\xf6\xbcJ%\xfc\xbf'
p6263
tp6264
bag3
(g4
(I0
tp6265
g6
tp6266
Rp6267
(g457
I1
(tg461
I00
S'`vk@\xbd\x98\xfe\xbf'
p6268
tp6269
bag3
(g4
(I0
tp6270
g6
tp6271
Rp6272
(g470
I1
(tg474
I00
S'\xcb>\x17e\x8d\x8a\xb6\xbf'
p6273
tp6274
bag3
(g4
(I0
tp6275
g6
tp6276
Rp6277
(g483
I1
(tg487
I00
S'\x9e\xcc a\x95\x94\xfb\xbf'
p6278
tp6279
bag3
(g4
(I0
tp6280
g6
tp6281
Rp6282
(g496
I1
(tg500
I00
S'\x1e\x16\xc5\x80\x98n\xfd\xbf'
p6283
tp6284
bag3
(g4
(I0
tp6285
g6
tp6286
Rp6287
(g509
I1
(tg513
I00
S'\xc6\xf9\xbe&RF\xfb\xbf'
p6288
tp6289
bag3
(g4
(I0
tp6290
g6
tp6291
Rp6292
(g522
I1
(tg526
I00
S'\xbf\xa8\xb25`\xf6\xe4\xbf'
p6293
tp6294
bag3
(g4
(I0
tp6295
g6
tp6296
Rp6297
(g535
I1
(tg539
I00
S'\xab\x13\x8b\xe0\x0b\xb4\xfc\xbf'
p6298
tp6299
bag3
(g4
(I0
tp6300
g6
tp6301
Rp6302
(g548
I1
(tg552
I00
S'\xfdW@\xe2ql\xf0\xbf'
p6303
tp6304
bag3
(g4
(I0
tp6305
g6
tp6306
Rp6307
(g561
I1
(tg565
I00
S"\xbc\xf4f\xf8\xbb'\xf7\xbf"
p6308
tp6309
bag3
(g4
(I0
tp6310
g6
tp6311
Rp6312
(g574
I1
(tg578
I00
S'\x10\xa5s\x14$\xdd\xfc\xbf'
p6313
tp6314
bag3
(g4
(I0
tp6315
g6
tp6316
Rp6317
(g587
I1
(tg591
I00
S'\xe3\xae&\xb1\xc8\xe6\xee\xbf'
p6318
tp6319
bag3
(g4
(I0
tp6320
g6
tp6321
Rp6322
(g600
I1
(tg604
I00
S'\xb7\xa3\xbb\x19\xc0Z\xf2\xbf'
p6323
tp6324
bag3
(g4
(I0
tp6325
g6
tp6326
Rp6327
(g613
I1
(tg617
I00
S'\xf2G\xae\xefgV\xf0\xbf'
p6328
tp6329
bag3
(g4
(I0
tp6330
g6
tp6331
Rp6332
(g626
I1
(tg630
I00
S'\x1b\xeb \xf1i\x91\xce\xbf'
p6333
tp6334
bag3
(g4
(I0
tp6335
g6
tp6336
Rp6337
(g639
I1
(tg643
I00
S'\x19&\x17\xb7*H\xfc\xbf'
p6338
tp6339
bag3
(g4
(I0
tp6340
g6
tp6341
Rp6342
(g652
I1
(tg656
I00
S'\xbb\xd8\xcc\x99\x0b\xf1\xe1\xbf'
p6343
tp6344
bag3
(g4
(I0
tp6345
g6
tp6346
Rp6347
(g665
I1
(tg669
I00
S'Pq|h\xc0\xb3\xfc\xbf'
p6348
tp6349
bag3
(g4
(I0
tp6350
g6
tp6351
Rp6352
(g678
I1
(tg682
I00
S'\x0f2\xa3T\xc96\xfe\xbf'
p6353
tp6354
bag3
(g4
(I0
tp6355
g6
tp6356
Rp6357
(g691
I1
(tg695
I00
S'\xb7\xce\xd5\x0e\xb6\xd2\x17\xc0'
p6358
tp6359
bag3
(g4
(I0
tp6360
g6
tp6361
Rp6362
(g704
I1
(tg708
I00
S'\xd8\xce\x1d\x90\x94\x15\xfb\xbf'
p6363
tp6364
bag3
(g4
(I0
tp6365
g6
tp6366
Rp6367
(g717
I1
(tg721
I00
S'l\xb0id\x9b\xd7\xfb\xbf'
p6368
tp6369
bag3
(g4
(I0
tp6370
g6
tp6371
Rp6372
(g730
I1
(tg734
I00
S'_Ao\xa3\x9b\r\xf0\xbf'
p6373
tp6374
bag3
(g4
(I0
tp6375
g6
tp6376
Rp6377
(g743
I1
(tg747
I00
S'l\x8d7\x07\xa2\x04\xfa\xbf'
p6378
tp6379
bag3
(g4
(I0
tp6380
g6
tp6381
Rp6382
(g756
I1
(tg760
I00
S'C\xa3\xe8V\xed)\x01\xc0'
p6383
tp6384
bag3
(g4
(I0
tp6385
g6
tp6386
Rp6387
(g769
I1
(tg773
I00
S'h\xcf\xab\xbc\xbfC\xf9\xbf'
p6388
tp6389
bag3
(g4
(I0
tp6390
g6
tp6391
Rp6392
(g782
I1
(tg786
I00
S'%\t\x8daC\x18\xe1\xbf'
p6393
tp6394
bag3
(g4
(I0
tp6395
g6
tp6396
Rp6397
(g795
I1
(tg799
I00
S'\x9f^\xf1G\xdc\xcd\xfa\xbf'
p6398
tp6399
bag3
(g4
(I0
tp6400
g6
tp6401
Rp6402
(g808
I1
(tg812
I00
S'\t\xfc\xad\xccIv\x07\xc0'
p6403
tp6404
bag3
(g4
(I0
tp6405
g6
tp6406
Rp6407
(g821
I1
(tg825
I00
S'j\xed\x83C\xb4\xf6\xe1\xbf'
p6408
tp6409
bag3
(g4
(I0
tp6410
g6
tp6411
Rp6412
(g834
I1
(tg838
I00
S'\xfb\x95\xe2\xfc\xbe\x92\xee\xbf'
p6413
tp6414
bag3
(g4
(I0
tp6415
g6
tp6416
Rp6417
(g847
I1
(tg851
I00
S'\xdb\xc6\xcb;\xa7q\xff\xbf'
p6418
tp6419
bag3
(g4
(I0
tp6420
g6
tp6421
Rp6422
(g860
I1
(tg864
I00
S'D\x98\xc0\xf5;\t\xd9\xbf'
p6423
tp6424
bag3
(g4
(I0
tp6425
g6
tp6426
Rp6427
(g873
I1
(tg877
I00
S'f\x91\x89\x07\xc8\r\xf1\xbf'
p6428
tp6429
bag3
(g4
(I0
tp6430
g6
tp6431
Rp6432
(g886
I1
(tg890
I00
S'\xb7\xed\xf8V\xe8J\x04\xc0'
p6433
tp6434
bag3
(g4
(I0
tp6435
g6
tp6436
Rp6437
(g899
I1
(tg903
I00
S'\x16d\x14\xfd\xe6\xbc\xee\xbf'
p6438
tp6439
bag3
(g4
(I0
tp6440
g6
tp6441
Rp6442
(g912
I1
(tg916
I00
S'\r\xc8\r\x1cPr\xd9\xbf'
p6443
tp6444
bag3
(g4
(I0
tp6445
g6
tp6446
Rp6447
(g925
I1
(tg929
I00
S'\x03\x9e\xaf\x12\xfa\xf5\xca\xbf'
p6448
tp6449
bag3
(g4
(I0
tp6450
g6
tp6451
Rp6452
(g938
I1
(tg942
I00
S']\xde\xe3\x0f\xcf5\xd7\xbf'
p6453
tp6454
bag3
(g4
(I0
tp6455
g6
tp6456
Rp6457
(g951
I1
(tg955
I00
S'\x8az\xdc/4\xf8\xb4\xbf'
p6458
tp6459
bag3
(g4
(I0
tp6460
g6
tp6461
Rp6462
(g964
I1
(tg968
I00
S'\xb0B\xe1\xcd\xead\xd0\xbf'
p6463
tp6464
bag3
(g4
(I0
tp6465
g6
tp6466
Rp6467
(g977
I1
(tg981
I00
S'v\xbd9\x03\xb7>\xf6\xbf'
p6468
tp6469
bag3
(g4
(I0
tp6470
g6
tp6471
Rp6472
(g990
I1
(tg994
I00
S'o|md9\xa8\x16\xc0'
p6473
tp6474
bag3
(g4
(I0
tp6475
g6
tp6476
Rp6477
(g1003
I1
(tg1007
I00
S'\xebV\xf5\xda\xda\x17\xf9\xbf'
p6478
tp6479
bag3
(g4
(I0
tp6480
g6
tp6481
Rp6482
(g1016
I1
(tg1020
I00
S'\xcf\x86\x00\xa5SA\t\xc0'
p6483
tp6484
bag3
(g4
(I0
tp6485
g6
tp6486
Rp6487
(g1029
I1
(tg1033
I00
S'\xc7\xbf\x9e\x05\x92n\x05\xc0'
p6488
tp6489
bag3
(g4
(I0
tp6490
g6
tp6491
Rp6492
(g1042
I1
(tg1046
I00
S'\x91\xe1\x8a.a\x90\x02\xc0'
p6493
tp6494
bag3
(g4
(I0
tp6495
g6
tp6496
Rp6497
(g1055
I1
(tg1059
I00
S'\xb4O\xe2\xd3\xeb\x8a\x07\xc0'
p6498
tp6499
bag3
(g4
(I0
tp6500
g6
tp6501
Rp6502
(g1068
I1
(tg1072
I00
S'\xd2a\xf1V\xde5\xee\xbf'
p6503
tp6504
bag3
(g4
(I0
tp6505
g6
tp6506
Rp6507
(g1081
I1
(tg1085
I00
S'\xce\x18\xe4BE\x97\xe2\xbf'
p6508
tp6509
bag3
(g4
(I0
tp6510
g6
tp6511
Rp6512
(g1094
I1
(tg1098
I00
S'+e\x05\x92\xa1\xd9\x01\xc0'
p6513
tp6514
bag3
(g4
(I0
tp6515
g6
tp6516
Rp6517
(g1107
I1
(tg1111
I00
S'\xcb\xe3r}\xb5\x19\x16\xc0'
p6518
tp6519
bag3
(g4
(I0
tp6520
g6
tp6521
Rp6522
(g1120
I1
(tg1124
I00
S'\xab(P\xaa]\xa8\xfa\xbf'
p6523
tp6524
bag3
(g4
(I0
tp6525
g6
tp6526
Rp6527
(g1133
I1
(tg1137
I00
S'\xfa\xd0}\xe4\xe3\x1a\xfa\xbf'
p6528
tp6529
bag3
(g4
(I0
tp6530
g6
tp6531
Rp6532
(g1146
I1
(tg1150
I00
S'8\x9e\x85\xf8\t\xf0\xf6\xbf'
p6533
tp6534
bag3
(g4
(I0
tp6535
g6
tp6536
Rp6537
(g1159
I1
(tg1163
I00
S'V\x16d\xe8\xe1\x12\xf8\xbf'
p6538
tp6539
bag3
(g4
(I0
tp6540
g6
tp6541
Rp6542
(g1172
I1
(tg1176
I00
S'A\xc75\x88\xfaN\xf7\xbf'
p6543
tp6544
bag3
(g4
(I0
tp6545
g6
tp6546
Rp6547
(g1185
I1
(tg1189
I00
S'X\x9aX\x80\x80\x0e\xe3\xbf'
p6548
tp6549
bag3
(g4
(I0
tp6550
g6
tp6551
Rp6552
(g1198
I1
(tg1202
I00
S'\xb4\x85G\rI\xe4\xde\xbf'
p6553
tp6554
bag3
(g4
(I0
tp6555
g6
tp6556
Rp6557
(g1211
I1
(tg1215
I00
S'X\x04o\xf3sS\x02\xc0'
p6558
tp6559
basS'zstar'
p6560
(lp6561
g3
(g4
(I0
tp6562
g6
tp6563
Rp6564
(g13
I1
(tg19
I00
S'\x02\x8b\xba\x0f\x9b\x92U?'
p6565
tp6566
bag3
(g4
(I0
tp6567
g6
tp6568
Rp6569
(g28
I1
(tg32
I00
S'\x14\xa1\xd3}\xc8\xf6b?'
p6570
tp6571
bag3
(g4
(I0
tp6572
g6
tp6573
Rp6574
(g41
I1
(tg45
I00
S'\xbe\x9b\x1b\x05\xdf\x9d)?'
p6575
tp6576
bag3
(g4
(I0
tp6577
g6
tp6578
Rp6579
(g54
I1
(tg58
I00
S'\x18\xe4\xa1\xe8\xc20\x9d?'
p6580
tp6581
bag3
(g4
(I0
tp6582
g6
tp6583
Rp6584
(g67
I1
(tg71
I00
S'M\x14\xac\xa9\xd9&7?'
p6585
tp6586
bag3
(g4
(I0
tp6587
g6
tp6588
Rp6589
(g80
I1
(tg84
I00
S'ka\x08\x16\xfdw5?'
p6590
tp6591
bag3
(g4
(I0
tp6592
g6
tp6593
Rp6594
(g93
I1
(tg97
I00
S'\xd9\xb2H\xf3\xc4\xeav?'
p6595
tp6596
bag3
(g4
(I0
tp6597
g6
tp6598
Rp6599
(g106
I1
(tg110
I00
S't#\x85\xf1\xc2\xe55?'
p6600
tp6601
bag3
(g4
(I0
tp6602
g6
tp6603
Rp6604
(g119
I1
(tg123
I00
S'h\x1bg\x9d\x82\x83:?'
p6605
tp6606
bag3
(g4
(I0
tp6607
g6
tp6608
Rp6609
(g132
I1
(tg136
I00
S' \xd3Dm\xef\xe20?'
p6610
tp6611
bag3
(g4
(I0
tp6612
g6
tp6613
Rp6614
(g145
I1
(tg149
I00
S'\xf8\x11\x8e\xc1i\xe3[?'
p6615
tp6616
bag3
(g4
(I0
tp6617
g6
tp6618
Rp6619
(g158
I1
(tg162
I00
S'\x12\x94(#\xedD8?'
p6620
tp6621
bag3
(g4
(I0
tp6622
g6
tp6623
Rp6624
(g171
I1
(tg175
I00
S'\xe3i\x1fV\xde\xfba?'
p6625
tp6626
bag3
(g4
(I0
tp6627
g6
tp6628
Rp6629
(g184
I1
(tg188
I00
S'\xe5\xc2\x15\xb4/3Z?'
p6630
tp6631
bag3
(g4
(I0
tp6632
g6
tp6633
Rp6634
(g197
I1
(tg201
I00
S'\xd6\x00#\xbf\\\x82M?'
p6635
tp6636
bag3
(g4
(I0
tp6637
g6
tp6638
Rp6639
(g210
I1
(tg214
I00
S'\xc0\x89\xd8\x87\xd8\x1f\x9a?'
p6640
tp6641
bag3
(g4
(I0
tp6642
g6
tp6643
Rp6644
(g223
I1
(tg227
I00
S'(\x9a\xd0\xc0\x87\x844?'
p6645
tp6646
bag3
(g4
(I0
tp6647
g6
tp6648
Rp6649
(g236
I1
(tg240
I00
S'.\x1eA/\xba43?'
p6650
tp6651
bag3
(g4
(I0
tp6652
g6
tp6653
Rp6654
(g249
I1
(tg253
I00
S'A\x8fj\x005\xdc4?'
p6655
tp6656
bag3
(g4
(I0
tp6657
g6
tp6658
Rp6659
(g262
I1
(tg266
I00
S'T\xb5\xac\x8a\x86\xad3?'
p6660
tp6661
bag3
(g4
(I0
tp6662
g6
tp6663
Rp6664
(g275
I1
(tg279
I00
S'^lg!\x9f6\x9b?'
p6665
tp6666
bag3
(g4
(I0
tp6667
g6
tp6668
Rp6669
(g288
I1
(tg292
I00
S'!\xa9s\x7fw\x8c4?'
p6670
tp6671
bag3
(g4
(I0
tp6672
g6
tp6673
Rp6674
(g301
I1
(tg305
I00
S'\xb4\x07Ef\xfc\xda\x84?'
p6675
tp6676
bag3
(g4
(I0
tp6677
g6
tp6678
Rp6679
(g314
I1
(tg318
I00
S'\xbc,\xbd\x87k^6?'
p6680
tp6681
bag3
(g4
(I0
tp6682
g6
tp6683
Rp6684
(g327
I1
(tg331
I00
S'\xd3(\xb1p>\xe9a?'
p6685
tp6686
bag3
(g4
(I0
tp6687
g6
tp6688
Rp6689
(g340
I1
(tg344
I00
S'(\x89O\x99XR9?'
p6690
tp6691
bag3
(g4
(I0
tp6692
g6
tp6693
Rp6694
(g353
I1
(tg357
I00
S'D\x93\x9eETh7?'
p6695
tp6696
bag3
(g4
(I0
tp6697
g6
tp6698
Rp6699
(g366
I1
(tg370
I00
S'\xe3\xe4h\xe9\xca\xc13?'
p6700
tp6701
bag3
(g4
(I0
tp6702
g6
tp6703
Rp6704
(g379
I1
(tg383
I00
S'7\x14\r\x88\xdb\xec\x82?'
p6705
tp6706
bag3
(g4
(I0
tp6707
g6
tp6708
Rp6709
(g392
I1
(tg396
I00
S'\xb1\x86\xec\xddHDw?'
p6710
tp6711
bag3
(g4
(I0
tp6712
g6
tp6713
Rp6714
(g405
I1
(tg409
I00
S'l\xb4\x19|\xfb\xb1\x82?'
p6715
tp6716
bag3
(g4
(I0
tp6717
g6
tp6718
Rp6719
(g418
I1
(tg422
I00
S'#\xado\xb7UPq?'
p6720
tp6721
bag3
(g4
(I0
tp6722
g6
tp6723
Rp6724
(g431
I1
(tg435
I00
S'\xe0\x1f\xf7x\xbba\x90?'
p6725
tp6726
bag3
(g4
(I0
tp6727
g6
tp6728
Rp6729
(g444
I1
(tg448
I00
S'\xf4\x13\xae\xed\xa0\x8bJ?'
p6730
tp6731
bag3
(g4
(I0
tp6732
g6
tp6733
Rp6734
(g457
I1
(tg461
I00
S'N\xadg\xbf\xbc^4?'
p6735
tp6736
bag3
(g4
(I0
tp6737
g6
tp6738
Rp6739
(g470
I1
(tg474
I00
S'?\xa3Y\x97c\xcd\x9a?'
p6740
tp6741
bag3
(g4
(I0
tp6742
g6
tp6743
Rp6744
(g483
I1
(tg487
I00
S'\xb8\x97\xf8\xe1\xec\xf0C?'
p6745
tp6746
bag3
(g4
(I0
tp6747
g6
tp6748
Rp6749
(g496
I1
(tg500
I00
S'\x1a\x8a\x80\x17j\x85??'
p6750
tp6751
bag3
(g4
(I0
tp6752
g6
tp6753
Rp6754
(g509
I1
(tg513
I00
S'CkS\xce\x94\xe2H?'
p6755
tp6756
bag3
(g4
(I0
tp6757
g6
tp6758
Rp6759
(g522
I1
(tg526
I00
S'\x8b\x1d\x06\x15_\xc3\x84?'
p6760
tp6761
bag3
(g4
(I0
tp6762
g6
tp6763
Rp6764
(g535
I1
(tg539
I00
S'\xdf\xbd\xe0\x9a\xe9:E?'
p6765
tp6766
bag3
(g4
(I0
tp6767
g6
tp6768
Rp6769
(g548
I1
(tg552
I00
S'\x17\xfd\xbb\xfdb^s?'
p6770
tp6771
bag3
(g4
(I0
tp6772
g6
tp6773
Rp6774
(g561
I1
(tg565
I00
S'\x18\xb8\x88v-UT?'
p6775
tp6776
bag3
(g4
(I0
tp6777
g6
tp6778
Rp6779
(g574
I1
(tg578
I00
S'\xff\x97\xdeY\x043@?'
p6780
tp6781
bag3
(g4
(I0
tp6782
g6
tp6783
Rp6784
(g587
I1
(tg591
I00
S'O\x8f\xd9\x8c^8s?'
p6785
tp6786
bag3
(g4
(I0
tp6787
g6
tp6788
Rp6789
(g600
I1
(tg604
I00
S'\x80\xb3\n<\xb0rj?'
p6790
tp6791
bag3
(g4
(I0
tp6792
g6
tp6793
Rp6794
(g613
I1
(tg617
I00
S'L\xe3\xd5*\xdd\xb1r?'
p6795
tp6796
bag3
(g4
(I0
tp6797
g6
tp6798
Rp6799
(g626
I1
(tg630
I00
S'=\x94iQ;\xac\x95?'
p6800
tp6801
bag3
(g4
(I0
tp6802
g6
tp6803
Rp6804
(g639
I1
(tg643
I00
S',\xf7\xa7b\x0e\x08E?'
p6805
tp6806
bag3
(g4
(I0
tp6807
g6
tp6808
Rp6809
(g652
I1
(tg656
I00
S'e[/M{\xbc\x8e?'
p6810
tp6811
bag3
(g4
(I0
tp6812
g6
tp6813
Rp6814
(g665
I1
(tg669
I00
S'\xab\xd1#\xe1\xd6\x9d9?'
p6815
tp6816
bag3
(g4
(I0
tp6817
g6
tp6818
Rp6819
(g678
I1
(tg682
I00
S'M\xd7\xe9]D\xd4:?'
p6820
tp6821
bag3
(g4
(I0
tp6822
g6
tp6823
Rp6824
(g691
I1
(tg695
I00
S'\xd1|`\xa9\xaf\xbe\x1e?'
p6825
tp6826
bag3
(g4
(I0
tp6827
g6
tp6828
Rp6829
(g704
I1
(tg708
I00
S'@\xe4\xbd#\x11\xa2D?'
p6830
tp6831
bag3
(g4
(I0
tp6832
g6
tp6833
Rp6834
(g717
I1
(tg721
I00
S'\xe7\xdc\x8a\x0bY/D?'
p6835
tp6836
bag3
(g4
(I0
tp6837
g6
tp6838
Rp6839
(g730
I1
(tg734
I00
S'\xc51l\xa2e\xeap?'
p6840
tp6841
bag3
(g4
(I0
tp6842
g6
tp6843
Rp6844
(g743
I1
(tg747
I00
S'\x177.\xc1\xc4)N?'
p6845
tp6846
bag3
(g4
(I0
tp6847
g6
tp6848
Rp6849
(g756
I1
(tg760
I00
S'\x1e\x97\x95\xfbC}1?'
p6850
tp6851
bag3
(g4
(I0
tp6852
g6
tp6853
Rp6854
(g769
I1
(tg773
I00
S'a\x8en=9\x08L?'
p6855
tp6856
bag3
(g4
(I0
tp6857
g6
tp6858
Rp6859
(g782
I1
(tg786
I00
S'\xd2\x89M\r\xe4\x05\x8f?'
p6860
tp6861
bag3
(g4
(I0
tp6862
g6
tp6863
Rp6864
(g795
I1
(tg799
I00
S'\x18EY)\x8b+L?'
p6865
tp6866
bag3
(g4
(I0
tp6867
g6
tp6868
Rp6869
(g808
I1
(tg812
I00
S'\x87\xee\xd2\xf5\xd0\x8e\x1a?'
p6870
tp6871
bag3
(g4
(I0
tp6872
g6
tp6873
Rp6874
(g821
I1
(tg825
I00
S'\xab\xad\x9e\xc0\xdd\x9d\x90?'
p6875
tp6876
bag3
(g4
(I0
tp6877
g6
tp6878
Rp6879
(g834
I1
(tg838
I00
S'\x82\xef\xa5\x9cR7y?'
p6880
tp6881
bag3
(g4
(I0
tp6882
g6
tp6883
Rp6884
(g847
I1
(tg851
I00
S'\xfb\x124(MV4?'
p6885
tp6886
bag3
(g4
(I0
tp6887
g6
tp6888
Rp6889
(g860
I1
(tg864
I00
S'\xcf\xe4\xc8ww\xfd\x92?'
p6890
tp6891
bag3
(g4
(I0
tp6892
g6
tp6893
Rp6894
(g873
I1
(tg877
I00
S'\xffN\xcd\x14\xa2!o?'
p6895
tp6896
bag3
(g4
(I0
tp6897
g6
tp6898
Rp6899
(g886
I1
(tg890
I00
S'\x91\r\xac\x05\xab\x891?'
p6900
tp6901
bag3
(g4
(I0
tp6902
g6
tp6903
Rp6904
(g899
I1
(tg903
I00
S'\x8al<\xa2\xce\xdcv?'
p6905
tp6906
bag3
(g4
(I0
tp6907
g6
tp6908
Rp6909
(g912
I1
(tg916
I00
S'\xba\x89c\x03?B\x93?'
p6910
tp6911
bag3
(g4
(I0
tp6912
g6
tp6913
Rp6914
(g925
I1
(tg929
I00
S'<!|C`\x1a\x99?'
p6915
tp6916
bag3
(g4
(I0
tp6917
g6
tp6918
Rp6919
(g938
I1
(tg942
I00
S'\x11!8\xffBR\x97?'
p6920
tp6921
bag3
(g4
(I0
tp6922
g6
tp6923
Rp6924
(g951
I1
(tg955
I00
S'f\xa9\x86\xd0\xd3\xf6\x99?'
p6925
tp6926
bag3
(g4
(I0
tp6927
g6
tp6928
Rp6929
(g964
I1
(tg968
I00
S'D\xdf.{l;\x96?'
p6930
tp6931
bag3
(g4
(I0
tp6932
g6
tp6933
Rp6934
(g977
I1
(tg981
I00
S'\xab\x97\xf9\x84\xee\xc5W?'
p6935
tp6936
bag3
(g4
(I0
tp6937
g6
tp6938
Rp6939
(g990
I1
(tg994
I00
S'+C\x1c\xeb\xe26\x1a?'
p6940
tp6941
bag3
(g4
(I0
tp6942
g6
tp6943
Rp6944
(g1003
I1
(tg1007
I00
S'v\xcc\xe0}\xda\xafL?'
p6945
tp6946
bag3
(g4
(I0
tp6947
g6
tp6948
Rp6949
(g1016
I1
(tg1020
I00
S'\x9fW\x0c\x83$4\x1b?'
p6950
tp6951
bag3
(g4
(I0
tp6952
g6
tp6953
Rp6954
(g1029
I1
(tg1033
I00
S"\x0e\xad\x00\x1bgY'?"
p6955
tp6956
bag3
(g4
(I0
tp6957
g6
tp6958
Rp6959
(g1042
I1
(tg1046
I00
S'\x1e\x8b\xd4\xb6>93?'
p6960
tp6961
bag3
(g4
(I0
tp6962
g6
tp6963
Rp6964
(g1055
I1
(tg1059
I00
S'\xac\xd1\xbcYe\xbe\x1b?'
p6965
tp6966
bag3
(g4
(I0
tp6967
g6
tp6968
Rp6969
(g1068
I1
(tg1072
I00
S'W\xfd\x13\t\x82\x85s?'
p6970
tp6971
bag3
(g4
(I0
tp6972
g6
tp6973
Rp6974
(g1081
I1
(tg1085
I00
S'\n~}\x81\xde\xe5\x8d?'
p6975
tp6976
bag3
(g4
(I0
tp6977
g6
tp6978
Rp6979
(g1094
I1
(tg1098
I00
S'\xcb\x16^\x93\x9c\x153?'
p6980
tp6981
bag3
(g4
(I0
tp6982
g6
tp6983
Rp6984
(g1107
I1
(tg1111
I00
S'-C\x1c\xeb\xe26\x1a?'
p6985
tp6986
bag3
(g4
(I0
tp6987
g6
tp6988
Rp6989
(g1120
I1
(tg1124
I00
S'\xf9\xd8\xe1\xdf\xa4\xddL?'
p6990
tp6991
bag3
(g4
(I0
tp6992
g6
tp6993
Rp6994
(g1133
I1
(tg1137
I00
S'}\x14\xc9\xd59\x85K?'
p6995
tp6996
bag3
(g4
(I0
tp6997
g6
tp6998
Rp6999
(g1146
I1
(tg1150
I00
S'\x95\xe2\xc0\xe9y\xc9W?'
p7000
tp7001
bag3
(g4
(I0
tp7002
g6
tp7003
Rp7004
(g1159
I1
(tg1163
I00
S'\xa8"\x8b\x89\xd3\x8aU?'
p7005
tp7006
bag3
(g4
(I0
tp7007
g6
tp7008
Rp7009
(g1172
I1
(tg1176
I00
S'\xf1\x8f\x12\x04L\xdaU?'
p7010
tp7011
bag3
(g4
(I0
tp7012
g6
tp7013
Rp7014
(g1185
I1
(tg1189
I00
S'-\xf0n~\x89;\x8f?'
p7015
tp7016
bag3
(g4
(I0
tp7017
g6
tp7018
Rp7019
(g1198
I1
(tg1202
I00
S'T)\x9c\xc7m\x9e\x8d?'
p7020
tp7021
bag3
(g4
(I0
tp7022
g6
tp7023
Rp7024
(g1211
I1
(tg1215
I00
S'\xbf\xcb\xd6\xaf\xb3q1?'
p7025
tp7026
basS'mgas'
p7027
(lp7028
g3
(g4
(I0
tp7029
g6
tp7030
Rp7031
(g3562
I1
(tg19
I00
S'\xf6B\xda!\x94^\xe1A'
p7032
tp7033
bag3
(g4
(I0
tp7034
g6
tp7035
Rp7036
(g3592
I1
(tg32
I00
S'\xca\xa1Z\xf1\x96\x04\xd9A'
p7037
tp7038
bag3
(g4
(I0
tp7039
g6
tp7040
Rp7041
(g3604
I1
(tg45
I00
S'Z\x13\xe0%U\xb4\xa7A'
p7042
tp7043
bag3
(g4
(I0
tp7044
g6
tp7045
Rp7046
(g3616
I1
(tg58
I00
S'\xb2hV>\xdax\xd3A'
p7047
tp7048
bag3
(g4
(I0
tp7049
g6
tp7050
Rp7051
(g3628
I1
(tg71
I00
S'>\x1b\xc0\xa4\x18\x82oA'
p7052
tp7053
bag3
(g4
(I0
tp7054
g6
tp7055
Rp7056
(g3640
I1
(tg84
I00
S'c4\xdc3i\xfc\x13A'
p7057
tp7058
bag3
(g4
(I0
tp7059
g6
tp7060
Rp7061
(g3652
I1
(tg97
I00
S'j\x00Y\xac2u\xd8A'
p7062
tp7063
bag3
(g4
(I0
tp7064
g6
tp7065
Rp7066
(g3664
I1
(tg110
I00
S'\x16\xe7G\xa6\x05\x06\xa2A'
p7067
tp7068
bag3
(g4
(I0
tp7069
g6
tp7070
Rp7071
(g3676
I1
(tg123
I00
S'L;XR\xf9\xaflA'
p7072
tp7073
bag3
(g4
(I0
tp7074
g6
tp7075
Rp7076
(g3688
I1
(tg136
I00
S'\xd0\xdct\xb6\x1e\x93WA'
p7077
tp7078
bag3
(g4
(I0
tp7079
g6
tp7080
Rp7081
(g3700
I1
(tg149
I00
S't9\x1eO\x0f2\xe7A'
p7082
tp7083
bag3
(g4
(I0
tp7084
g6
tp7085
Rp7086
(g3712
I1
(tg162
I00
S'\xbc\xd1\xddP\x03\xffrA'
p7087
tp7088
bag3
(g4
(I0
tp7089
g6
tp7090
Rp7091
(g3724
I1
(tg175
I00
S'j\x83\x00N\x8c\xc4\xe3A'
p7092
tp7093
bag3
(g4
(I0
tp7094
g6
tp7095
Rp7096
(g3736
I1
(tg188
I00
S'\xf2\x01\x15y)\x85\xe4A'
p7097
tp7098
bag3
(g4
(I0
tp7099
g6
tp7100
Rp7101
(g3748
I1
(tg201
I00
S';n\x8e\xe9\x14\xe2\xeaA'
p7102
tp7103
bag3
(g4
(I0
tp7104
g6
tp7105
Rp7106
(g3760
I1
(tg214
I00
S'\x84i`\x9d-\xc8\xf8A'
p7107
tp7108
bag3
(g4
(I0
tp7109
g6
tp7110
Rp7111
(g3772
I1
(tg227
I00
S'E\xbf\x9b\xf9\r`\x9fA'
p7112
tp7113
bag3
(g4
(I0
tp7114
g6
tp7115
Rp7116
(g3784
I1
(tg240
I00
S'WY\xfa>m\x82\x8dA'
p7117
tp7118
bag3
(g4
(I0
tp7119
g6
tp7120
Rp7121
(g3796
I1
(tg253
I00
S'm\x03\xb2\xe8\xf5\xfb\x8bA'
p7122
tp7123
bag3
(g4
(I0
tp7124
g6
tp7125
Rp7126
(g3808
I1
(tg266
I00
S'\xb7\x10JE\x92%MA'
p7127
tp7128
bag3
(g4
(I0
tp7129
g6
tp7130
Rp7131
(g3820
I1
(tg279
I00
S'\xfc\xbe\x1d\x9f\xf9\xbe\xf5A'
p7132
tp7133
bag3
(g4
(I0
tp7134
g6
tp7135
Rp7136
(g3832
I1
(tg292
I00
S"\xbb\x7f'5\xc2;JA"
p7137
tp7138
bag3
(g4
(I0
tp7139
g6
tp7140
Rp7141
(g3844
I1
(tg305
I00
S'\xd4\x1f\xec\xa1\xff\xed\xe2A'
p7142
tp7143
bag3
(g4
(I0
tp7144
g6
tp7145
Rp7146
(g3856
I1
(tg318
I00
S'Ql\x84L\x92%\x80A'
p7147
tp7148
bag3
(g4
(I0
tp7149
g6
tp7150
Rp7151
(g3868
I1
(tg331
I00
S'!/\xea6\x9eX\xe0A'
p7152
tp7153
bag3
(g4
(I0
tp7154
g6
tp7155
Rp7156
(g3880
I1
(tg344
I00
S'\xd7\x89\x0c\x8e\x07\x06vA'
p7157
tp7158
bag3
(g4
(I0
tp7159
g6
tp7160
Rp7161
(g3892
I1
(tg357
I00
S'n?\x11Q\t\x12\x92A'
p7162
tp7163
bag3
(g4
(I0
tp7164
g6
tp7165
Rp7166
(g3904
I1
(tg370
I00
S'\x8eJM\xcb\x94\xf9\x84A'
p7167
tp7168
bag3
(g4
(I0
tp7169
g6
tp7170
Rp7171
(g3916
I1
(tg383
I00
S'J\x05\x9al\xc0\xab\xe7A'
p7172
tp7173
bag3
(g4
(I0
tp7174
g6
tp7175
Rp7176
(g3928
I1
(tg396
I00
S'\xa5\xfbM8\x0c\x16\xf0A'
p7177
tp7178
bag3
(g4
(I0
tp7179
g6
tp7180
Rp7181
(g3940
I1
(tg409
I00
S'\x8b+?\xd6xB\xe8A'
p7182
tp7183
bag3
(g4
(I0
tp7184
g6
tp7185
Rp7186
(g3952
I1
(tg422
I00
S'\xf5\x0b\x03\x9e=\xfe\xedA'
p7187
tp7188
bag3
(g4
(I0
tp7189
g6
tp7190
Rp7191
(g3964
I1
(tg435
I00
S'\xc4\xd7\xd3;\x88\xae\xd8A'
p7192
tp7193
bag3
(g4
(I0
tp7194
g6
tp7195
Rp7196
(g3976
I1
(tg448
I00
S' \xd7\xcd\xb7\xa5\xcf\x81A'
p7197
tp7198
bag3
(g4
(I0
tp7199
g6
tp7200
Rp7201
(g3988
I1
(tg461
I00
S')67\x9d\xd0;\xb7A'
p7202
tp7203
bag3
(g4
(I0
tp7204
g6
tp7205
Rp7206
(g4000
I1
(tg474
I00
S'\x8a\xaa\xf8\xfb?\x84\xf2A'
p7207
tp7208
bag3
(g4
(I0
tp7209
g6
tp7210
Rp7211
(g4012
I1
(tg487
I00
S'F\xb1\r!\x8d\xe4\x9fA'
p7212
tp7213
bag3
(g4
(I0
tp7214
g6
tp7215
Rp7216
(g4024
I1
(tg500
I00
S'\x8a\xb0\x9b6\xd8\xcfTA'
p7217
tp7218
bag3
(g4
(I0
tp7219
g6
tp7220
Rp7221
(g4036
I1
(tg513
I00
S'\xe4i\x8c\xc9T\x06\x7fA'
p7222
tp7223
bag3
(g4
(I0
tp7224
g6
tp7225
Rp7226
(g4048
I1
(tg526
I00
S'\x80\x0c\x07\x84\xe8\xe0\xf1A'
p7227
tp7228
bag3
(g4
(I0
tp7229
g6
tp7230
Rp7231
(g4060
I1
(tg539
I00
S"\xc2\xb3'(\x8fC\x95A"
p7232
tp7233
bag3
(g4
(I0
tp7234
g6
tp7235
Rp7236
(g4072
I1
(tg552
I00
S'\x83\\\xc2\xf8\x92\x99\xf5A'
p7237
tp7238
bag3
(g4
(I0
tp7239
g6
tp7240
Rp7241
(g4084
I1
(tg565
I00
S'r]b"\xcb\xd5\xddA'
p7242
tp7243
bag3
(g4
(I0
tp7244
g6
tp7245
Rp7246
(g4096
I1
(tg578
I00
S'\x9e\r\x81\x8a4\x12\xb5A'
p7247
tp7248
bag3
(g4
(I0
tp7249
g6
tp7250
Rp7251
(g4108
I1
(tg591
I00
S'\xf9a\xc1\xc7\x1d\x80\x01B'
p7252
tp7253
bag3
(g4
(I0
tp7254
g6
tp7255
Rp7256
(g4120
I1
(tg604
I00
S'\x95\xd5p"\xf1\xa6\xfeA'
p7257
tp7258
bag3
(g4
(I0
tp7259
g6
tp7260
Rp7261
(g4132
I1
(tg617
I00
S'\xb9\x9c\x05\xc1\xf0O\xf8A'
p7262
tp7263
bag3
(g4
(I0
tp7264
g6
tp7265
Rp7266
(g4144
I1
(tg630
I00
S'\xca\xdb\x0b\xa9l\x04\xd9A'
p7267
tp7268
bag3
(g4
(I0
tp7269
g6
tp7270
Rp7271
(g4156
I1
(tg643
I00
S'\xeec\xd5\x08~\xd5\x93A'
p7272
tp7273
bag3
(g4
(I0
tp7274
g6
tp7275
Rp7276
(g4168
I1
(tg656
I00
S'\x8ey\x8d\x88H\x88\xedA'
p7277
tp7278
bag3
(g4
(I0
tp7279
g6
tp7280
Rp7281
(g4180
I1
(tg669
I00
S'F\xfa\xd12Rl\xb4A'
p7282
tp7283
bag3
(g4
(I0
tp7284
g6
tp7285
Rp7286
(g4192
I1
(tg682
I00
S'()%\xd2\xe71\xaeA'
p7287
tp7288
bag3
(g4
(I0
tp7289
g6
tp7290
Rp7291
(g4204
I1
(tg695
I00
S'\x90\x9f\xf8\xb6[\xeb\x8cA'
p7292
tp7293
bag3
(g4
(I0
tp7294
g6
tp7295
Rp7296
(g4216
I1
(tg708
I00
S'\x84 5z\xfe\xa7\xc0A'
p7297
tp7298
bag3
(g4
(I0
tp7299
g6
tp7300
Rp7301
(g4228
I1
(tg721
I00
S'\xaf\xe7\xa6@\xe0s\xc8A'
p7302
tp7303
bag3
(g4
(I0
tp7304
g6
tp7305
Rp7306
(g4240
I1
(tg734
I00
S'\xe3\xe5$\xcb\xd9\x97\x01B'
p7307
tp7308
bag3
(g4
(I0
tp7309
g6
tp7310
Rp7311
(g4252
I1
(tg747
I00
S'\x9c\xf6\xba\xe6OH\xa0A'
p7312
tp7313
bag3
(g4
(I0
tp7314
g6
tp7315
Rp7316
(g4264
I1
(tg760
I00
S'V\xbe$W\xb6\xcaSA'
p7317
tp7318
bag3
(g4
(I0
tp7319
g6
tp7320
Rp7321
(g4276
I1
(tg773
I00
S'\xc9\xac\x16\x83\xa2a\xb3A'
p7322
tp7323
bag3
(g4
(I0
tp7324
g6
tp7325
Rp7326
(g4288
I1
(tg786
I00
S'w\x06\xffD\xc9\xcb\xf1A'
p7327
tp7328
bag3
(g4
(I0
tp7329
g6
tp7330
Rp7331
(g4300
I1
(tg799
I00
S'\xf5\x86\x9a\n\xa4r\x9fA'
p7332
tp7333
bag3
(g4
(I0
tp7334
g6
tp7335
Rp7336
(g4312
I1
(tg812
I00
S'\xf9u\xbbu\xf8[AA'
p7337
tp7338
bag3
(g4
(I0
tp7339
g6
tp7340
Rp7341
(g4324
I1
(tg825
I00
S'\x93K\xb1\x92}!\xeeA'
p7342
tp7343
bag3
(g4
(I0
tp7344
g6
tp7345
Rp7346
(g4336
I1
(tg838
I00
S'\x99\xd4\xef~\xe1)\x0bB'
p7347
tp7348
bag3
(g4
(I0
tp7349
g6
tp7350
Rp7351
(g4348
I1
(tg851
I00
S'\x06\xac\x9bG\xe1?QA'
p7352
tp7353
bag3
(g4
(I0
tp7354
g6
tp7355
Rp7356
(g4360
I1
(tg864
I00
S'$\xc9\x94\xf0[5\xe3A'
p7357
tp7358
bag3
(g4
(I0
tp7359
g6
tp7360
Rp7361
(g4372
I1
(tg877
I00
S'\x87\xaa\x9e\x16\x85\x1e\xc6A'
p7362
tp7363
bag3
(g4
(I0
tp7364
g6
tp7365
Rp7366
(g4384
I1
(tg890
I00
S'\x8f!\x82\x01~\xa4HA'
p7367
tp7368
bag3
(g4
(I0
tp7369
g6
tp7370
Rp7371
(g4396
I1
(tg903
I00
S'\xa2W\xc4\xc6\x98B\nB'
p7372
tp7373
bag3
(g4
(I0
tp7374
g6
tp7375
Rp7376
(g4408
I1
(tg916
I00
S'\xbaI\xec?\xfe`\xfeA'
p7377
tp7378
bag3
(g4
(I0
tp7379
g6
tp7380
Rp7381
(g4420
I1
(tg929
I00
S'\x1d\xc8\xef\x1b\xdeX\xf0A'
p7382
tp7383
bag3
(g4
(I0
tp7384
g6
tp7385
Rp7386
(g4432
I1
(tg942
I00
S'\xe7\xaeL\x0f_\x8e\xf5A'
p7387
tp7388
bag3
(g4
(I0
tp7389
g6
tp7390
Rp7391
(g4444
I1
(tg955
I00
S'\xf4\x9d\xb9w}\x0b\xe7A'
p7392
tp7393
bag3
(g4
(I0
tp7394
g6
tp7395
Rp7396
(g4456
I1
(tg968
I00
S's79a\xd9D\xf1A'
p7397
tp7398
bag3
(g4
(I0
tp7399
g6
tp7400
Rp7401
(g4468
I1
(tg981
I00
S'+\x7f\x83\x10\xa5b\xc2A'
p7402
tp7403
bag3
(g4
(I0
tp7404
g6
tp7405
Rp7406
(g4480
I1
(tg994
I00
S'\xaf\x10\xfe\xd5jTPA'
p7407
tp7408
bag3
(g4
(I0
tp7409
g6
tp7410
Rp7411
(g4492
I1
(tg1007
I00
S'8X\xe4?\xd4c\xe3A'
p7412
tp7413
bag3
(g4
(I0
tp7414
g6
tp7415
Rp7416
(g4504
I1
(tg1020
I00
S'\xcag\x8a\xf0\xdc%\x8b@'
p7417
tp7418
bag3
(g4
(I0
tp7419
g6
tp7420
Rp7421
(g4516
I1
(tg1033
I00
S'\x14\xf5\xc7\xdc{\t:A'
p7422
tp7423
bag3
(g4
(I0
tp7424
g6
tp7425
Rp7426
(g4528
I1
(tg1046
I00
S'%\xfb\x18\x98\xa6\xbdVA'
p7427
tp7428
bag3
(g4
(I0
tp7429
g6
tp7430
Rp7431
(g4540
I1
(tg1059
I00
S'v\x00!\xbaf>-A'
p7432
tp7433
bag3
(g4
(I0
tp7434
g6
tp7435
Rp7436
(g4552
I1
(tg1072
I00
S'\x1b\x8a*1\x7f>\xfaA'
p7437
tp7438
bag3
(g4
(I0
tp7439
g6
tp7440
Rp7441
(g4564
I1
(tg1085
I00
S'LF\x06Y\x82\xd4\xf8A'
p7442
tp7443
bag3
(g4
(I0
tp7444
g6
tp7445
Rp7446
(g4576
I1
(tg1098
I00
S'\\\xfaA5\xbb{[A'
p7447
tp7448
bag3
(g4
(I0
tp7449
g6
tp7450
Rp7451
(g4588
I1
(tg1111
I00
S'\xe8B\xdd\x82\xbb\x11RA'
p7452
tp7453
bag3
(g4
(I0
tp7454
g6
tp7455
Rp7456
(g4600
I1
(tg1124
I00
S'\xa3\xa8\xaa\x89\x89!\xb3A'
p7457
tp7458
bag3
(g4
(I0
tp7459
g6
tp7460
Rp7461
(g4612
I1
(tg1137
I00
S'Fl\xef@\x13\xff\xccA'
p7462
tp7463
bag3
(g4
(I0
tp7464
g6
tp7465
Rp7466
(g4624
I1
(tg1150
I00
S'X}S\xbc<\x8d\xd2A'
p7467
tp7468
bag3
(g4
(I0
tp7469
g6
tp7470
Rp7471
(g4636
I1
(tg1163
I00
S"\xb8$'\xa4\x10\xb3\xabA"
p7472
tp7473
bag3
(g4
(I0
tp7474
g6
tp7475
Rp7476
(g4648
I1
(tg1176
I00
S'\x94+0_Ug\xc2A'
p7477
tp7478
bag3
(g4
(I0
tp7479
g6
tp7480
Rp7481
(g4660
I1
(tg1189
I00
S'\x16]\x9b\xf5\xa5\x83\x11B'
p7482
tp7483
bag3
(g4
(I0
tp7484
g6
tp7485
Rp7486
(g4672
I1
(tg1202
I00
S'_@\\\xbe\x0cN\xf3A'
p7487
tp7488
bag3
(g4
(I0
tp7489
g6
tp7490
Rp7491
(g4684
I1
(tg1215
I00
S'"\xec\xec\xb6\xc7hJA'
p7492
tp7493
basS'oh_gas4'
p7494
(lp7495
g3
(g4
(I0
tp7496
g6
tp7497
Rp7498
(g13
I1
(tg19
I00
S'\xf0=\xbe\xd8\x96\xba\x1f@'
p7499
tp7500
bag3
(g4
(I0
tp7501
g6
tp7502
Rp7503
(g28
I1
(tg32
I00
S'\xb6\xb5\x04\xb1\xb4a @'
p7504
tp7505
bag3
(g4
(I0
tp7506
g6
tp7507
Rp7508
(g41
I1
(tg45
I00
S'\x9f,\xd0\xfbP\x92\x1b@'
p7509
tp7510
bag3
(g4
(I0
tp7511
g6
tp7512
Rp7513
(g54
I1
(tg58
I00
S'<b,O\x97\xb9"@'
p7514
tp7515
bag3
(g4
(I0
tp7516
g6
tp7517
Rp7518
(g67
I1
(tg71
I00
S"F'\xa5\xa5\xadH\x1d@"
p7519
tp7520
bag3
(g4
(I0
tp7521
g6
tp7522
Rp7523
(g80
I1
(tg84
I00
S';\xa9\xe0\x06..\x1d@'
p7524
tp7525
bag3
(g4
(I0
tp7526
g6
tp7527
Rp7528
(g93
I1
(tg97
I00
S'fkQ|\x16E!@'
p7529
tp7530
bag3
(g4
(I0
tp7531
g6
tp7532
Rp7533
(g106
I1
(tg110
I00
S'\xf5\x0e\xae\xddBu\x1b@'
p7534
tp7535
bag3
(g4
(I0
tp7536
g6
tp7537
Rp7538
(g119
I1
(tg123
I00
S'\xfb@\x95\x88\x8b\xa3\x1d@'
p7539
tp7540
bag3
(g4
(I0
tp7541
g6
tp7542
Rp7543
(g132
I1
(tg136
I00
S'\x16\x93\x01"\xb1\xc7\x1b@'
p7544
tp7545
bag3
(g4
(I0
tp7546
g6
tp7547
Rp7548
(g145
I1
(tg149
I00
S')\xfd\xbcO\xc0= @'
p7549
tp7550
bag3
(g4
(I0
tp7551
g6
tp7552
Rp7553
(g158
I1
(tg162
I00
S'@\x1bJ\xcf\x05\xd9\x1d@'
p7554
tp7555
bag3
(g4
(I0
tp7556
g6
tp7557
Rp7558
(g171
I1
(tg175
I00
S'p\x8a\xd4e\xced @'
p7559
tp7560
bag3
(g4
(I0
tp7561
g6
tp7562
Rp7563
(g184
I1
(tg188
I00
S'Y\xb2\x08Sa\x12 @'
p7564
tp7565
bag3
(g4
(I0
tp7566
g6
tp7567
Rp7568
(g197
I1
(tg201
I00
S'\xefm\x8a\x8e\x15\x1c\x1f@'
p7569
tp7570
bag3
(g4
(I0
tp7571
g6
tp7572
Rp7573
(g210
I1
(tg214
I00
S']\xd0;\xa6\xac\xea"@'
p7574
tp7575
bag3
(g4
(I0
tp7576
g6
tp7577
Rp7578
(g223
I1
(tg227
I00
S'7\xa7\xa3-\xd7\x05\x1d@'
p7579
tp7580
bag3
(g4
(I0
tp7581
g6
tp7582
Rp7583
(g236
I1
(tg240
I00
S'\xf9;\x89\xb6\x1an\x1c@'
p7584
tp7585
bag3
(g4
(I0
tp7586
g6
tp7587
Rp7588
(g249
I1
(tg253
I00
S'\x07\xa7$\xa8\xcc\xad\x1c@'
p7589
tp7590
bag3
(g4
(I0
tp7591
g6
tp7592
Rp7593
(g262
I1
(tg266
I00
S'/\xb4\xb6\xb9\xecu\x1c@'
p7594
tp7595
bag3
(g4
(I0
tp7596
g6
tp7597
Rp7598
(g275
I1
(tg279
I00
S',iP\xfb\x1b\xbd"@'
p7599
tp7600
bag3
(g4
(I0
tp7601
g6
tp7602
Rp7603
(g288
I1
(tg292
I00
S'\xa8J\x06p\xfb\xec\x1c@'
p7604
tp7605
bag3
(g4
(I0
tp7606
g6
tp7607
Rp7608
(g301
I1
(tg305
I00
S'FM\xc11\xd1\xa8!@'
p7609
tp7610
bag3
(g4
(I0
tp7611
g6
tp7612
Rp7613
(g314
I1
(tg318
I00
S'\xael\x8b\x01\xf6c\x1d@'
p7614
tp7615
bag3
(g4
(I0
tp7616
g6
tp7617
Rp7618
(g327
I1
(tg331
I00
S'(FL\xb0\xc5C @'
p7619
tp7620
bag3
(g4
(I0
tp7621
g6
tp7622
Rp7623
(g340
I1
(tg344
I00
S'\r\xa5\x96m9\x96\x1d@'
p7624
tp7625
bag3
(g4
(I0
tp7626
g6
tp7627
Rp7628
(g353
I1
(tg357
I00
S'YB\xec\xe7\xb3.\x1d@'
p7629
tp7630
bag3
(g4
(I0
tp7631
g6
tp7632
Rp7633
(g366
I1
(tg370
I00
S'\xe7Q\n\x80\xe8\x06\x1d@'
p7634
tp7635
bag3
(g4
(I0
tp7636
g6
tp7637
Rp7638
(g379
I1
(tg383
I00
S'SVa0\xaa\x9b!@'
p7639
tp7640
bag3
(g4
(I0
tp7641
g6
tp7642
Rp7643
(g392
I1
(tg396
I00
S'K_M\x96\xc43!@'
p7644
tp7645
bag3
(g4
(I0
tp7646
g6
tp7647
Rp7648
(g405
I1
(tg409
I00
S'\x855\xc3\xdc\x08\xcc!@'
p7649
tp7650
bag3
(g4
(I0
tp7651
g6
tp7652
Rp7653
(g418
I1
(tg422
I00
S'\xc8\xa1-{u\xec @'
p7654
tp7655
bag3
(g4
(I0
tp7656
g6
tp7657
Rp7658
(g431
I1
(tg435
I00
S'P\xde\xe7\xc9\xa9\x15"@'
p7659
tp7660
bag3
(g4
(I0
tp7661
g6
tp7662
Rp7663
(g444
I1
(tg448
I00
S'\x83\xeb\x9a\x9f\xfb"\x1f@'
p7664
tp7665
bag3
(g4
(I0
tp7666
g6
tp7667
Rp7668
(g457
I1
(tg461
I00
S'\xc7\x1e`#\x88\x0c\x1d@'
p7669
tp7670
bag3
(g4
(I0
tp7671
g6
tp7672
Rp7673
(g470
I1
(tg474
I00
S'4\xcf\xc0\x93\xac\xcd"@'
p7674
tp7675
bag3
(g4
(I0
tp7676
g6
tp7677
Rp7678
(g483
I1
(tg487
I00
S'\xcf\xb1x\x98Q\xe7\x1d@'
p7679
tp7680
bag3
(g4
(I0
tp7681
g6
tp7682
Rp7683
(g496
I1
(tg500
I00
S'\x81\xe0T\x15C\xd7\x1d@'
p7684
tp7685
bag3
(g4
(I0
tp7686
g6
tp7687
Rp7688
(g509
I1
(tg513
I00
S'\x1f\xcaTAz\xf8\x1e@'
p7689
tp7690
bag3
(g4
(I0
tp7691
g6
tp7692
Rp7693
(g522
I1
(tg526
I00
S'\n\xe9\x83\x19\xfc\xc7!@'
p7694
tp7695
bag3
(g4
(I0
tp7696
g6
tp7697
Rp7698
(g535
I1
(tg539
I00
S')f\x16ZJ#\x1e@'
p7699
tp7700
bag3
(g4
(I0
tp7701
g6
tp7702
Rp7703
(g548
I1
(tg552
I00
S'\xa2WZ\xd9\x85\xfd @'
p7704
tp7705
bag3
(g4
(I0
tp7706
g6
tp7707
Rp7708
(g561
I1
(tg565
I00
S'\xe9M\x8f8\xf9\x80\x1f@'
p7709
tp7710
bag3
(g4
(I0
tp7711
g6
tp7712
Rp7713
(g574
I1
(tg578
I00
S'I\xd9h\xe3-\x9d\x1d@'
p7714
tp7715
bag3
(g4
(I0
tp7716
g6
tp7717
Rp7718
(g587
I1
(tg591
I00
S'\xe1\xdf\x16\x85\x0c\xf3 @'
p7719
tp7720
bag3
(g4
(I0
tp7721
g6
tp7722
Rp7723
(g600
I1
(tg604
I00
S'\xee\xfbx\xc9\x1e\xa2 @'
p7724
tp7725
bag3
(g4
(I0
tp7726
g6
tp7727
Rp7728
(g613
I1
(tg617
I00
S'\x93\xa5!\x86\xe3\xe5 @'
p7729
tp7730
bag3
(g4
(I0
tp7731
g6
tp7732
Rp7733
(g626
I1
(tg630
I00
S'\xae\xb8\x8a\x81\xb5j"@'
p7734
tp7735
bag3
(g4
(I0
tp7736
g6
tp7737
Rp7738
(g639
I1
(tg643
I00
S'7O\xd8\xd2\x93\xe6\x1e@'
p7739
tp7740
bag3
(g4
(I0
tp7741
g6
tp7742
Rp7743
(g652
I1
(tg656
I00
S'\x93\xcb\x12\x97@\x12"@'
p7744
tp7745
bag3
(g4
(I0
tp7746
g6
tp7747
Rp7748
(g665
I1
(tg669
I00
S'9\x95\xf2]\xd8:\x1d@'
p7749
tp7750
bag3
(g4
(I0
tp7751
g6
tp7752
Rp7753
(g678
I1
(tg682
I00
S'\x9cJ\x10\xce /\x1d@'
p7754
tp7755
bag3
(g4
(I0
tp7756
g6
tp7757
Rp7758
(g691
I1
(tg695
I00
S'\xc1\xda\xeb\xd3\xd2\x1d\x17@'
p7759
tp7760
bag3
(g4
(I0
tp7761
g6
tp7762
Rp7763
(g704
I1
(tg708
I00
S'\\#}\x8d\x16f\x1e@'
p7764
tp7765
bag3
(g4
(I0
tp7766
g6
tp7767
Rp7768
(g717
I1
(tg721
I00
S'\xb3\x03\x027R$\x1e@'
p7769
tp7770
bag3
(g4
(I0
tp7771
g6
tp7772
Rp7773
(g730
I1
(tg734
I00
S'PM\x85b\xd0\xd1 @'
p7774
tp7775
bag3
(g4
(I0
tp7776
g6
tp7777
Rp7778
(g743
I1
(tg747
I00
S'\xd7\xa0I\xda^\x1c\x1f@'
p7779
tp7780
bag3
(g4
(I0
tp7781
g6
tp7782
Rp7783
(g756
I1
(tg760
I00
S'KrE\x99\xd3\x87\x1c@'
p7784
tp7785
bag3
(g4
(I0
tp7786
g6
tp7787
Rp7788
(g769
I1
(tg773
I00
S'\x84\xe9\xf7\xda\xad\xd5\x1e@'
p7789
tp7790
bag3
(g4
(I0
tp7791
g6
tp7792
Rp7793
(g782
I1
(tg786
I00
S'ohRw\xdc+"@'
p7794
tp7795
bag3
(g4
(I0
tp7796
g6
tp7797
Rp7798
(g795
I1
(tg799
I00
S'\xab\xf7\x18j\x9c(\x1f@'
p7799
tp7800
bag3
(g4
(I0
tp7801
g6
tp7802
Rp7803
(g808
I1
(tg812
I00
S'\xae\r\xaa\xd1H\xb3\x19@'
p7804
tp7805
bag3
(g4
(I0
tp7806
g6
tp7807
Rp7808
(g821
I1
(tg825
I00
S'j\xb0\x10.\x11*"@'
p7809
tp7810
bag3
(g4
(I0
tp7811
g6
tp7812
Rp7813
(g834
I1
(tg838
I00
S'B\xdc\x02\xb1\xf7 !@'
p7814
tp7815
bag3
(g4
(I0
tp7816
g6
tp7817
Rp7818
(g847
I1
(tg851
I00
S'\xbd}\xc2G\xb9\x06\x1d@'
p7819
tp7820
bag3
(g4
(I0
tp7821
g6
tp7822
Rp7823
(g860
I1
(tg864
I00
S'>?\xd7\xb0#0"@'
p7824
tp7825
bag3
(g4
(I0
tp7826
g6
tp7827
Rp7828
(g873
I1
(tg877
I00
S'\x8c\xee\x84q\xb9\xcf @'
p7829
tp7830
bag3
(g4
(I0
tp7831
g6
tp7832
Rp7833
(g886
I1
(tg890
I00
S'\xb7\xbe\xea\xe50K\x1c@'
p7834
tp7835
bag3
(g4
(I0
tp7836
g6
tp7837
Rp7838
(g899
I1
(tg903
I00
S'~u\xc0\xa6?\x97 @'
p7839
tp7840
bag3
(g4
(I0
tp7841
g6
tp7842
Rp7843
(g912
I1
(tg916
I00
S'DR\xab*\x1f+"@'
p7844
tp7845
bag3
(g4
(I0
tp7846
g6
tp7847
Rp7848
(g925
I1
(tg929
I00
S'\xde*\xa0G\xdb\xcf"@'
p7849
tp7850
bag3
(g4
(I0
tp7851
g6
tp7852
Rp7853
(g938
I1
(tg942
I00
S'\x16\xf9\xc0\xae!\x81"@'
p7854
tp7855
bag3
(g4
(I0
tp7856
g6
tp7857
Rp7858
(g951
I1
(tg955
I00
S'\xb4\x89\x972X\xc8"@'
p7859
tp7860
bag3
(g4
(I0
tp7861
g6
tp7862
Rp7863
(g964
I1
(tg968
I00
S'RD\x18\x96M|"@'
p7864
tp7865
bag3
(g4
(I0
tp7866
g6
tp7867
Rp7868
(g977
I1
(tg981
I00
S'\xe7\x86\x9b\x008\x98\x1f@'
p7869
tp7870
bag3
(g4
(I0
tp7871
g6
tp7872
Rp7873
(g990
I1
(tg994
I00
S'H\x1fN\xea\n\xc4\x18@'
p7874
tp7875
bag3
(g4
(I0
tp7876
g6
tp7877
Rp7878
(g1003
I1
(tg1007
I00
S'\xe1L\x9c\xba\xd1\xb8\x1e@'
p7879
tp7880
bag3
(g4
(I0
tp7881
g6
tp7882
Rp7883
(g1016
I1
(tg1020
I00
S'\xb7\xf9\x88T\x95\xa9\x19@'
p7884
tp7885
bag3
(g4
(I0
tp7886
g6
tp7887
Rp7888
(g1029
I1
(tg1033
I00
S'\x86(\x84~W\xc3\x1c@'
p7889
tp7890
bag3
(g4
(I0
tp7891
g6
tp7892
Rp7893
(g1042
I1
(tg1046
I00
S'\xa9K\x9e_\x82m\x1d@'
p7894
tp7895
bag3
(g4
(I0
tp7896
g6
tp7897
Rp7898
(g1055
I1
(tg1059
I00
S'\xde`B;\x06-\x1b@'
p7899
tp7900
bag3
(g4
(I0
tp7901
g6
tp7902
Rp7903
(g1068
I1
(tg1072
I00
S'p\x8e*W$\xfb @'
p7904
tp7905
bag3
(g4
(I0
tp7906
g6
tp7907
Rp7908
(g1081
I1
(tg1085
I00
S'`\xf1\xc4\xcd\x8d\x13"@'
p7909
tp7910
bag3
(g4
(I0
tp7911
g6
tp7912
Rp7913
(g1094
I1
(tg1098
I00
S'\x01\xadY\xb8\xaeQ\x1d@'
p7914
tp7915
bag3
(g4
(I0
tp7916
g6
tp7917
Rp7918
(g1107
I1
(tg1111
I00
S'y$(\x85\xc5b\x14@'
p7919
tp7920
bag3
(g4
(I0
tp7921
g6
tp7922
Rp7923
(g1120
I1
(tg1124
I00
S'\x8f\xcef\x16^t\x1e@'
p7924
tp7925
bag3
(g4
(I0
tp7926
g6
tp7927
Rp7928
(g1133
I1
(tg1137
I00
S'=\x8f\xe6\xe0\xd5\x83\x1e@'
p7929
tp7930
bag3
(g4
(I0
tp7931
g6
tp7932
Rp7933
(g1146
I1
(tg1150
I00
S'\xc2\xd8e{\t\xd8\x1f@'
p7934
tp7935
bag3
(g4
(I0
tp7936
g6
tp7937
Rp7938
(g1159
I1
(tg1163
I00
S'\xfa\x98.\xa9\xf1\xa2\x1f@'
p7939
tp7940
bag3
(g4
(I0
tp7941
g6
tp7942
Rp7943
(g1172
I1
(tg1176
I00
S'\xfa\x16\xc8[^\xb7\x1f@'
p7944
tp7945
bag3
(g4
(I0
tp7946
g6
tp7947
Rp7948
(g1185
I1
(tg1189
I00
S'\xe9ViI\xd3\xf7!@'
p7949
tp7950
bag3
(g4
(I0
tp7951
g6
tp7952
Rp7953
(g1198
I1
(tg1202
I00
S'`-\x10a\xc5\x14"@'
p7954
tp7955
bag3
(g4
(I0
tp7956
g6
tp7957
Rp7958
(g1211
I1
(tg1215
I00
S'<\x82Y\xd67V\x1d@'
p7959
tp7960
basS'time'
p7961
(lp7962
F12.316096674593146
aF12.316096674593146
aF12.316101500170898
aF12.316096674593146
aF12.316101500170898
aF12.316101500170898
aF12.316096674593146
aF12.316101500170898
aF12.316101500170898
aF12.316101500170898
aF12.316096674593146
aF12.316101500170898
aF12.316096674593146
aF12.316096674593146
aF12.316096674593146
aF12.316096674593146
aF12.316101500170898
aF12.316101500170898
aF12.316101500170898
aF12.316101500170898
aF12.316096674593146
aF12.316101500170898
aF12.316096674593146
aF12.316101500170898
aF12.316096674593146
aF12.316101500170898
aF12.316101500170898
aF12.316101500170898
aF12.316096674593146
aF12.316096674593146
aF12.316096674593146
aF12.316096674593146
aF12.316096674593146
aF12.316096674593146
aF12.316101500170898
aF12.316096674593146
aF12.316096674593146
aF12.316096674593146
aF12.316101500170898
aF12.316096674593146
aF12.316096674593146
aF12.316096674593146
aF12.316096674593146
aF12.316096674593146
aF12.316096674593146
aF12.316096674593146
aF12.316096674593146
aF12.316096674593146
aF12.316096674593146
aF12.316096674593146
aF12.316096674593146
aF12.316096674593146
aF12.316101500170898
aF12.316096674593146
aF12.316096674593146
aF12.316096674593146
aF12.316096674593146
aF12.316101500170898
aF12.316096674593146
aF12.316096674593146
aF12.316096674593146
aF12.316101500170898
aF12.316096674593146
aF12.316096674593146
aF12.316101500170898
aF12.316096674593146
aF12.316096674593146
aF12.316098053281838
aF12.316096674593146
aF12.316096674593146
aF12.316096674593146
aF12.316096674593146
aF12.316096674593146
aF12.316096674593146
aF12.316096674593146
aF12.316098053281838
aF12.316096674593146
aF12.316093735392466
aF12.316093735392466
aF12.316093735392466
aF12.316093735392473
aF12.316096674593146
aF12.316096674593146
aF12.316101500170898
aF12.316098053281838
aF12.316096674593146
aF12.316096674593146
aF12.316096674593146
aF12.316096674593146
aF12.316096674593146
aF12.316096674593146
aF12.316096674593146
aF12.316098053281838
asS'mstar_tot'
p7963
(lp7964
g3
(g4
(I0
tp7965
g6
tp7966
Rp7967
(g3562
I1
(tg19
I00
S'\x00\x03\xc5\xcc\xed)\xbeA'
p7968
tp7969
bag3
(g4
(I0
tp7970
g6
tp7971
Rp7972
(g3592
I1
(tg32
I00
S'\x1c\xedl6\t\xcf\xc8A'
p7973
tp7974
bag3
(g4
(I0
tp7975
g6
tp7976
Rp7977
(g3604
I1
(tg45
I00
S'\xcc)b\xb8[\x1bSA'
p7978
tp7979
bag3
(g4
(I0
tp7980
g6
tp7981
Rp7982
(g3616
I1
(tg58
I00
S'\xd27\xca\rUp1B'
p7983
tp7984
bag3
(g4
(I0
tp7985
g6
tp7986
Rp7987
(g3628
I1
(tg71
I00
S'\x841\x81\xad\x81\xa0IA'
p7988
tp7989
bag3
(g4
(I0
tp7990
g6
tp7991
Rp7992
(g3640
I1
(tg84
I00
S'\xe0I4\xec3\xdc7A'
p7993
tp7994
bag3
(g4
(I0
tp7995
g6
tp7996
Rp7997
(g3652
I1
(tg97
I00
S'?\x05\xfc\x99q\xa7\xdcA'
p7998
tp7999
bag3
(g4
(I0
tp8000
g6
tp8001
Rp8002
(g3664
I1
(tg110
I00
S'\n\x18\xdf\x81\x0c\xcaWA'
p8003
tp8004
bag3
(g4
(I0
tp8005
g6
tp8006
Rp8007
(g3676
I1
(tg123
I00
S"D\xcc\xd5'\x8a\xd6`A"
p8008
tp8009
bag3
(g4
(I0
tp8010
g6
tp8011
Rp8012
(g3688
I1
(tg136
I00
S'\xdaH\xc5\xcaPnJA'
p8013
tp8014
bag3
(g4
(I0
tp8015
g6
tp8016
Rp8017
(g3700
I1
(tg149
I00
S'\x9e)>\xd7pZ\xc9A'
p8018
tp8019
bag3
(g4
(I0
tp8020
g6
tp8021
Rp8022
(g3712
I1
(tg162
I00
S'\xd1\x8f!z5\xe4`A'
p8023
tp8024
bag3
(g4
(I0
tp8025
g6
tp8026
Rp8027
(g3724
I1
(tg175
I00
S'-\xe3\xaf\x83u\xb9\xcfA'
p8028
tp8029
bag3
(g4
(I0
tp8030
g6
tp8031
Rp8032
(g3736
I1
(tg188
I00
S'\xfb\xcd\x0f\xad,\xe8\xc3A'
p8033
tp8034
bag3
(g4
(I0
tp8035
g6
tp8036
Rp8037
(g3748
I1
(tg201
I00
S'\xd3\xaf\x95\xed!\x97\xc1A'
p8038
tp8039
bag3
(g4
(I0
tp8040
g6
tp8041
Rp8042
(g3760
I1
(tg214
I00
S'}\xb6HM\xe1T>B'
p8043
tp8044
bag3
(g4
(I0
tp8045
g6
tp8046
Rp8047
(g3772
I1
(tg227
I00
S'\xc5\x03\xce\x17M#oA'
p8048
tp8049
bag3
(g4
(I0
tp8050
g6
tp8051
Rp8052
(g3784
I1
(tg240
I00
S'\xb2\xd1z\t\xc7\xbaaA'
p8053
tp8054
bag3
(g4
(I0
tp8055
g6
tp8056
Rp8057
(g3796
I1
(tg253
I00
S'r\x91\xdb\x96\x03\x82eA'
p8058
tp8059
bag3
(g4
(I0
tp8060
g6
tp8061
Rp8062
(g3808
I1
(tg266
I00
S'mI~\x7fw\xc4RA'
p8063
tp8064
bag3
(g4
(I0
tp8065
g6
tp8066
Rp8067
(g3820
I1
(tg279
I00
S'\xe0oX\xcf\xf4\x99AB'
p8068
tp8069
bag3
(g4
(I0
tp8070
g6
tp8071
Rp8072
(g3832
I1
(tg292
I00
S'fx\xc8[<\xeaKA'
p8073
tp8074
bag3
(g4
(I0
tp8075
g6
tp8076
Rp8077
(g3844
I1
(tg305
I00
S'\xc9K\xbf\xf4xE\xefA'
p8078
tp8079
bag3
(g4
(I0
tp8080
g6
tp8081
Rp8082
(g3856
I1
(tg318
I00
S'f$W\xc9 JaA'
p8083
tp8084
bag3
(g4
(I0
tp8085
g6
tp8086
Rp8087
(g3868
I1
(tg331
I00
S'\xb9\xee\x99~\xae\xae\xc8A'
p8088
tp8089
bag3
(g4
(I0
tp8090
g6
tp8091
Rp8092
(g3880
I1
(tg344
I00
S'y\xf4-\xcb\xea/iA'
p8093
tp8094
bag3
(g4
(I0
tp8095
g6
tp8096
Rp8097
(g3892
I1
(tg357
I00
S'P\xd3\xba\xea\xfdtaA'
p8098
tp8099
bag3
(g4
(I0
tp8100
g6
tp8101
Rp8102
(g3904
I1
(tg370
I00
S'(\xa1+y\xc0oUA'
p8103
tp8104
bag3
(g4
(I0
tp8105
g6
tp8106
Rp8107
(g3916
I1
(tg383
I00
S'\x05\x92\xcc4?\t\xf2A'
p8108
tp8109
bag3
(g4
(I0
tp8110
g6
tp8111
Rp8112
(g3928
I1
(tg396
I00
S'\xba\xbd\xf0#\xdf\xa0\xe9A'
p8113
tp8114
bag3
(g4
(I0
tp8115
g6
tp8116
Rp8117
(g3940
I1
(tg409
I00
S'g\xa5.\xfd;\xab\xf3A'
p8118
tp8119
bag3
(g4
(I0
tp8120
g6
tp8121
Rp8122
(g3952
I1
(tg422
I00
S'6^&\x7f\xa5\x93\xe5A'
p8123
tp8124
bag3
(g4
(I0
tp8125
g6
tp8126
Rp8127
(g3964
I1
(tg435
I00
S'8\xe5\x9b \xe4k\x03B'
p8128
tp8129
bag3
(g4
(I0
tp8130
g6
tp8131
Rp8132
(g3976
I1
(tg448
I00
S'I,\xb8\x07\x17?\x84A'
p8133
tp8134
bag3
(g4
(I0
tp8135
g6
tp8136
Rp8137
(g3988
I1
(tg461
I00
S'2\xf8\xe4VY\x8e|A'
p8138
tp8139
bag3
(g4
(I0
tp8140
g6
tp8141
Rp8142
(g4000
I1
(tg474
I00
S'\x07\x02\xbb\xcdXEFB'
p8143
tp8144
bag3
(g4
(I0
tp8145
g6
tp8146
Rp8147
(g4012
I1
(tg487
I00
S'l\xba\xf7\xee\x96\xa1\x80A'
p8148
tp8149
bag3
(g4
(I0
tp8150
g6
tp8151
Rp8152
(g4024
I1
(tg500
I00
S'4\xc7\xebD$\xb5}A'
p8153
tp8154
bag3
(g4
(I0
tp8155
g6
tp8156
Rp8157
(g4036
I1
(tg513
I00
S'\x99\xe4#\xbf\xba\xd0\x8bA'
p8158
tp8159
bag3
(g4
(I0
tp8160
g6
tp8161
Rp8162
(g4048
I1
(tg526
I00
S'U\xd45Q\x8cM\xf8A'
p8163
tp8164
bag3
(g4
(I0
tp8165
g6
tp8166
Rp8167
(g4060
I1
(tg539
I00
S'\xf8\x7f\x180\xc2\x10\x83A'
p8168
tp8169
bag3
(g4
(I0
tp8170
g6
tp8171
Rp8172
(g4072
I1
(tg552
I00
S'F\xe1o\xe0f\xdb\xe7A'
p8173
tp8174
bag3
(g4
(I0
tp8175
g6
tp8176
Rp8177
(g4084
I1
(tg565
I00
S'\xf3\x98\xfb\xf4\xaa\x95\xb3A'
p8178
tp8179
bag3
(g4
(I0
tp8180
g6
tp8181
Rp8182
(g4096
I1
(tg578
I00
S'\r\xf2{\x0e\xfc\x0f\x8bA'
p8183
tp8184
bag3
(g4
(I0
tp8185
g6
tp8186
Rp8187
(g4108
I1
(tg591
I00
S'\x98\x02\x94r\xf7l\xedA'
p8188
tp8189
bag3
(g4
(I0
tp8190
g6
tp8191
Rp8192
(g4120
I1
(tg604
I00
S'1\xe3B\xf8\x85\x11\xe8A'
p8193
tp8194
bag3
(g4
(I0
tp8195
g6
tp8196
Rp8197
(g4132
I1
(tg617
I00
S'\x98\x1er\xd5\xada\xebA'
p8198
tp8199
bag3
(g4
(I0
tp8200
g6
tp8201
Rp8202
(g4144
I1
(tg630
I00
S'e\x95O\x16\xd6\xa0\x13B'
p8203
tp8204
bag3
(g4
(I0
tp8205
g6
tp8206
Rp8207
(g4156
I1
(tg643
I00
S'\xa3\xa3\x9f\xaa\xc6\xd5\x89A'
p8208
tp8209
bag3
(g4
(I0
tp8210
g6
tp8211
Rp8212
(g4168
I1
(tg656
I00
S'\xb2\xed\x10\xbc\x1a\x15\x05B'
p8213
tp8214
bag3
(g4
(I0
tp8215
g6
tp8216
Rp8217
(g4180
I1
(tg669
I00
S'\xb0\x9f\x1f\x8f\xea;\x81A'
p8218
tp8219
bag3
(g4
(I0
tp8220
g6
tp8221
Rp8222
(g4192
I1
(tg682
I00
S'\xc4\xf3\x1aNF\xad\x8aA'
p8223
tp8224
bag3
(g4
(I0
tp8225
g6
tp8226
Rp8227
(g4204
I1
(tg695
I00
S'\x12_mr\xd2\xba\xf0@'
p8228
tp8229
bag3
(g4
(I0
tp8230
g6
tp8231
Rp8232
(g4216
I1
(tg708
I00
S'J\xa6\x96\xef\xa7&\x9eA'
p8233
tp8234
bag3
(g4
(I0
tp8235
g6
tp8236
Rp8237
(g4228
I1
(tg721
I00
S'\x82\xf5\xc3\xd6\xf8e\x9dA'
p8238
tp8239
bag3
(g4
(I0
tp8240
g6
tp8241
Rp8242
(g4240
I1
(tg734
I00
S'<\xb5\x81}CH\xe7A'
p8243
tp8244
bag3
(g4
(I0
tp8245
g6
tp8246
Rp8247
(g4252
I1
(tg747
I00
S'\xf2\r]\xe3\xda\xd7\x99A'
p8248
tp8249
bag3
(g4
(I0
tp8250
g6
tp8251
Rp8252
(g4264
I1
(tg760
I00
S'\xa2F\xa5\xc2\x86\x13\x15A'
p8253
tp8254
bag3
(g4
(I0
tp8255
g6
tp8256
Rp8257
(g4276
I1
(tg773
I00
S'\xb4^l8\x9cb\x9cA'
p8258
tp8259
bag3
(g4
(I0
tp8260
g6
tp8261
Rp8262
(g4288
I1
(tg786
I00
S'\xd7E\x92kz\x06\nB'
p8263
tp8264
bag3
(g4
(I0
tp8265
g6
tp8266
Rp8267
(g4300
I1
(tg799
I00
S'|\xc9\x81\xc0WP\x96A'
p8268
tp8269
bag3
(g4
(I0
tp8270
g6
tp8271
Rp8272
(g4312
I1
(tg812
I00
S'q\xa6B\x1d\x14\x96\xfc@'
p8273
tp8274
bag3
(g4
(I0
tp8275
g6
tp8276
Rp8277
(g4324
I1
(tg825
I00
S'0\xf8A\xe5\xeb\xa4\nB'
p8278
tp8279
bag3
(g4
(I0
tp8280
g6
tp8281
Rp8282
(g4336
I1
(tg838
I00
S'N\xda-\x1d`#\xfcA'
p8283
tp8284
bag3
(g4
(I0
tp8285
g6
tp8286
Rp8287
(g4348
I1
(tg851
I00
S'\xe6\x12\xde)@5@A'
p8288
tp8289
bag3
(g4
(I0
tp8290
g6
tp8291
Rp8292
(g4360
I1
(tg864
I00
S'\x07\xe1%\x8b5\xaf\x1aB'
p8293
tp8294
bag3
(g4
(I0
tp8295
g6
tp8296
Rp8297
(g4372
I1
(tg877
I00
S'w\xc6\xc80P\xbe\xc1A'
p8298
tp8299
bag3
(g4
(I0
tp8300
g6
tp8301
Rp8302
(g4384
I1
(tg890
I00
S'\x8e\xb6UD\xd7\xf1\x16A'
p8303
tp8304
bag3
(g4
(I0
tp8305
g6
tp8306
Rp8307
(g4396
I1
(tg903
I00
S'`/e\x02,\xc3\x08B'
p8308
tp8309
bag3
(g4
(I0
tp8310
g6
tp8311
Rp8312
(g4408
I1
(tg916
I00
S'\x97\x8d\x8f\xbf\x0b\xe9\x1aB'
p8313
tp8314
bag3
(g4
(I0
tp8315
g6
tp8316
Rp8317
(g4420
I1
(tg929
I00
S'x\xe0\xb9\xf8\xee\x9f*B'
p8318
tp8319
bag3
(g4
(I0
tp8320
g6
tp8321
Rp8322
(g4432
I1
(tg942
I00
S'g\x97B\xbb\t\xdc B'
p8323
tp8324
bag3
(g4
(I0
tp8325
g6
tp8326
Rp8327
(g4444
I1
(tg955
I00
S'\x08\xc0\xa7#\xa9\x99-B'
p8328
tp8329
bag3
(g4
(I0
tp8330
g6
tp8331
Rp8332
(g4456
I1
(tg968
I00
S'G\xf1\xf1\x99PJ%B'
p8333
tp8334
bag3
(g4
(I0
tp8335
g6
tp8336
Rp8337
(g4468
I1
(tg981
I00
S'vj\\E\x06N\xb6A'
p8338
tp8339
bag3
(g4
(I0
tp8340
g6
tp8341
Rp8342
(g4480
I1
(tg994
I00
S'$X"\x124g\xea@'
p8343
tp8344
bag3
(g4
(I0
tp8345
g6
tp8346
Rp8347
(g4492
I1
(tg1007
I00
S'\xae%nC\xf1]\xadA'
p8348
tp8349
bag3
(g4
(I0
tp8350
g6
tp8351
Rp8352
(g4504
I1
(tg1020
I00
S'\xf6\xfeq[(\xd3\xf6@'
p8353
tp8354
bag3
(g4
(I0
tp8355
g6
tp8356
Rp8357
(g4516
I1
(tg1033
I00
S'8\xd0\x88\xdbm\x01$A'
p8358
tp8359
bag3
(g4
(I0
tp8360
g6
tp8361
Rp8362
(g4528
I1
(tg1046
I00
S'\xd8\xba\xdf\xf2\xf4\xe06A'
p8363
tp8364
bag3
(g4
(I0
tp8365
g6
tp8366
Rp8367
(g4540
I1
(tg1059
I00
S'\xf2W\xa8\x81\x08\x1e\x18A'
p8368
tp8369
bag3
(g4
(I0
tp8370
g6
tp8371
Rp8372
(g4552
I1
(tg1072
I00
S'&5I\xa9Z\xf2\xe9A'
p8373
tp8374
bag3
(g4
(I0
tp8375
g6
tp8376
Rp8377
(g4564
I1
(tg1085
I00
S'\xf4\xe6\x03\x0e\x96\xbb\x0bB'
p8378
tp8379
bag3
(g4
(I0
tp8380
g6
tp8381
Rp8382
(g4576
I1
(tg1098
I00
S'\xb2\xc7)+\x12\xe79A'
p8383
tp8384
bag3
(g4
(I0
tp8385
g6
tp8386
Rp8387
(g4588
I1
(tg1111
I00
S'\x05cs\x10\xa5\xc4\xeb@'
p8388
tp8389
bag3
(g4
(I0
tp8390
g6
tp8391
Rp8392
(g4600
I1
(tg1124
I00
S'(1\x8f\xf5\xb7o\x94A'
p8393
tp8394
bag3
(g4
(I0
tp8395
g6
tp8396
Rp8397
(g4612
I1
(tg1137
I00
S'F&\xb2+u\xe8\xa7A'
p8398
tp8399
bag3
(g4
(I0
tp8400
g6
tp8401
Rp8402
(g4624
I1
(tg1150
I00
S'\x1a\xb0\x19\x80v*\xbaA'
p8403
tp8404
bag3
(g4
(I0
tp8405
g6
tp8406
Rp8407
(g4636
I1
(tg1163
I00
S'\x82\xf9\xa4/\xf41\xadA'
p8408
tp8409
bag3
(g4
(I0
tp8410
g6
tp8411
Rp8412
(g4648
I1
(tg1176
I00
S'\xebFlc\xbf\xb2\xb4A'
p8413
tp8414
bag3
(g4
(I0
tp8415
g6
tp8416
Rp8417
(g4660
I1
(tg1189
I00
S'\x7f\xc8\x9clj\x04\x17B'
p8418
tp8419
bag3
(g4
(I0
tp8420
g6
tp8421
Rp8422
(g4672
I1
(tg1202
I00
S'o\x8a\xcf\x91>\x82\x10B'
p8423
tp8424
bag3
(g4
(I0
tp8425
g6
tp8426
Rp8427
(g4684
I1
(tg1215
I00
S'\xef:8\t[e2A'
p8428
tp8429
basS'oh_gas'
p8430
(lp8431
g3
(g4
(I0
tp8432
g6
tp8433
Rp8434
(g13
I1
(tg19
I00
S'\xad\xda_\x98\xd1\xb9\x1f@'
p8435
tp8436
bag3
(g4
(I0
tp8437
g6
tp8438
Rp8439
(g28
I1
(tg32
I00
S'\x16\xee\xb2\xaa\xef` @'
p8440
tp8441
bag3
(g4
(I0
tp8442
g6
tp8443
Rp8444
(g41
I1
(tg45
I00
S'\x95\xedM\x96}\x11\x1c@'
p8445
tp8446
bag3
(g4
(I0
tp8447
g6
tp8448
Rp8449
(g54
I1
(tg58
I00
S'w\x95&\x00\x0e\xc7"@'
p8450
tp8451
bag3
(g4
(I0
tp8452
g6
tp8453
Rp8454
(g67
I1
(tg71
I00
S'_\r\xf5\xc1\xd7{\x1d@'
p8455
tp8456
bag3
(g4
(I0
tp8457
g6
tp8458
Rp8459
(g80
I1
(tg84
I00
S'\xb0\xde\xb5\x86(L\x1d@'
p8460
tp8461
bag3
(g4
(I0
tp8462
g6
tp8463
Rp8464
(g93
I1
(tg97
I00
S'\x9f\x0cY\xd4\xffF!@'
p8465
tp8466
bag3
(g4
(I0
tp8467
g6
tp8468
Rp8469
(g106
I1
(tg110
I00
S'\xc8\xfcO\xe9\xc6\t\x1c@'
p8470
tp8471
bag3
(g4
(I0
tp8472
g6
tp8473
Rp8474
(g119
I1
(tg123
I00
S'\xd8\xc71\xe6\x97\xb0\x1d@'
p8475
tp8476
bag3
(g4
(I0
tp8477
g6
tp8478
Rp8479
(g132
I1
(tg136
I00
S'\xc0\xe1\x92e\x84\xcf\x1b@'
p8480
tp8481
bag3
(g4
(I0
tp8482
g6
tp8483
Rp8484
(g145
I1
(tg149
I00
S'1\xa9\x97`\xdb7 @'
p8485
tp8486
bag3
(g4
(I0
tp8487
g6
tp8488
Rp8489
(g158
I1
(tg162
I00
S'XJ\xf1\x1a\x08\xdf\x1d@'
p8490
tp8491
bag3
(g4
(I0
tp8492
g6
tp8493
Rp8494
(g171
I1
(tg175
I00
S'\xbb\xe2\xc1?\rd @'
p8495
tp8496
bag3
(g4
(I0
tp8497
g6
tp8498
Rp8499
(g184
I1
(tg188
I00
S'H\xa7\xaa*d\x03 @'
p8500
tp8501
bag3
(g4
(I0
tp8502
g6
tp8503
Rp8504
(g197
I1
(tg201
I00
S'<\x10\x14\xae\x1f\x11\x1f@'
p8505
tp8506
bag3
(g4
(I0
tp8507
g6
tp8508
Rp8509
(g210
I1
(tg214
I00
S'\x9ek\xab"\xec\xfa"@'
p8510
tp8511
bag3
(g4
(I0
tp8512
g6
tp8513
Rp8514
(g223
I1
(tg227
I00
S'B\xa5\x11\xe4\x1a\x0c\x1d@'
p8515
tp8516
bag3
(g4
(I0
tp8517
g6
tp8518
Rp8519
(g236
I1
(tg240
I00
S'\x91\x96\xee\xe9\x97\x90\x1c@'
p8520
tp8521
bag3
(g4
(I0
tp8522
g6
tp8523
Rp8524
(g249
I1
(tg253
I00
S'\xce76_~\xb7\x1c@'
p8525
tp8526
bag3
(g4
(I0
tp8527
g6
tp8528
Rp8529
(g262
I1
(tg266
I00
S'\xc3\x92\x89\x9c\x10e\x1c@'
p8530
tp8531
bag3
(g4
(I0
tp8532
g6
tp8533
Rp8534
(g275
I1
(tg279
I00
S'a\xeb\x1d%\x0e\xd7"@'
p8535
tp8536
bag3
(g4
(I0
tp8537
g6
tp8538
Rp8539
(g288
I1
(tg292
I00
S'\xc3\xa2\x11\x85\xbd\xdb\x1c@'
p8540
tp8541
bag3
(g4
(I0
tp8542
g6
tp8543
Rp8544
(g301
I1
(tg305
I00
S'!\x81\xd6,\x18\xb0!@'
p8545
tp8546
bag3
(g4
(I0
tp8547
g6
tp8548
Rp8549
(g314
I1
(tg318
I00
S'\xfe\xeb\x04\x15\x13\x83\x1d@'
p8550
tp8551
bag3
(g4
(I0
tp8552
g6
tp8553
Rp8554
(g327
I1
(tg331
I00
S"Tp'\xd9\x8cC @"
p8555
tp8556
bag3
(g4
(I0
tp8557
g6
tp8558
Rp8559
(g340
I1
(tg344
I00
S'\xfdP\xd8a\xa8\x9d\x1d@'
p8560
tp8561
bag3
(g4
(I0
tp8562
g6
tp8563
Rp8564
(g353
I1
(tg357
I00
S'\x9a\xc3]H\xb63\x1d@'
p8565
tp8566
bag3
(g4
(I0
tp8567
g6
tp8568
Rp8569
(g366
I1
(tg370
I00
S'\xa6u\x0e1R\x11\x1d@'
p8570
tp8571
bag3
(g4
(I0
tp8572
g6
tp8573
Rp8574
(g379
I1
(tg383
I00
S'\x06\xb8\x95\xe5\xd5\xa1!@'
p8575
tp8576
bag3
(g4
(I0
tp8577
g6
tp8578
Rp8579
(g392
I1
(tg396
I00
S'`j\xf9]\xe65!@'
p8580
tp8581
bag3
(g4
(I0
tp8582
g6
tp8583
Rp8584
(g405
I1
(tg409
I00
S'\x80\xc3\x0c\xa2l\xcb!@'
p8585
tp8586
bag3
(g4
(I0
tp8587
g6
tp8588
Rp8589
(g418
I1
(tg422
I00
S'g\xb1=\xabX\xef @'
p8590
tp8591
bag3
(g4
(I0
tp8592
g6
tp8593
Rp8594
(g431
I1
(tg435
I00
S'\x81\x13g\xbc!!"@'
p8595
tp8596
bag3
(g4
(I0
tp8597
g6
tp8598
Rp8599
(g444
I1
(tg448
I00
S'\x99\xcf\xfd\x9f\xe9 \x1f@'
p8600
tp8601
bag3
(g4
(I0
tp8602
g6
tp8603
Rp8604
(g457
I1
(tg461
I00
S'~\x9ds\xaf\xbc\x1d\x1d@'
p8605
tp8606
bag3
(g4
(I0
tp8607
g6
tp8608
Rp8609
(g470
I1
(tg474
I00
S'`?\xe0`\x13\xe7"@'
p8610
tp8611
bag3
(g4
(I0
tp8612
g6
tp8613
Rp8614
(g483
I1
(tg487
I00
S'\x0b\x16M\xdb>\xe6\x1d@'
p8615
tp8616
bag3
(g4
(I0
tp8617
g6
tp8618
Rp8619
(g496
I1
(tg500
I00
S'\xd9\xed\xf3S\xce\xfd\x1d@'
p8620
tp8621
bag3
(g4
(I0
tp8622
g6
tp8623
Rp8624
(g509
I1
(tg513
I00
S'W\x9c\x1fux\xfa\x1e@'
p8625
tp8626
bag3
(g4
(I0
tp8627
g6
tp8628
Rp8629
(g522
I1
(tg526
I00
S'\x94E\xd2\xe6\xb7\xc9!@'
p8630
tp8631
bag3
(g4
(I0
tp8632
g6
tp8633
Rp8634
(g535
I1
(tg539
I00
S"'<Gq}4\x1e@"
p8635
tp8636
bag3
(g4
(I0
tp8637
g6
tp8638
Rp8639
(g548
I1
(tg552
I00
S'\x9d\xa5"D\x1b\xfd @'
p8640
tp8641
bag3
(g4
(I0
tp8642
g6
tp8643
Rp8644
(g561
I1
(tg565
I00
S'\x05\xb2\x0e\xf3\x03\x81\x1f@'
p8645
tp8646
bag3
(g4
(I0
tp8647
g6
tp8648
Rp8649
(g574
I1
(tg578
I00
S'F\xcb\xc0\x9f\xdb\xa5\x1d@'
p8650
tp8651
bag3
(g4
(I0
tp8652
g6
tp8653
Rp8654
(g587
I1
(tg591
I00
S'\xe6\xcax\x15\xfb\xe4 @'
p8655
tp8656
bag3
(g4
(I0
tp8657
g6
tp8658
Rp8659
(g600
I1
(tg604
I00
S'\xe0\x0f\x86\xfd\x03\x9f @'
p8660
tp8661
bag3
(g4
(I0
tp8662
g6
tp8663
Rp8664
(g613
I1
(tg617
I00
S'\xe8\xbb\x00k!\xe5 @'
p8665
tp8666
bag3
(g4
(I0
tp8667
g6
tp8668
Rp8669
(g626
I1
(tg630
I00
S',\x9dO\xfe\x07\x82"@'
p8670
tp8671
bag3
(g4
(I0
tp8672
g6
tp8673
Rp8674
(g639
I1
(tg643
I00
S'\xd8b4\xbcL\xed\x1e@'
p8675
tp8676
bag3
(g4
(I0
tp8677
g6
tp8678
Rp8679
(g652
I1
(tg656
I00
S'\x94\xd8\x13=\xec\x17"@'
p8680
tp8681
bag3
(g4
(I0
tp8682
g6
tp8683
Rp8684
(g665
I1
(tg669
I00
S'\xf2\x14\xc5l\xd7G\x1d@'
p8685
tp8686
bag3
(g4
(I0
tp8687
g6
tp8688
Rp8689
(g678
I1
(tg682
I00
S'\xa1q\xd2\xf9\x16,\x1d@'
p8690
tp8691
bag3
(g4
(I0
tp8692
g6
tp8693
Rp8694
(g691
I1
(tg695
I00
S"Q\xc1\x00\xac\xc5'\x16@"
p8695
tp8696
bag3
(g4
(I0
tp8697
g6
tp8698
Rp8699
(g704
I1
(tg708
I00
S'(\x9b\xc6^3i\x1e@'
p8700
tp8701
bag3
(g4
(I0
tp8702
g6
tp8703
Rp8704
(g717
I1
(tg721
I00
S'\xd943\xf7">\x1e@'
p8705
tp8706
bag3
(g4
(I0
tp8707
g6
tp8708
Rp8709
(g730
I1
(tg734
I00
S'\x8a\x8d\xe5\xfa\r\xc9 @'
p8710
tp8711
bag3
(g4
(I0
tp8712
g6
tp8713
Rp8714
(g743
I1
(tg747
I00
S'\xdb0qVl-\x1f@'
p8715
tp8716
bag3
(g4
(I0
tp8717
g6
tp8718
Rp8719
(g756
I1
(tg760
I00
S't}\xa5P\xd7\x86\x1c@'
p8720
tp8721
bag3
(g4
(I0
tp8722
g6
tp8723
Rp8724
(g769
I1
(tg773
I00
S'r#\xee]\x15\xe1\x1e@'
p8725
tp8726
bag3
(g4
(I0
tp8727
g6
tp8728
Rp8729
(g782
I1
(tg786
I00
S'Yd\x90\x10\x9e*"@'
p8730
tp8731
bag3
(g4
(I0
tp8732
g6
tp8733
Rp8734
(g795
I1
(tg799
I00
S'\x07V\xa1\xd8O4\x1f@'
p8735
tp8736
bag3
(g4
(I0
tp8737
g6
tp8738
Rp8739
(g808
I1
(tg812
I00
S'\xa5\x94d\xb7X\xeb\x19@'
p8740
tp8741
bag3
(g4
(I0
tp8742
g6
tp8743
Rp8744
(g821
I1
(tg825
I00
S'\xa9\xcd\xdb\x1f\xfb,"@'
p8745
tp8746
bag3
(g4
(I0
tp8747
g6
tp8748
Rp8749
(g834
I1
(tg838
I00
S'^\xfc\x85\xc1\x18\x18!@'
p8750
tp8751
bag3
(g4
(I0
tp8752
g6
tp8753
Rp8754
(g847
I1
(tg851
I00
S'`i\x80-K\x02\x1d@'
p8755
tp8756
bag3
(g4
(I0
tp8757
g6
tp8758
Rp8759
(g860
I1
(tg864
I00
S'a\x8d[\x0b\x95*"@'
p8760
tp8761
bag3
(g4
(I0
tp8762
g6
tp8763
Rp8764
(g873
I1
(tg877
I00
S'!\xb9\x15\xe6\xf8\xd3 @'
p8765
tp8766
bag3
(g4
(I0
tp8767
g6
tp8768
Rp8769
(g886
I1
(tg890
I00
S'%\x83v\x19#l\x1c@'
p8770
tp8771
bag3
(g4
(I0
tp8772
g6
tp8773
Rp8774
(g899
I1
(tg903
I00
S'\xe0H\x9ehl\xc2 @'
p8775
tp8776
bag3
(g4
(I0
tp8777
g6
tp8778
Rp8779
(g912
I1
(tg916
I00
S'\xe5\xe0\x00\x1c=-"@'
p8780
tp8781
bag3
(g4
(I0
tp8782
g6
tp8783
Rp8784
(g925
I1
(tg929
I00
S'\xf4C\xe9\x93\xa6\xdf"@'
p8785
tp8786
bag3
(g4
(I0
tp8787
g6
tp8788
Rp8789
(g938
I1
(tg942
I00
S'V\\\xce\xec\xaf\x85"@'
p8790
tp8791
bag3
(g4
(I0
tp8792
g6
tp8793
Rp8794
(g951
I1
(tg955
I00
S'^\x88\xdb\x82\xf6\xd6"@'
p8795
tp8796
bag3
(g4
(I0
tp8797
g6
tp8798
Rp8799
(g964
I1
(tg968
I00
S'\xff\'KN\xa8\x8b"@'
p8800
tp8801
bag3
(g4
(I0
tp8802
g6
tp8803
Rp8804
(g977
I1
(tg981
I00
S'\x1a\x8d8u\x8b\xa0\x1f@'
p8805
tp8806
bag3
(g4
(I0
tp8807
g6
tp8808
Rp8809
(g990
I1
(tg994
I00
S'\x10A\xb7\xae\xf3M\x19@'
p8810
tp8811
bag3
(g4
(I0
tp8812
g6
tp8813
Rp8814
(g1003
I1
(tg1007
I00
S'C\x03P\x1e \xb6\x1e@'
p8815
tp8816
bag3
(g4
(I0
tp8817
g6
tp8818
Rp8819
(g1016
I1
(tg1020
I00
S'\xbcav1%$\x1a@'
p8820
tp8821
bag3
(g4
(I0
tp8822
g6
tp8823
Rp8824
(g1029
I1
(tg1033
I00
S'\x03P\xedM\x06\xbd\x1c@'
p8825
tp8826
bag3
(g4
(I0
tp8827
g6
tp8828
Rp8829
(g1042
I1
(tg1046
I00
S'8\xb8Pw\x03w\x1d@'
p8830
tp8831
bag3
(g4
(I0
tp8832
g6
tp8833
Rp8834
(g1055
I1
(tg1059
I00
S'\xd2<{\xfd)g\x1b@'
p8835
tp8836
bag3
(g4
(I0
tp8837
g6
tp8838
Rp8839
(g1068
I1
(tg1072
I00
S'7\xdb\xcf\x0eT\xf6 @'
p8840
tp8841
bag3
(g4
(I0
tp8842
g6
tp8843
Rp8844
(g1081
I1
(tg1085
I00
S'f$j\xb2(\x17"@'
p8845
tp8846
bag3
(g4
(I0
tp8847
g6
tp8848
Rp8849
(g1094
I1
(tg1098
I00
S'\x98:\xa8\xec X\x1d@'
p8850
tp8851
bag3
(g4
(I0
tp8852
g6
tp8853
Rp8854
(g1107
I1
(tg1111
I00
S'd\xa7\xdai\x1e\x17\x15@'
p8855
tp8856
bag3
(g4
(I0
tp8857
g6
tp8858
Rp8859
(g1120
I1
(tg1124
I00
S'\x941p\xfdd\x8c\x1e@'
p8860
tp8861
bag3
(g4
(I0
tp8862
g6
tp8863
Rp8864
(g1133
I1
(tg1137
I00
S'4\xd64\t\x8d\x83\x1e@'
p8865
tp8866
bag3
(g4
(I0
tp8867
g6
tp8868
Rp8869
(g1146
I1
(tg1150
I00
S'v\xed\xfd\xe3B\xd8\x1f@'
p8870
tp8871
bag3
(g4
(I0
tp8872
g6
tp8873
Rp8874
(g1159
I1
(tg1163
I00
S'4I\xdc\xc1L\xa9\x1f@'
p8875
tp8876
bag3
(g4
(I0
tp8877
g6
tp8878
Rp8879
(g1172
I1
(tg1176
I00
S'\x92&\xb0\xd8\n\xc2\x1f@'
p8880
tp8881
bag3
(g4
(I0
tp8882
g6
tp8883
Rp8884
(g1185
I1
(tg1189
I00
S'\xb4\x90q\xc8s\xf8!@'
p8885
tp8886
bag3
(g4
(I0
tp8887
g6
tp8888
Rp8889
(g1198
I1
(tg1202
I00
S'\x14\xee\xb5\x10%\x11"@'
p8890
tp8891
bag3
(g4
(I0
tp8892
g6
tp8893
Rp8894
(g1211
I1
(tg1215
I00
S'/\xb9fe\xdbU\x1d@'
p8895
tp8896
basS'z'
p8897
(lp8898
F0.11238109160837317
aF0.11238109160837317
aF0.11238109160837317
aF0.11238109160837317
aF0.11238109160837317
aF0.11238109160837317
aF0.11238109160837317
aF0.11238109160837317
aF0.11238109160837317
aF0.11238109160837317
aF0.11238109160837317
aF0.11238109160837317
aF0.11238109160837317
aF0.11238109160837317
aF0.11238109160837317
aF0.11238109160837317
aF0.11238109160837317
aF0.11238109160837317
aF0.11238109160837317
aF0.11238109160837317
aF0.11238109160837317
aF0.11238109160837317
aF0.11238109160837317
aF0.11238109160837317
aF0.11238109160837317
aF0.11238109160837317
aF0.11238109160837317
aF0.11238109160837317
aF0.11238109160837317
aF0.11238109160837317
aF0.11238109160837317
aF0.11238109160837317
aF0.11238109160837317
aF0.11238109160837317
aF0.11238109160837317
aF0.11238109160837317
aF0.11238109160837317
aF0.11238109160837317
aF0.11238109160837317
aF0.11238109160837317
aF0.11238109160837317
aF0.11238109160837317
aF0.11238109160837317
aF0.11238109160837317
aF0.11238109160837317
aF0.11238109160837317
aF0.11238109160837317
aF0.11238109160837317
aF0.11238109160837317
aF0.11238109160837317
aF0.11238109160837317
aF0.11238109160837317
aF0.11238109160837317
aF0.11238109160837317
aF0.11238109160837317
aF0.11238109160837317
aF0.11238109160837317
aF0.11238109160837317
aF0.11238109160837317
aF0.11238109160837317
aF0.11238109160837317
aF0.11238109160837317
aF0.11238109160837317
aF0.11238109160837317
aF0.11238109160837317
aF0.11238109160837317
aF0.11238109160837317
aF0.11238109160837317
aF0.11238109160837317
aF0.11238109160837317
aF0.11238109160837317
aF0.11238109160837317
aF0.11238109160837317
aF0.11238109160837317
aF0.11238109160837317
aF0.11238109160837317
aF0.11238109160837317
aF0.11238109160837362
aF0.11238109160837362
aF0.11238109160837362
aF0.11238109160837317
aF0.11238109160837317
aF0.11238109160837317
aF0.11238109160837317
aF0.11238109160837317
aF0.11238109160837317
aF0.11238109160837317
aF0.11238109160837317
aF0.11238109160837317
aF0.11238109160837317
aF0.11238109160837317
aF0.11238109160837317
aF0.11238109160837317
asS'mstar'
p8899
(lp8900
g3
(g4
(I0
tp8901
g6
tp8902
Rp8903
(g3562
I1
(tg19
I00
S'h\x81\xa2k\x98h\xb7A'
p8904
tp8905
bag3
(g4
(I0
tp8906
g6
tp8907
Rp8908
(g3592
I1
(tg32
I00
S'\xf0LlL\x98n\xc5A'
p8909
tp8910
bag3
(g4
(I0
tp8911
g6
tp8912
Rp8913
(g3604
I1
(tg45
I00
S'\x8c\x90s\xeb\xb5\x02MA'
p8914
tp8915
bag3
(g4
(I0
tp8916
g6
tp8917
Rp8918
(g3616
I1
(tg58
I00
S'\x1c\xc2T\xe7\xb3Q B'
p8919
tp8920
bag3
(g4
(I0
tp8921
g6
tp8922
Rp8923
(g3628
I1
(tg71
I00
S'\x88\x91\xd2Q\x87\x93?A'
p8924
tp8925
bag3
(g4
(I0
tp8926
g6
tp8927
Rp8928
(g3640
I1
(tg84
I00
S'!\x9c&"Uk)A'
p8929
tp8930
bag3
(g4
(I0
tp8931
g6
tp8932
Rp8933
(g3652
I1
(tg97
I00
S'\xcdx\xb7\xea\xffW\xd8A'
p8934
tp8935
bag3
(g4
(I0
tp8936
g6
tp8937
Rp8938
(g3664
I1
(tg110
I00
S'\xc4\x82\x0e)\xc2\x85TA'
p8939
tp8940
bag3
(g4
(I0
tp8941
g6
tp8942
Rp8943
(g3676
I1
(tg123
I00
S'\xff\x01\xa3&C5WA'
p8944
tp8945
bag3
(g4
(I0
tp8946
g6
tp8947
Rp8948
(g3688
I1
(tg136
I00
S'\x0b\xe1\t\n\x12IEA'
p8949
tp8950
bag3
(g4
(I0
tp8951
g6
tp8952
Rp8953
(g3700
I1
(tg149
I00
S'+X\x81t\x12P\xc3A'
p8954
tp8955
bag3
(g4
(I0
tp8956
g6
tp8957
Rp8958
(g3712
I1
(tg162
I00
S'\xf9\xe6\xa3\xb8\xd3xVA'
p8959
tp8960
bag3
(g4
(I0
tp8961
g6
tp8962
Rp8963
(g3724
I1
(tg175
I00
S'6\x0e%1\xfd\xb7\xc9A'
p8964
tp8965
bag3
(g4
(I0
tp8966
g6
tp8967
Rp8968
(g3736
I1
(tg188
I00
S'\xb5\x82\xe7\xb8\xdf+\xc1A'
p8969
tp8970
bag3
(g4
(I0
tp8971
g6
tp8972
Rp8973
(g3748
I1
(tg201
I00
S'\xf7\xf1\x07vq\xe1\xb6A'
p8974
tp8975
bag3
(g4
(I0
tp8976
g6
tp8977
Rp8978
(g3760
I1
(tg214
I00
S'geLX\xc884B'
p8979
tp8980
bag3
(g4
(I0
tp8981
g6
tp8982
Rp8983
(g3772
I1
(tg227
I00
S'\x9f\xb4\xe4\x0bp,lA'
p8984
tp8985
bag3
(g4
(I0
tp8986
g6
tp8987
Rp8988
(g3784
I1
(tg240
I00
S'\xb9~/\xae#\x19WA'
p8989
tp8990
bag3
(g4
(I0
tp8991
g6
tp8992
Rp8993
(g3796
I1
(tg253
I00
S']\x18\xd8\x12J\x16_A'
p8994
tp8995
bag3
(g4
(I0
tp8996
g6
tp8997
Rp8998
(g3808
I1
(tg266
I00
S'F\xf7\x08\xe2\xf0\x10DA'
p8999
tp9000
bag3
(g4
(I0
tp9001
g6
tp9002
Rp9003
(g3820
I1
(tg279
I00
S'\xb5-\x17s\x92\xf9:B'
p9004
tp9005
bag3
(g4
(I0
tp9006
g6
tp9007
Rp9008
(g3832
I1
(tg292
I00
S'\x14\xe6\t\x05`\xa8CA'
p9009
tp9010
bag3
(g4
(I0
tp9011
g6
tp9012
Rp9013
(g3844
I1
(tg305
I00
S"\x9e\xf0M'\x90Y\xe6A"
p9014
tp9015
bag3
(g4
(I0
tp9016
g6
tp9017
Rp9018
(g3856
I1
(tg318
I00
S'\xac\xd4\xad`\xd6\xd3WA'
p9019
tp9020
bag3
(g4
(I0
tp9021
g6
tp9022
Rp9023
(g3868
I1
(tg331
I00
S'^N\xa2\xabp\xfb\xc4A'
p9024
tp9025
bag3
(g4
(I0
tp9026
g6
tp9027
Rp9028
(g3880
I1
(tg344
I00
S'\x10\xd8\xa7\\+&`A'
p9029
tp9030
bag3
(g4
(I0
tp9031
g6
tp9032
Rp9033
(g3892
I1
(tg357
I00
S'sw\x80\xeb.\xf5YA'
p9034
tp9035
bag3
(g4
(I0
tp9036
g6
tp9037
Rp9038
(g3904
I1
(tg370
I00
S'6g\xbf!\x06\xf5OA'
p9039
tp9040
bag3
(g4
(I0
tp9041
g6
tp9042
Rp9043
(g3916
I1
(tg383
I00
S'=*\xd1\xb3We\xe9A'
p9044
tp9045
bag3
(g4
(I0
tp9046
g6
tp9047
Rp9048
(g3928
I1
(tg396
I00
S'\x11\x10\xb6\xe9\xe8\xcc\xe3A'
p9049
tp9050
bag3
(g4
(I0
tp9051
g6
tp9052
Rp9053
(g3940
I1
(tg409
I00
S'\x00N\x04\xb2\xa3\xec\xf0A'
p9054
tp9055
bag3
(g4
(I0
tp9056
g6
tp9057
Rp9058
(g3952
I1
(tg422
I00
S'u\xcc\xe2o\xf1i\xdeA'
p9059
tp9060
bag3
(g4
(I0
tp9061
g6
tp9062
Rp9063
(g3964
I1
(tg435
I00
S'\x8e\x83N\x97\x06c\x00B'
p9064
tp9065
bag3
(g4
(I0
tp9066
g6
tp9067
Rp9068
(g3976
I1
(tg448
I00
S'\xa8gd\xe6N\x8d|A'
p9069
tp9070
bag3
(g4
(I0
tp9071
g6
tp9072
Rp9073
(g3988
I1
(tg461
I00
S"\xa7\xba\xc6t\xab'wA"
p9074
tp9075
bag3
(g4
(I0
tp9076
g6
tp9077
Rp9078
(g4000
I1
(tg474
I00
S'#\xb9o\xc1\x9d\x01>B'
p9079
tp9080
bag3
(g4
(I0
tp9081
g6
tp9082
Rp9083
(g4012
I1
(tg487
I00
S'\xfd.\x8b\xe4\x0b\x94uA'
p9084
tp9085
bag3
(g4
(I0
tp9086
g6
tp9087
Rp9088
(g4024
I1
(tg500
I00
S'\xf0Q\xc6\xf2\xea$xA'
p9089
tp9090
bag3
(g4
(I0
tp9091
g6
tp9092
Rp9093
(g4036
I1
(tg513
I00
S'sV\x1b(\x9b\x90\x83A'
p9094
tp9095
bag3
(g4
(I0
tp9096
g6
tp9097
Rp9098
(g4048
I1
(tg526
I00
S'p5\xe5\xb8\xee\xc3\xf4A'
p9099
tp9100
bag3
(g4
(I0
tp9101
g6
tp9102
Rp9103
(g4060
I1
(tg539
I00
S'\xd1\xc9-P\xcfhzA'
p9104
tp9105
bag3
(g4
(I0
tp9106
g6
tp9107
Rp9108
(g4072
I1
(tg552
I00
S'\xc0T\xde\xce\xfb\x86\xe1A'
p9109
tp9110
bag3
(g4
(I0
tp9111
g6
tp9112
Rp9113
(g4084
I1
(tg565
I00
S'\xbe\xda\xabsY\xe4\xafA'
p9114
tp9115
bag3
(g4
(I0
tp9116
g6
tp9117
Rp9118
(g4096
I1
(tg578
I00
S'\xecp\xcb\x19\xb7o\x84A'
p9119
tp9120
bag3
(g4
(I0
tp9121
g6
tp9122
Rp9123
(g4108
I1
(tg591
I00
S'\xba:\x88\x84\x9f\x8e\xe8A'
p9124
tp9125
bag3
(g4
(I0
tp9126
g6
tp9127
Rp9128
(g4120
I1
(tg604
I00
S'\x8ef\x85\x9b\n\xe6\xe0A'
p9129
tp9130
bag3
(g4
(I0
tp9131
g6
tp9132
Rp9133
(g4132
I1
(tg617
I00
S'\xac\x97!T\xaaO\xe4A'
p9134
tp9135
bag3
(g4
(I0
tp9136
g6
tp9137
Rp9138
(g4144
I1
(tg630
I00
S'\x84?N\xce\xe9\xc8\x10B'
p9139
tp9140
bag3
(g4
(I0
tp9141
g6
tp9142
Rp9143
(g4156
I1
(tg643
I00
S'\x98\x15\xc4\x8eJ\xcb\x84A'
p9144
tp9145
bag3
(g4
(I0
tp9146
g6
tp9147
Rp9148
(g4168
I1
(tg656
I00
S'Q/\xea\\\x18>\xffA'
p9149
tp9150
bag3
(g4
(I0
tp9151
g6
tp9152
Rp9153
(g4180
I1
(tg669
I00
S'\xdaA\xfa\xc4\xa2\xd6zA'
p9154
tp9155
bag3
(g4
(I0
tp9156
g6
tp9157
Rp9158
(g4192
I1
(tg682
I00
S'\x1dm\xb6\xe3e\xd3\x80A'
p9159
tp9160
bag3
(g4
(I0
tp9161
g6
tp9162
Rp9163
(g4204
I1
(tg695
I00
S'\x12_mr\xd2\xba\xf0@'
p9164
tp9165
bag3
(g4
(I0
tp9166
g6
tp9167
Rp9168
(g4216
I1
(tg708
I00
S"\xda'Tv\xf6~\x95A"
p9169
tp9170
bag3
(g4
(I0
tp9171
g6
tp9172
Rp9173
(g4228
I1
(tg721
I00
S'\xb7Y\t\xc6\xbbi\x97A'
p9174
tp9175
bag3
(g4
(I0
tp9176
g6
tp9177
Rp9178
(g4240
I1
(tg734
I00
S'\xbd\xd0,`\x9e%\xe5A'
p9179
tp9180
bag3
(g4
(I0
tp9181
g6
tp9182
Rp9183
(g4252
I1
(tg747
I00
S'=1\xbf\xbeY9\x92A'
p9184
tp9185
bag3
(g4
(I0
tp9186
g6
tp9187
Rp9188
(g4264
I1
(tg760
I00
S'n\xc2\x9b-\xd9\xb4\x0cA'
p9189
tp9190
bag3
(g4
(I0
tp9191
g6
tp9192
Rp9193
(g4276
I1
(tg773
I00
S'm\xb1\xd8"\xba\xc4\x95A'
p9194
tp9195
bag3
(g4
(I0
tp9196
g6
tp9197
Rp9198
(g4288
I1
(tg786
I00
S'\x99\xb2\x1ag=\xcf\x05B'
p9199
tp9200
bag3
(g4
(I0
tp9201
g6
tp9202
Rp9203
(g4300
I1
(tg799
I00
S'\x97\xd40Ty\xcf\x90A'
p9204
tp9205
bag3
(g4
(I0
tp9206
g6
tp9207
Rp9208
(g4312
I1
(tg812
I00
S'\xe0\xa8\x8bt\x86\x0f\xf4@'
p9209
tp9210
bag3
(g4
(I0
tp9211
g6
tp9212
Rp9213
(g4324
I1
(tg825
I00
S'\x1b|\x1e\x9d\x1c\xa2\x01B'
p9214
tp9215
bag3
(g4
(I0
tp9216
g6
tp9217
Rp9218
(g4336
I1
(tg838
I00
S'`\xcbB\x9a\xb6s\xf5A'
p9219
tp9220
bag3
(g4
(I0
tp9221
g6
tp9222
Rp9223
(g4348
I1
(tg851
I00
S'\x12\xed\xf1\xa4\xdb\xe75A'
p9224
tp9225
bag3
(g4
(I0
tp9226
g6
tp9227
Rp9228
(g4360
I1
(tg864
I00
S'\x1e\xeb\x8b\xf6\xf7/\x16B'
p9229
tp9230
bag3
(g4
(I0
tp9231
g6
tp9232
Rp9233
(g4372
I1
(tg877
I00
S'\xe3\xf9\xb9z|\n\xbcA'
p9234
tp9235
bag3
(g4
(I0
tp9236
g6
tp9237
Rp9238
(g4384
I1
(tg890
I00
S'p\xdb\xb5\x89\xbf[\x0eA'
p9239
tp9240
bag3
(g4
(I0
tp9241
g6
tp9242
Rp9243
(g4396
I1
(tg903
I00
S'\xbb\xd5\xe4\xb8/\xca\xfcA'
p9244
tp9245
bag3
(g4
(I0
tp9246
g6
tp9247
Rp9248
(g4408
I1
(tg916
I00
S'\x12\xf2\xfd\xf1\x8a\xfa\x14B'
p9249
tp9250
bag3
(g4
(I0
tp9251
g6
tp9252
Rp9253
(g4420
I1
(tg929
I00
S'\xdd\xdf6\xa1\x0e\x84$B'
p9254
tp9255
bag3
(g4
(I0
tp9256
g6
tp9257
Rp9258
(g4432
I1
(tg942
I00
S'\xda\xfe)\x96\xb5w\x16B'
p9259
tp9260
bag3
(g4
(I0
tp9261
g6
tp9262
Rp9263
(g4444
I1
(tg955
I00
S"\x00\nx\x98\xae4'B"
p9264
tp9265
bag3
(g4
(I0
tp9266
g6
tp9267
Rp9268
(g4456
I1
(tg968
I00
S'\xeb\x9b\xa1u6\x10 B'
p9269
tp9270
bag3
(g4
(I0
tp9271
g6
tp9272
Rp9273
(g4468
I1
(tg981
I00
S'\x7f\x93|\xb6\xde^\xb1A'
p9274
tp9275
bag3
(g4
(I0
tp9276
g6
tp9277
Rp9278
(g4480
I1
(tg994
I00
S'x\xc1\xc8\x8a\x9f\x9a\xe4@'
p9279
tp9280
bag3
(g4
(I0
tp9281
g6
tp9282
Rp9283
(g4492
I1
(tg1007
I00
S'3\xaf\x86^{\xbb\xa8A'
p9284
tp9285
bag3
(g4
(I0
tp9286
g6
tp9287
Rp9288
(g4504
I1
(tg1020
I00
S'9\xa8\t\x04\x0e\xdc\xf0@'
p9289
tp9290
bag3
(g4
(I0
tp9291
g6
tp9292
Rp9293
(g4516
I1
(tg1033
I00
S')\x97\xa7\x14cu\x19A'
p9294
tp9295
bag3
(g4
(I0
tp9296
g6
tp9297
Rp9298
(g4528
I1
(tg1046
I00
S'^b[\xd7\t-*A'
p9299
tp9300
bag3
(g4
(I0
tp9301
g6
tp9302
Rp9303
(g4540
I1
(tg1059
I00
S',\x82\xcc=Nd\x12A'
p9304
tp9305
bag3
(g4
(I0
tp9306
g6
tp9307
Rp9308
(g4552
I1
(tg1072
I00
S'#%\x8b3f-\xe7A'
p9309
tp9310
bag3
(g4
(I0
tp9311
g6
tp9312
Rp9313
(g4564
I1
(tg1085
I00
S'\x17w>\xbf\xed\x16\x05B'
p9314
tp9315
bag3
(g4
(I0
tp9316
g6
tp9317
Rp9318
(g4576
I1
(tg1098
I00
S'1\xe6u#\x81s0A'
p9319
tp9320
bag3
(g4
(I0
tp9321
g6
tp9322
Rp9323
(g4588
I1
(tg1111
I00
S'g)\xd6\x95\x05\x1c\xe2@'
p9324
tp9325
bag3
(g4
(I0
tp9326
g6
tp9327
Rp9328
(g4600
I1
(tg1124
I00
S'*\xf8T;rN\x8dA'
p9329
tp9330
bag3
(g4
(I0
tp9331
g6
tp9332
Rp9333
(g4612
I1
(tg1137
I00
S'\xd3\xf7};~\xf2\xa0A'
p9334
tp9335
bag3
(g4
(I0
tp9336
g6
tp9337
Rp9338
(g4624
I1
(tg1150
I00
S'NQ=\x1c\xe2<\xb5A'
p9339
tp9340
bag3
(g4
(I0
tp9341
g6
tp9342
Rp9343
(g4636
I1
(tg1163
I00
S'\x1fG&l\x85\xd0\xa6A'
p9344
tp9345
bag3
(g4
(I0
tp9346
g6
tp9347
Rp9348
(g4648
I1
(tg1176
I00
S'>l\xa1\xf2\x04h\xadA'
p9349
tp9350
bag3
(g4
(I0
tp9351
g6
tp9352
Rp9353
(g4660
I1
(tg1189
I00
S'\x12\xdb\xda\xdbz)\x10B'
p9354
tp9355
bag3
(g4
(I0
tp9356
g6
tp9357
Rp9358
(g4672
I1
(tg1202
I00
S'!\x80\xb1X\xa7\x07\rB'
p9359
tp9360
bag3
(g4
(I0
tp9361
g6
tp9362
Rp9363
(g4684
I1
(tg1215
I00
S"\xc1V\x01\x03k\x94'A"
p9364
tp9365
basS'zstar2'
p9366
(lp9367
g3
(g4
(I0
tp9368
g6
tp9369
Rp9370
(g13
I1
(tg19
I00
S'\xb2v\x96\xda\xfbhT?'
p9371
tp9372
bag3
(g4
(I0
tp9373
g6
tp9374
Rp9375
(g28
I1
(tg32
I00
S'\x9a\x95\x88\x07\x08\xafb?'
p9376
tp9377
bag3
(g4
(I0
tp9378
g6
tp9379
Rp9380
(g41
I1
(tg45
I00
S'\x0b<Zg\x19-(?'
p9381
tp9382
bag3
(g4
(I0
tp9383
g6
tp9384
Rp9385
(g54
I1
(tg58
I00
S'\x05\x8b\xe5\x0c\x7f\xdc\x9b?'
p9386
tp9387
bag3
(g4
(I0
tp9388
g6
tp9389
Rp9390
(g67
I1
(tg71
I00
S'\x84-\xd9\x97\x10)5?'
p9391
tp9392
bag3
(g4
(I0
tp9393
g6
tp9394
Rp9395
(g80
I1
(tg84
I00
S'\xb6+CZ\xcd\\1?'
p9396
tp9397
bag3
(g4
(I0
tp9398
g6
tp9399
Rp9400
(g93
I1
(tg97
I00
S'*jHO\x8c\xe6u?'
p9401
tp9402
bag3
(g4
(I0
tp9403
g6
tp9404
Rp9405
(g106
I1
(tg110
I00
S'm\x0cq\xc9}\xc84?'
p9406
tp9407
bag3
(g4
(I0
tp9408
g6
tp9409
Rp9410
(g119
I1
(tg123
I00
S'*\xdf\xf7:\xedW8?'
p9411
tp9412
bag3
(g4
(I0
tp9413
g6
tp9414
Rp9415
(g132
I1
(tg136
I00
S'\x1b\x02\xc5\x9a\xde\xe30?'
p9416
tp9417
bag3
(g4
(I0
tp9418
g6
tp9419
Rp9420
(g145
I1
(tg149
I00
S':\x05\x92\x8a\xe9o[?'
p9421
tp9422
bag3
(g4
(I0
tp9423
g6
tp9424
Rp9425
(g158
I1
(tg162
I00
S'\xa3\xbc\xf1\x87#p5?'
p9426
tp9427
bag3
(g4
(I0
tp9428
g6
tp9429
Rp9430
(g171
I1
(tg175
I00
S'\x98=="\x7f\x03a?'
p9431
tp9432
bag3
(g4
(I0
tp9433
g6
tp9434
Rp9435
(g184
I1
(tg188
I00
S'\\;\x9f\x89;\xbeY?'
p9436
tp9437
bag3
(g4
(I0
tp9438
g6
tp9439
Rp9440
(g197
I1
(tg201
I00
S'\xc4ju\x07\xbf\xf3K?'
p9441
tp9442
bag3
(g4
(I0
tp9443
g6
tp9444
Rp9445
(g210
I1
(tg214
I00
S'4>i\x11Y\x80\x99?'
p9446
tp9447
bag3
(g4
(I0
tp9448
g6
tp9449
Rp9450
(g223
I1
(tg227
I00
S'\x96g\xd6\x1c\xa8E4?'
p9451
tp9452
bag3
(g4
(I0
tp9453
g6
tp9454
Rp9455
(g236
I1
(tg240
I00
S'\xaa\xb6\n\x8f%l2?'
p9456
tp9457
bag3
(g4
(I0
tp9458
g6
tp9459
Rp9460
(g249
I1
(tg253
I00
S'\xf7\x0c\x8f\xcd\xeb\xdd3?'
p9461
tp9462
bag3
(g4
(I0
tp9463
g6
tp9464
Rp9465
(g262
I1
(tg266
I00
S'\x12\xef\xd7\x86\xb4}3?'
p9466
tp9467
bag3
(g4
(I0
tp9468
g6
tp9469
Rp9470
(g275
I1
(tg279
I00
S')\xe1\x8a\x16\xbf\x96\x9a?'
p9471
tp9472
bag3
(g4
(I0
tp9473
g6
tp9474
Rp9475
(g288
I1
(tg292
I00
S'\x08\xde\xf6\xce\xc3\x984?'
p9476
tp9477
bag3
(g4
(I0
tp9478
g6
tp9479
Rp9480
(g301
I1
(tg305
I00
S'r\xe1_\xb4u\xe9\x81?'
p9481
tp9482
bag3
(g4
(I0
tp9483
g6
tp9484
Rp9485
(g314
I1
(tg318
I00
S'\x9f\xeb\xec\xfd\x06\xf93?'
p9486
tp9487
bag3
(g4
(I0
tp9488
g6
tp9489
Rp9490
(g327
I1
(tg331
I00
S')\x0eXa\xf8\xac`?'
p9491
tp9492
bag3
(g4
(I0
tp9493
g6
tp9494
Rp9495
(g340
I1
(tg344
I00
S'\x83\xfc\xd3knv7?'
p9496
tp9497
bag3
(g4
(I0
tp9498
g6
tp9499
Rp9500
(g353
I1
(tg357
I00
S'\xae\x00]\xcaq\xce6?'
p9501
tp9502
bag3
(g4
(I0
tp9503
g6
tp9504
Rp9505
(g366
I1
(tg370
I00
S'\xef\xd6\x87\xdaW\xa22?'
p9506
tp9507
bag3
(g4
(I0
tp9508
g6
tp9509
Rp9510
(g379
I1
(tg383
I00
S'\xf9%\x1a=`\xe1\x80?'
p9511
tp9512
bag3
(g4
(I0
tp9513
g6
tp9514
Rp9515
(g392
I1
(tg396
I00
S'\x9a@N\x8f\x94\xb1u?'
p9516
tp9517
bag3
(g4
(I0
tp9518
g6
tp9519
Rp9520
(g405
I1
(tg409
I00
S'l\xcf\xac\xbaW=\x82?'
p9521
tp9522
bag3
(g4
(I0
tp9523
g6
tp9524
Rp9525
(g418
I1
(tg422
I00
S'2\x8d\xfc\xa8]\x1ap?'
p9526
tp9527
bag3
(g4
(I0
tp9528
g6
tp9529
Rp9530
(g431
I1
(tg435
I00
S']p\x08\xbf\xb6V\x90?'
p9531
tp9532
bag3
(g4
(I0
tp9533
g6
tp9534
Rp9535
(g444
I1
(tg448
I00
S'Dl\xa7\xb2\xc0~F?'
p9536
tp9537
bag3
(g4
(I0
tp9538
g6
tp9539
Rp9540
(g457
I1
(tg461
I00
S'o\xc1\xb04\xf7\xde3?'
p9541
tp9542
bag3
(g4
(I0
tp9543
g6
tp9544
Rp9545
(g470
I1
(tg474
I00
S'G9Dl\xc2\xb0\x9a?'
p9546
tp9547
bag3
(g4
(I0
tp9548
g6
tp9549
Rp9550
(g483
I1
(tg487
I00
S'\xd5\xa9#_D\xf9A?'
p9551
tp9552
bag3
(g4
(I0
tp9553
g6
tp9554
Rp9555
(g496
I1
(tg500
I00
S'\x0c\xf9\xae\x12&\xdd=?'
p9556
tp9557
bag3
(g4
(I0
tp9558
g6
tp9559
Rp9560
(g509
I1
(tg513
I00
S'\xf6\\\x08F|(F?'
p9561
tp9562
bag3
(g4
(I0
tp9563
g6
tp9564
Rp9565
(g522
I1
(tg526
I00
S'\x049\xb2D2\t\x84?'
p9566
tp9567
bag3
(g4
(I0
tp9568
g6
tp9569
Rp9570
(g535
I1
(tg539
I00
S'\xa5\x08\xc2\xa8\xe1\x0bC?'
p9571
tp9572
bag3
(g4
(I0
tp9573
g6
tp9574
Rp9575
(g548
I1
(tg552
I00
S'\xb4p\xe0IY\rr?'
p9576
tp9577
bag3
(g4
(I0
tp9578
g6
tp9579
Rp9580
(g561
I1
(tg565
I00
S'\xb7\xfa\xa4O\x81:S?'
p9581
tp9582
bag3
(g4
(I0
tp9583
g6
tp9584
Rp9585
(g574
I1
(tg578
I00
S'#\xa0\xd3>D >?'
p9586
tp9587
bag3
(g4
(I0
tp9588
g6
tp9589
Rp9590
(g587
I1
(tg591
I00
S"\xfc\xb6\x95\xcf'\x02s?"
p9591
tp9592
bag3
(g4
(I0
tp9593
g6
tp9594
Rp9595
(g600
I1
(tg604
I00
S'z\x94\x87C\x8b\xe3h?'
p9596
tp9597
bag3
(g4
(I0
tp9598
g6
tp9599
Rp9600
(g613
I1
(tg617
I00
S'y`\x8c\xc4[bq?'
p9601
tp9602
bag3
(g4
(I0
tp9603
g6
tp9604
Rp9605
(g626
I1
(tg630
I00
S'\xc4\xbe\xb0\xff\xc7\xc3\x95?'
p9606
tp9607
bag3
(g4
(I0
tp9608
g6
tp9609
Rp9610
(g639
I1
(tg643
I00
S'm\xc7\xdb\xf8\t\xa0B?'
p9611
tp9612
bag3
(g4
(I0
tp9613
g6
tp9614
Rp9615
(g652
I1
(tg656
I00
S'\xc0\x9c\x9d1H\xf8\x8d?'
p9616
tp9617
bag3
(g4
(I0
tp9618
g6
tp9619
Rp9620
(g665
I1
(tg669
I00
S"V'B\xcd\xfc\x928?"
p9621
tp9622
bag3
(g4
(I0
tp9623
g6
tp9624
Rp9625
(g678
I1
(tg682
I00
S'\x15eb\xfc\x90\xca9?'
p9626
tp9627
bag3
(g4
(I0
tp9628
g6
tp9629
Rp9630
(g691
I1
(tg695
I00
S':\xf3/]\xc3d\x1c?'
p9631
tp9632
bag3
(g4
(I0
tp9633
g6
tp9634
Rp9635
(g704
I1
(tg708
I00
S'oM[\xa4\xf1\x8cC?'
p9636
tp9637
bag3
(g4
(I0
tp9638
g6
tp9639
Rp9640
(g717
I1
(tg721
I00
S'\xaf\xb9I\x9e!\xa0C?'
p9641
tp9642
bag3
(g4
(I0
tp9643
g6
tp9644
Rp9645
(g730
I1
(tg734
I00
S'\xbf\x81\x8a\xb8\nrp?'
p9646
tp9647
bag3
(g4
(I0
tp9648
g6
tp9649
Rp9650
(g743
I1
(tg747
I00
S'\x0bg\xb0\x98\xcc\x19K?'
p9651
tp9652
bag3
(g4
(I0
tp9653
g6
tp9654
Rp9655
(g756
I1
(tg760
I00
S'X\xcf\x88%\xbe\xfc.?'
p9656
tp9657
bag3
(g4
(I0
tp9658
g6
tp9659
Rp9660
(g769
I1
(tg773
I00
S':\x8e\xc4h\xbdKJ?'
p9661
tp9662
bag3
(g4
(I0
tp9663
g6
tp9664
Rp9665
(g782
I1
(tg786
I00
S';\xcbuk\xbbJ\x8d?'
p9666
tp9667
bag3
(g4
(I0
tp9668
g6
tp9669
Rp9670
(g795
I1
(tg799
I00
S'H\x98J4h\x7fH?'
p9671
tp9672
bag3
(g4
(I0
tp9673
g6
tp9674
Rp9675
(g808
I1
(tg812
I00
S'a\x14H\xec\x1b\xb2\x1a?'
p9676
tp9677
bag3
(g4
(I0
tp9678
g6
tp9679
Rp9680
(g821
I1
(tg825
I00
S'\xf6K>\xbex\x06\x90?'
p9681
tp9682
bag3
(g4
(I0
tp9683
g6
tp9684
Rp9685
(g834
I1
(tg838
I00
S'\xfat\xd6\x84\xb1\xbbu?'
p9686
tp9687
bag3
(g4
(I0
tp9688
g6
tp9689
Rp9690
(g847
I1
(tg851
I00
S'\x8d\x1f\xab\x19/b3?'
p9691
tp9692
bag3
(g4
(I0
tp9693
g6
tp9694
Rp9695
(g860
I1
(tg864
I00
S'`\xa0_&\x0e/\x93?'
p9696
tp9697
bag3
(g4
(I0
tp9698
g6
tp9699
Rp9700
(g873
I1
(tg877
I00
S'%\xbb\xf4\x8a\xbe\xb4m?'
p9701
tp9702
bag3
(g4
(I0
tp9703
g6
tp9704
Rp9705
(g886
I1
(tg890
I00
S'\xeb-\xb9\xf7\x81\x191?'
p9706
tp9707
bag3
(g4
(I0
tp9708
g6
tp9709
Rp9710
(g899
I1
(tg903
I00
S'!\xe6\x18?#\x82v?'
p9711
tp9712
bag3
(g4
(I0
tp9713
g6
tp9714
Rp9715
(g912
I1
(tg916
I00
S')\x1f\x989\no\x92?'
p9716
tp9717
bag3
(g4
(I0
tp9718
g6
tp9719
Rp9720
(g925
I1
(tg929
I00
S'\x86\xc0Q\x1bC\xb2\x98?'
p9721
tp9722
bag3
(g4
(I0
tp9723
g6
tp9724
Rp9725
(g938
I1
(tg942
I00
S'\xcd\xaf\xd0(\xe4[\x96?'
p9726
tp9727
bag3
(g4
(I0
tp9728
g6
tp9729
Rp9730
(g951
I1
(tg955
I00
S'\x91\xd2\xb3O\x0eL\x99?'
p9731
tp9732
bag3
(g4
(I0
tp9733
g6
tp9734
Rp9735
(g964
I1
(tg968
I00
S'*\xf9\x19\x19\x07_\x96?'
p9736
tp9737
bag3
(g4
(I0
tp9738
g6
tp9739
Rp9740
(g977
I1
(tg981
I00
S'\xb2\x84\x08\xb0wPV?'
p9741
tp9742
bag3
(g4
(I0
tp9743
g6
tp9744
Rp9745
(g990
I1
(tg994
I00
S'K\xb3\xf1\x01\xc0\x05\x1b?'
p9746
tp9747
bag3
(g4
(I0
tp9748
g6
tp9749
Rp9750
(g1003
I1
(tg1007
I00
S'<\x81\xc1&\x85\xa3K?'
p9751
tp9752
bag3
(g4
(I0
tp9753
g6
tp9754
Rp9755
(g1016
I1
(tg1020
I00
S'\xd8\x9eA\xd2P\xed\x1a?'
p9756
tp9757
bag3
(g4
(I0
tp9758
g6
tp9759
Rp9760
(g1029
I1
(tg1033
I00
S'\xca:\xfb\xa4\xd5w$?'
p9761
tp9762
bag3
(g4
(I0
tp9763
g6
tp9764
Rp9765
(g1042
I1
(tg1046
I00
S'\x7f\xd8r\xd3i\xb11?'
p9766
tp9767
bag3
(g4
(I0
tp9768
g6
tp9769
Rp9770
(g1055
I1
(tg1059
I00
S'\x05\xcb00n\xbd\x1b?'
p9771
tp9772
bag3
(g4
(I0
tp9773
g6
tp9774
Rp9775
(g1068
I1
(tg1072
I00
S'/\xeaE\x9a\xd3!s?'
p9776
tp9777
bag3
(g4
(I0
tp9778
g6
tp9779
Rp9780
(g1081
I1
(tg1085
I00
S'H\x18<s\x05\xa0\x8b?'
p9781
tp9782
bag3
(g4
(I0
tp9783
g6
tp9784
Rp9785
(g1094
I1
(tg1098
I00
S'\xe5\x83\x93\xe7.*0?'
p9786
tp9787
bag3
(g4
(I0
tp9788
g6
tp9789
Rp9790
(g1107
I1
(tg1111
I00
S'+C\x1c\xeb\xe26\x1a?'
p9791
tp9792
bag3
(g4
(I0
tp9793
g6
tp9794
Rp9795
(g1120
I1
(tg1124
I00
S'\x9c\x05\xa7\x9ek\xa7I?'
p9796
tp9797
bag3
(g4
(I0
tp9798
g6
tp9799
Rp9800
(g1133
I1
(tg1137
I00
S'Q\xd3\xb9F\x17(I?'
p9801
tp9802
bag3
(g4
(I0
tp9803
g6
tp9804
Rp9805
(g1146
I1
(tg1150
I00
S'\x9f\xbf\x13IDCV?'
p9806
tp9807
bag3
(g4
(I0
tp9808
g6
tp9809
Rp9810
(g1159
I1
(tg1163
I00
S'P\x8c\xf2f\xb8JS?'
p9811
tp9812
bag3
(g4
(I0
tp9813
g6
tp9814
Rp9815
(g1172
I1
(tg1176
I00
S',\xa9\xc1LN_T?'
p9816
tp9817
bag3
(g4
(I0
tp9818
g6
tp9819
Rp9820
(g1185
I1
(tg1189
I00
S'3\xb9\x82\xf3\xaa\xd7\x8b?'
p9821
tp9822
bag3
(g4
(I0
tp9823
g6
tp9824
Rp9825
(g1198
I1
(tg1202
I00
S'|\x14\xbf)\xa5\xdc\x8d?'
p9826
tp9827
bag3
(g4
(I0
tp9828
g6
tp9829
Rp9830
(g1211
I1
(tg1215
I00
S'\xb2\xf0L\xd0\xde\xc0-?'
p9831
tp9832
basS'oh_gas6'
p9833
(lp9834
g3
(g4
(I0
tp9835
g6
tp9836
Rp9837
(g13
I1
(tg19
I00
S'7wu&\x00\x90\x1f@'
p9838
tp9839
bag3
(g4
(I0
tp9840
g6
tp9841
Rp9842
(g28
I1
(tg32
I00
S'\xc4\xdf\xcf3\xaeR @'
p9843
tp9844
bag3
(g4
(I0
tp9845
g6
tp9846
Rp9847
(g41
I1
(tg45
I00
S'\xb4HJXG`\x1b@'
p9848
tp9849
bag3
(g4
(I0
tp9850
g6
tp9851
Rp9852
(g54
I1
(tg58
I00
S'\x06\x0cd~\xbf\xbc"@'
p9853
tp9854
bag3
(g4
(I0
tp9855
g6
tp9856
Rp9857
(g67
I1
(tg71
I00
S'\x13\xbc\xe5\x9f{Q\x1d@'
p9858
tp9859
bag3
(g4
(I0
tp9860
g6
tp9861
Rp9862
(g80
I1
(tg84
I00
S'\x10\x8f\x9c\x82t6\x1d@'
p9863
tp9864
bag3
(g4
(I0
tp9865
g6
tp9866
Rp9867
(g93
I1
(tg97
I00
S'S*T \xca>!@'
p9868
tp9869
bag3
(g4
(I0
tp9870
g6
tp9871
Rp9872
(g106
I1
(tg110
I00
S'"gu\xa5\xc94\x1b@'
p9873
tp9874
bag3
(g4
(I0
tp9875
g6
tp9876
Rp9877
(g119
I1
(tg123
I00
S'\x8b\x9d\x01\xad\x12\xa5\x1d@'
p9878
tp9879
bag3
(g4
(I0
tp9880
g6
tp9881
Rp9882
(g132
I1
(tg136
I00
S'g\xecm\xae\xd1\xc6\x1b@'
p9883
tp9884
bag3
(g4
(I0
tp9885
g6
tp9886
Rp9887
(g145
I1
(tg149
I00
S'\xb1\xcc\xa0\xd4f\n @'
p9888
tp9889
bag3
(g4
(I0
tp9890
g6
tp9891
Rp9892
(g158
I1
(tg162
I00
S'\xb9\x07i["\xda\x1d@'
p9893
tp9894
bag3
(g4
(I0
tp9895
g6
tp9896
Rp9897
(g171
I1
(tg175
I00
S'^\x06\xe8\x8e\xd3T @'
p9898
tp9899
bag3
(g4
(I0
tp9900
g6
tp9901
Rp9902
(g184
I1
(tg188
I00
S'|\xe5TU?\xe3\x1e@'
p9903
tp9904
bag3
(g4
(I0
tp9905
g6
tp9906
Rp9907
(g197
I1
(tg201
I00
S'\xd5Hh$\x17\x9d\x1e@'
p9908
tp9909
bag3
(g4
(I0
tp9910
g6
tp9911
Rp9912
(g210
I1
(tg214
I00
S'\xde\xa5\x84\xd5\xd7\xcc"@'
p9913
tp9914
bag3
(g4
(I0
tp9915
g6
tp9916
Rp9917
(g223
I1
(tg227
I00
S'\xaa\x94R\xa8g\x11\x1d@'
p9918
tp9919
bag3
(g4
(I0
tp9920
g6
tp9921
Rp9922
(g236
I1
(tg240
I00
S'\xc9} \xfd\xffU\x1c@'
p9923
tp9924
bag3
(g4
(I0
tp9925
g6
tp9926
Rp9927
(g249
I1
(tg253
I00
S'\x96K_\xbd\x14\xab\x1c@'
p9928
tp9929
bag3
(g4
(I0
tp9930
g6
tp9931
Rp9932
(g262
I1
(tg266
I00
S'JD\xe0Mqp\x1c@'
p9933
tp9934
bag3
(g4
(I0
tp9935
g6
tp9936
Rp9937
(g275
I1
(tg279
I00
S'\x0ftc\xd4\xa5\xa0"@'
p9938
tp9939
bag3
(g4
(I0
tp9940
g6
tp9941
Rp9942
(g288
I1
(tg292
I00
S'{g\xc9\xec\x19\xef\x1c@'
p9943
tp9944
bag3
(g4
(I0
tp9945
g6
tp9946
Rp9947
(g301
I1
(tg305
I00
S'de\xa46\x1e\xa0!@'
p9948
tp9949
bag3
(g4
(I0
tp9950
g6
tp9951
Rp9952
(g314
I1
(tg318
I00
S"a'Y\xfcTC\x1d@"
p9953
tp9954
bag3
(g4
(I0
tp9955
g6
tp9956
Rp9957
(g327
I1
(tg331
I00
S"\x91\\'\xe8\x8b9 @"
p9958
tp9959
bag3
(g4
(I0
tp9960
g6
tp9961
Rp9962
(g340
I1
(tg344
I00
S'\xbegp+\x89\x94\x1d@'
p9963
tp9964
bag3
(g4
(I0
tp9965
g6
tp9966
Rp9967
(g353
I1
(tg357
I00
S'\xf8\xe0\x1f\x88\xda-\x1d@'
p9968
tp9969
bag3
(g4
(I0
tp9970
g6
tp9971
Rp9972
(g366
I1
(tg370
I00
S'0u\x03\xa4\xf7\x05\x1d@'
p9973
tp9974
bag3
(g4
(I0
tp9975
g6
tp9976
Rp9977
(g379
I1
(tg383
I00
S'\xc03\xfc\x89\xeb\x94!@'
p9978
tp9979
bag3
(g4
(I0
tp9980
g6
tp9981
Rp9982
(g392
I1
(tg396
I00
S'\xc8)_\x97\xc8$!@'
p9983
tp9984
bag3
(g4
(I0
tp9985
g6
tp9986
Rp9987
(g405
I1
(tg409
I00
S'V\xc6\x133H\xc3!@'
p9988
tp9989
bag3
(g4
(I0
tp9990
g6
tp9991
Rp9992
(g418
I1
(tg422
I00
S'p\x06\xdf\xf9\x10\xe8 @'
p9993
tp9994
bag3
(g4
(I0
tp9995
g6
tp9996
Rp9997
(g431
I1
(tg435
I00
S'\xdc\xf4\xb4\xc8I\xeb!@'
p9998
tp9999
bag3
(g4
(I0
tp10000
g6
tp10001
Rp10002
(g444
I1
(tg448
I00
S'\xb6\xbc\x00\x9eA!\x1f@'
p10003
tp10004
bag3
(g4
(I0
tp10005
g6
tp10006
Rp10007
(g457
I1
(tg461
I00
S'kapi\xb0\xaa\x1c@'
p10008
tp10009
bag3
(g4
(I0
tp10010
g6
tp10011
Rp10012
(g470
I1
(tg474
I00
S'\x18/\x96\xc9\x11\x82"@'
p10013
tp10014
bag3
(g4
(I0
tp10015
g6
tp10016
Rp10017
(g483
I1
(tg487
I00
S's\xb0\xdby\x05\xe9\x1d@'
p10018
tp10019
bag3
(g4
(I0
tp10020
g6
tp10021
Rp10022
(g496
I1
(tg500
I00
S'\x91j\xf9g\x02L\x1d@'
p10023
tp10024
bag3
(g4
(I0
tp10025
g6
tp10026
Rp10027
(g509
I1
(tg513
I00
S"\xf6\x9b'g\xd2\xf7\x1e@"
p10028
tp10029
bag3
(g4
(I0
tp10030
g6
tp10031
Rp10032
(g522
I1
(tg526
I00
S'\xcc\xc1\xd6\xc1p\xb2!@'
p10033
tp10034
bag3
(g4
(I0
tp10035
g6
tp10036
Rp10037
(g535
I1
(tg539
I00
S'B\n\xb8!\xd2\x0c\x1e@'
p10038
tp10039
bag3
(g4
(I0
tp10040
g6
tp10041
Rp10042
(g548
I1
(tg552
I00
S'\xed\x98=\xe2\xa0\xee @'
p10043
tp10044
bag3
(g4
(I0
tp10045
g6
tp10046
Rp10047
(g561
I1
(tg565
I00
S':o\x17\x1e\x7f&\x1f@'
p10048
tp10049
bag3
(g4
(I0
tp10050
g6
tp10051
Rp10052
(g574
I1
(tg578
I00
S'\xc19\rXYp\x1d@'
p10053
tp10054
bag3
(g4
(I0
tp10055
g6
tp10056
Rp10057
(g587
I1
(tg591
I00
S'6\xa4Ze\xd7\xb8 @'
p10058
tp10059
bag3
(g4
(I0
tp10060
g6
tp10061
Rp10062
(g600
I1
(tg604
I00
S'\x12K:\xec\x15n @'
p10063
tp10064
bag3
(g4
(I0
tp10065
g6
tp10066
Rp10067
(g613
I1
(tg617
I00
S'\x05\xee\xd3\xaf\xfa\xc2 @'
p10068
tp10069
bag3
(g4
(I0
tp10070
g6
tp10071
Rp10072
(g626
I1
(tg630
I00
S'X,\xf3yl9"@'
p10073
tp10074
bag3
(g4
(I0
tp10075
g6
tp10076
Rp10077
(g639
I1
(tg643
I00
S'I\x02`A\x15\xde\x1e@'
p10078
tp10079
bag3
(g4
(I0
tp10080
g6
tp10081
Rp10082
(g652
I1
(tg656
I00
S'\xc6\x87=\x0b1\x08"@'
p10083
tp10084
bag3
(g4
(I0
tp10085
g6
tp10086
Rp10087
(g665
I1
(tg669
I00
S'\rd\x8d\xdc\xdf\xf6\x1c@'
p10088
tp10089
bag3
(g4
(I0
tp10090
g6
tp10091
Rp10092
(g678
I1
(tg682
I00
S'\x08\x0e\x0b\xdc\xd1)\x1d@'
p10093
tp10094
bag3
(g4
(I0
tp10095
g6
tp10096
Rp10097
(g691
I1
(tg695
I00
S'W4h\xd2\xa0\x15\x14@'
p10098
tp10099
bag3
(g4
(I0
tp10100
g6
tp10101
Rp10102
(g704
I1
(tg708
I00
S'\x98\xa5\x076_`\x1e@'
p10103
tp10104
bag3
(g4
(I0
tp10105
g6
tp10106
Rp10107
(g717
I1
(tg721
I00
S'@\x0c\x07\xe4\x8e\xec\x1d@'
p10108
tp10109
bag3
(g4
(I0
tp10110
g6
tp10111
Rp10112
(g730
I1
(tg734
I00
S'\xb6vMZ\xea\xa6 @'
p10113
tp10114
bag3
(g4
(I0
tp10115
g6
tp10116
Rp10117
(g743
I1
(tg747
I00
S'\xd1\xfeb2B\x12\x1f@'
p10118
tp10119
bag3
(g4
(I0
tp10120
g6
tp10121
Rp10122
(g756
I1
(tg760
I00
S'\x8b\xac\x0b\xd2\xad\x88\x1c@'
p10123
tp10124
bag3
(g4
(I0
tp10125
g6
tp10126
Rp10127
(g769
I1
(tg773
I00
S'\x80X\x15g-\xad\x1e@'
p10128
tp10129
bag3
(g4
(I0
tp10130
g6
tp10131
Rp10132
(g782
I1
(tg786
I00
S'X\x1d\xcdS\x9c\xd6!@'
p10133
tp10134
bag3
(g4
(I0
tp10135
g6
tp10136
Rp10137
(g795
I1
(tg799
I00
S'\x80\xe5\xab\x0fh\x17\x1f@'
p10138
tp10139
bag3
(g4
(I0
tp10140
g6
tp10141
Rp10142
(g808
I1
(tg812
I00
S'\xc7\xfcy\x8c\xac\xd4\x19@'
p10143
tp10144
bag3
(g4
(I0
tp10145
g6
tp10146
Rp10147
(g821
I1
(tg825
I00
S',\xe5\x7f\x11\xd1#"@'
p10148
tp10149
bag3
(g4
(I0
tp10150
g6
tp10151
Rp10152
(g834
I1
(tg838
I00
S'\x99\xe1\xce\xaa\xff\xda @'
p10153
tp10154
bag3
(g4
(I0
tp10155
g6
tp10156
Rp10157
(g847
I1
(tg851
I00
S'\xd7\x9b\xd4*V\x05\x1d@'
p10158
tp10159
bag3
(g4
(I0
tp10160
g6
tp10161
Rp10162
(g860
I1
(tg864
I00
S'\xe8\xf7FN\x05\xd4!@'
p10163
tp10164
bag3
(g4
(I0
tp10165
g6
tp10166
Rp10167
(g873
I1
(tg877
I00
S'\xce\xcb\xc4\xe5\xc7\xca @'
p10168
tp10169
bag3
(g4
(I0
tp10170
g6
tp10171
Rp10172
(g886
I1
(tg890
I00
S'\x13r\xa2TFi\x1c@'
p10173
tp10174
bag3
(g4
(I0
tp10175
g6
tp10176
Rp10177
(g899
I1
(tg903
I00
S'\xdbW\xec\xf6O} @'
p10178
tp10179
bag3
(g4
(I0
tp10180
g6
tp10181
Rp10182
(g912
I1
(tg916
I00
S';P2\x13U\xce!@'
p10183
tp10184
bag3
(g4
(I0
tp10185
g6
tp10186
Rp10187
(g925
I1
(tg929
I00
S'\xaf7\xce#2\xbc"@'
p10188
tp10189
bag3
(g4
(I0
tp10190
g6
tp10191
Rp10192
(g938
I1
(tg942
I00
S'\xfe\x0bT\x00\xb2|"@'
p10193
tp10194
bag3
(g4
(I0
tp10195
g6
tp10196
Rp10197
(g951
I1
(tg955
I00
S'\x0c\xe3\xdf\x18\xba\xc3"@'
p10198
tp10199
bag3
(g4
(I0
tp10200
g6
tp10201
Rp10202
(g964
I1
(tg968
I00
S'\x13\x95\xbb\x8919"@'
p10203
tp10204
bag3
(g4
(I0
tp10205
g6
tp10206
Rp10207
(g977
I1
(tg981
I00
S'T\x10\x9c\x95&;\x1f@'
p10208
tp10209
bag3
(g4
(I0
tp10210
g6
tp10211
Rp10212
(g990
I1
(tg994
I00
S'T\xd5Df\xe9\xb6\x18@'
p10213
tp10214
bag3
(g4
(I0
tp10215
g6
tp10216
Rp10217
(g1003
I1
(tg1007
I00
S'\xe1/\x83\x12<\x87\x1e@'
p10218
tp10219
bag3
(g4
(I0
tp10220
g6
tp10221
Rp10222
(g1016
I1
(tg1020
I00
S'\xb4\xcbz\xdd\xb3\xb5\x19@'
p10223
tp10224
bag3
(g4
(I0
tp10225
g6
tp10226
Rp10227
(g1029
I1
(tg1033
I00
S'\xe9(\xe1u\x14\xc1\x1c@'
p10228
tp10229
bag3
(g4
(I0
tp10230
g6
tp10231
Rp10232
(g1042
I1
(tg1046
I00
S'\xa3\x03"\x91]s\x1d@'
p10233
tp10234
bag3
(g4
(I0
tp10235
g6
tp10236
Rp10237
(g1055
I1
(tg1059
I00
S'\xccD\xb6\x02\x04I\x1b@'
p10238
tp10239
bag3
(g4
(I0
tp10240
g6
tp10241
Rp10242
(g1068
I1
(tg1072
I00
S'\tD\x1b\x0e\n\xd1 @'
p10243
tp10244
bag3
(g4
(I0
tp10245
g6
tp10246
Rp10247
(g1081
I1
(tg1085
I00
S'\xe4\xca`\xfd\xbe\x04"@'
p10248
tp10249
bag3
(g4
(I0
tp10250
g6
tp10251
Rp10252
(g1094
I1
(tg1098
I00
S'4\xf31\xd3\x9bU\x1d@'
p10253
tp10254
bag3
(g4
(I0
tp10255
g6
tp10256
Rp10257
(g1107
I1
(tg1111
I00
S'\x96d\xa6f\xea\x9b\x14@'
p10258
tp10259
bag3
(g4
(I0
tp10260
g6
tp10261
Rp10262
(g1120
I1
(tg1124
I00
S';\xc6\x97\xe1zR\x1e@'
p10263
tp10264
bag3
(g4
(I0
tp10265
g6
tp10266
Rp10267
(g1133
I1
(tg1137
I00
S'\xc7\xab\xea\xe1/\xd9\x1d@'
p10268
tp10269
bag3
(g4
(I0
tp10270
g6
tp10271
Rp10272
(g1146
I1
(tg1150
I00
S'r\x88\xf15\x16\xc0\x1f@'
p10273
tp10274
bag3
(g4
(I0
tp10275
g6
tp10276
Rp10277
(g1159
I1
(tg1163
I00
S'\xc86\x02\xd7\xefh\x1f@'
p10278
tp10279
bag3
(g4
(I0
tp10280
g6
tp10281
Rp10282
(g1172
I1
(tg1176
I00
S'i\x9c\xa4\x1d_\x96\x1f@'
p10283
tp10284
bag3
(g4
(I0
tp10285
g6
tp10286
Rp10287
(g1185
I1
(tg1189
I00
S'\x10\x03f/\r\xdf!@'
p10288
tp10289
bag3
(g4
(I0
tp10290
g6
tp10291
Rp10292
(g1198
I1
(tg1202
I00
S'\x9e@\x7f\xfb\xcf\xdd!@'
p10293
tp10294
bag3
(g4
(I0
tp10295
g6
tp10296
Rp10297
(g1211
I1
(tg1215
I00
S'\xc7T\xb9\xdfaV\x1d@'
p10298
tp10299
bas.