(dp0
S'feh_rh'
p1
(lp2
cnumpy.core.multiarray
_reconstruct
p3
(cpynbody.array
SimArray
p4
(I0
tp5
S'b'
p6
tp7
Rp8
(ccopy_reg
_reconstructor
p9
(cpynbody.units
NoUnit
p10
c__builtin__
object
p11
Ntp12
Rp13
(dp14
S'_no_unit'
p15
I01
sbI1
(tcnumpy
dtype
p16
(S'f8'
p17
I0
I1
tp18
Rp19
(I3
S'<'
p20
NNNI-1
I-1
I0
tp21
bI00
S'Tjo\xc1\t;\xf7\xbf'
p22
tp23
bag3
(g4
(I0
tp24
g6
tp25
Rp26
(g9
(g10
g11
Ntp27
Rp28
(dp29
g15
I01
sbI1
(tg16
(S'f8'
p30
I0
I1
tp31
Rp32
(I3
S'<'
p33
NNNI-1
I-1
I0
tp34
bI00
S'B\x96\x14H\xe8a\xf3\xbf'
p35
tp36
bag3
(g4
(I0
tp37
g6
tp38
Rp39
(g9
(g10
g11
Ntp40
Rp41
(dp42
g15
I01
sbI1
(tg16
(S'f8'
p43
I0
I1
tp44
Rp45
(I3
S'<'
p46
NNNI-1
I-1
I0
tp47
bI00
S'o\xa5Ht\xc6T\x01\xc0'
p48
tp49
bag3
(g4
(I0
tp50
g6
tp51
Rp52
(g9
(g10
g11
Ntp53
Rp54
(dp55
g15
I01
sbI1
(tg16
(S'f8'
p56
I0
I1
tp57
Rp58
(I3
S'<'
p59
NNNI-1
I-1
I0
tp60
bI00
S'\xb4\xd8\x9c?\xaf\x99\x8c\xbf'
p61
tp62
bag3
(g4
(I0
tp63
g6
tp64
Rp65
(g9
(g10
g11
Ntp66
Rp67
(dp68
g15
I01
sbI1
(tg16
(S'f8'
p69
I0
I1
tp70
Rp71
(I3
S'<'
p72
NNNI-1
I-1
I0
tp73
bI00
S'\x8a\x85\x87\xb2\xfdK\xfe\xbf'
p74
tp75
bag3
(g4
(I0
tp76
g6
tp77
Rp78
(g9
(g10
g11
Ntp79
Rp80
(dp81
g15
I01
sbI1
(tg16
(S'f8'
p82
I0
I1
tp83
Rp84
(I3
S'<'
p85
NNNI-1
I-1
I0
tp86
bI00
S'?\xb2\xd8\xf6\x0e\x86\xff\xbf'
p87
tp88
bag3
(g4
(I0
tp89
g6
tp90
Rp91
(g9
(g10
g11
Ntp92
Rp93
(dp94
g15
I01
sbI1
(tg16
(S'f8'
p95
I0
I1
tp96
Rp97
(I3
S'<'
p98
NNNI-1
I-1
I0
tp99
bI00
S'*\xab\xca\xdb\xc5\x14\xec\xbf'
p100
tp101
bag3
(g4
(I0
tp102
g6
tp103
Rp104
(g9
(g10
g11
Ntp105
Rp106
(dp107
g15
I01
sbI1
(tg16
(S'f8'
p108
I0
I1
tp109
Rp110
(I3
S'<'
p111
NNNI-1
I-1
I0
tp112
bI00
S'\xdb\xc8\xc13\xbf\xa4\xfe\xbf'
p113
tp114
bag3
(g4
(I0
tp115
g6
tp116
Rp117
(g9
(g10
g11
Ntp118
Rp119
(dp120
g15
I01
sbI1
(tg16
(S'f8'
p121
I0
I1
tp122
Rp123
(I3
S'<'
p124
NNNI-1
I-1
I0
tp125
bI00
S' \x84a?\x1f\xfa\xfa\xbf'
p126
tp127
bag3
(g4
(I0
tp128
g6
tp129
Rp130
(g9
(g10
g11
Ntp131
Rp132
(dp133
g15
I01
sbI1
(tg16
(S'f8'
p134
I0
I1
tp135
Rp136
(I3
S'<'
p137
NNNI-1
I-1
I0
tp138
bI00
S'\xb0\xc6\xfdj\xbcU\xfe\xbf'
p139
tp140
bag3
(g4
(I0
tp141
g6
tp142
Rp143
(g9
(g10
g11
Ntp144
Rp145
(dp146
g15
I01
sbI1
(tg16
(S'f8'
p147
I0
I1
tp148
Rp149
(I3
S'<'
p150
NNNI-1
I-1
I0
tp151
bI00
S"\xa4'\x9e!&W\xf6\xbf"
p152
tp153
bag3
(g4
(I0
tp154
g6
tp155
Rp156
(g9
(g10
g11
Ntp157
Rp158
(dp159
g15
I01
sbI1
(tg16
(S'f8'
p160
I0
I1
tp161
Rp162
(I3
S'<'
p163
NNNI-1
I-1
I0
tp164
bI00
S'P\x03o\xb4\xb4\x16\xfc\xbf'
p165
tp166
bag3
(g4
(I0
tp167
g6
tp168
Rp169
(g9
(g10
g11
Ntp170
Rp171
(dp172
g15
I01
sbI1
(tg16
(S'f8'
p173
I0
I1
tp174
Rp175
(I3
S'<'
p176
NNNI-1
I-1
I0
tp177
bI00
S'\xfc\x1d\xbc\n\xca\x81\xf4\xbf'
p178
tp179
bag3
(g4
(I0
tp180
g6
tp181
Rp182
(g9
(g10
g11
Ntp183
Rp184
(dp185
g15
I01
sbI1
(tg16
(S'f8'
p186
I0
I1
tp187
Rp188
(I3
S'<'
p189
NNNI-1
I-1
I0
tp190
bI00
S'V`v\x950\x8f\xf5\xbf'
p191
tp192
bag3
(g4
(I0
tp193
g6
tp194
Rp195
(g9
(g10
g11
Ntp196
Rp197
(dp198
g15
I01
sbI1
(tg16
(S'f8'
p199
I0
I1
tp200
Rp201
(I3
S'<'
p202
NNNI-1
I-1
I0
tp203
bI00
S'3\x80"\r,\x8d\xfa\xbf'
p204
tp205
bag3
(g4
(I0
tp206
g6
tp207
Rp208
(g9
(g10
g11
Ntp209
Rp210
(dp211
g15
I01
sbI1
(tg16
(S'f8'
p212
I0
I1
tp213
Rp214
(I3
S'<'
p215
NNNI-1
I-1
I0
tp216
bI00
S'WXg@\x9f\xd3\xc2\xbf'
p217
tp218
bag3
(g4
(I0
tp219
g6
tp220
Rp221
(g9
(g10
g11
Ntp222
Rp223
(dp224
g15
I01
sbI1
(tg16
(S'f8'
p225
I0
I1
tp226
Rp227
(I3
S'<'
p228
NNNI-1
I-1
I0
tp229
bI00
S'F\xf4\xe5<\xb8\xf4\xfe\xbf'
p230
tp231
bag3
(g4
(I0
tp232
g6
tp233
Rp234
(g9
(g10
g11
Ntp235
Rp236
(dp237
g15
I01
sbI1
(tg16
(S'f8'
p238
I0
I1
tp239
Rp240
(I3
S'<'
p241
NNNI-1
I-1
I0
tp242
bI00
S'\x9a\xa3\x8fKV\x90\x00\xc0'
p243
tp244
bag3
(g4
(I0
tp245
g6
tp246
Rp247
(g9
(g10
g11
Ntp248
Rp249
(dp250
g15
I01
sbI1
(tg16
(S'f8'
p251
I0
I1
tp252
Rp253
(I3
S'<'
p254
NNNI-1
I-1
I0
tp255
bI00
S'\x9b;\xb2|[x\xfd\xbf'
p256
tp257
bag3
(g4
(I0
tp258
g6
tp259
Rp260
(g9
(g10
g11
Ntp261
Rp262
(dp263
g15
I01
sbI1
(tg16
(S'f8'
p264
I0
I1
tp265
Rp266
(I3
S'<'
p267
NNNI-1
I-1
I0
tp268
bI00
S'\x87\x06\x86\xcd\xb3\x11\x01\xc0'
p269
tp270
bag3
(g4
(I0
tp271
g6
tp272
Rp273
(g9
(g10
g11
Ntp274
Rp275
(dp276
g15
I01
sbI1
(tg16
(S'f8'
p277
I0
I1
tp278
Rp279
(I3
S'<'
p280
NNNI-1
I-1
I0
tp281
bI00
S'F\xbb\xb59\n^\x91\xbf'
p282
tp283
bag3
(g4
(I0
tp284
g6
tp285
Rp286
(g9
(g10
g11
Ntp287
Rp288
(dp289
g15
I01
sbI1
(tg16
(S'f8'
p290
I0
I1
tp291
Rp292
(I3
S'<'
p293
NNNI-1
I-1
I0
tp294
bI00
S'\x01\xe1H\xb84N\xfd\xbf'
p295
tp296
bag3
(g4
(I0
tp297
g6
tp298
Rp299
(g9
(g10
g11
Ntp300
Rp301
(dp302
g15
I01
sbI1
(tg16
(S'f8'
p303
I0
I1
tp304
Rp305
(I3
S'<'
p306
NNNI-1
I-1
I0
tp307
bI00
S'\x9d\x1do=\xdc_\xe6\xbf'
p308
tp309
bag3
(g4
(I0
tp310
g6
tp311
Rp312
(g9
(g10
g11
Ntp313
Rp314
(dp315
g15
I01
sbI1
(tg16
(S'f8'
p316
I0
I1
tp317
Rp318
(I3
S'<'
p319
NNNI-1
I-1
I0
tp320
bI00
S'U\xeb*\x0bi\xc3\xfd\xbf'
p321
tp322
bag3
(g4
(I0
tp323
g6
tp324
Rp325
(g9
(g10
g11
Ntp326
Rp327
(dp328
g15
I01
sbI1
(tg16
(S'f8'
p329
I0
I1
tp330
Rp331
(I3
S'<'
p332
NNNI-1
I-1
I0
tp333
bI00
S'\xdbT\xfcdW\x83\xf3\xbf'
p334
tp335
bag3
(g4
(I0
tp336
g6
tp337
Rp338
(g9
(g10
g11
Ntp339
Rp340
(dp341
g15
I01
sbI1
(tg16
(S'f8'
p342
I0
I1
tp343
Rp344
(I3
S'<'
p345
NNNI-1
I-1
I0
tp346
bI00
S'\xbb\x07%=n\x14\xfd\xbf'
p347
tp348
bag3
(g4
(I0
tp349
g6
tp350
Rp351
(g9
(g10
g11
Ntp352
Rp353
(dp354
g15
I01
sbI1
(tg16
(S'f8'
p355
I0
I1
tp356
Rp357
(I3
S'<'
p358
NNNI-1
I-1
I0
tp359
bI00
S'\xa5m\xfc\xfb\xc9W\xfc\xbf'
p360
tp361
bag3
(g4
(I0
tp362
g6
tp363
Rp364
(g9
(g10
g11
Ntp365
Rp366
(dp367
g15
I01
sbI1
(tg16
(S'f8'
p368
I0
I1
tp369
Rp370
(I3
S'<'
p371
NNNI-1
I-1
I0
tp372
bI00
S'\xc1\xa7\x98\xfdJ\xc2\xfe\xbf'
p373
tp374
bag3
(g4
(I0
tp375
g6
tp376
Rp377
(g9
(g10
g11
Ntp378
Rp379
(dp380
g15
I01
sbI1
(tg16
(S'f8'
p381
I0
I1
tp382
Rp383
(I3
S'<'
p384
NNNI-1
I-1
I0
tp385
bI00
S'\x0f\x8e\xb7\x8a-y\xe9\xbf'
p386
tp387
bag3
(g4
(I0
tp388
g6
tp389
Rp390
(g9
(g10
g11
Ntp391
Rp392
(dp393
g15
I01
sbI1
(tg16
(S'f8'
p394
I0
I1
tp395
Rp396
(I3
S'<'
p397
NNNI-1
I-1
I0
tp398
bI00
S'\x0fg\xf2(\xa8\xc4\xec\xbf'
p399
tp400
bag3
(g4
(I0
tp401
g6
tp402
Rp403
(g9
(g10
g11
Ntp404
Rp405
(dp406
g15
I01
sbI1
(tg16
(S'f8'
p407
I0
I1
tp408
Rp409
(I3
S'<'
p410
NNNI-1
I-1
I0
tp411
bI00
S'\xcd\xb1\xcaW\xd1\xa9\xe6\xbf'
p412
tp413
bag3
(g4
(I0
tp414
g6
tp415
Rp416
(g9
(g10
g11
Ntp417
Rp418
(dp419
g15
I01
sbI1
(tg16
(S'f8'
p420
I0
I1
tp421
Rp422
(I3
S'<'
p423
NNNI-1
I-1
I0
tp424
bI00
S'\xd3;\xa9\xdd\xcb\x0b\xf2\xbf'
p425
tp426
bag3
(g4
(I0
tp427
g6
tp428
Rp429
(g9
(g10
g11
Ntp430
Rp431
(dp432
g15
I01
sbI1
(tg16
(S'f8'
p433
I0
I1
tp434
Rp435
(I3
S'<'
p436
NNNI-1
I-1
I0
tp437
bI00
S'\xa0=\x1d\xb7\x98\xb1\xd9\xbf'
p438
tp439
bag3
(g4
(I0
tp440
g6
tp441
Rp442
(g9
(g10
g11
Ntp443
Rp444
(dp445
g15
I01
sbI1
(tg16
(S'f8'
p446
I0
I1
tp447
Rp448
(I3
S'<'
p449
NNNI-1
I-1
I0
tp450
bI00
S'\x1c\x04@\xf0yR\xf8\xbf'
p451
tp452
bag3
(g4
(I0
tp453
g6
tp454
Rp455
(g9
(g10
g11
Ntp456
Rp457
(dp458
g15
I01
sbI1
(tg16
(S'f8'
p459
I0
I1
tp460
Rp461
(I3
S'<'
p462
NNNI-1
I-1
I0
tp463
bI00
S'\x06\xe3,z\x01\xc8\xfd\xbf'
p464
tp465
bag3
(g4
(I0
tp466
g6
tp467
Rp468
(g9
(g10
g11
Ntp469
Rp470
(dp471
g15
I01
sbI1
(tg16
(S'f8'
p472
I0
I1
tp473
Rp474
(I3
S'<'
p475
NNNI-1
I-1
I0
tp476
bI00
S'\x0f|\xccnS\xef\x85?'
p477
tp478
bag3
(g4
(I0
tp479
g6
tp480
Rp481
(g9
(g10
g11
Ntp482
Rp483
(dp484
g15
I01
sbI1
(tg16
(S'f8'
p485
I0
I1
tp486
Rp487
(I3
S'<'
p488
NNNI-1
I-1
I0
tp489
bI00
S'\xf5\n$j[\x18\xfa\xbf'
p490
tp491
bag3
(g4
(I0
tp492
g6
tp493
Rp494
(g9
(g10
g11
Ntp495
Rp496
(dp497
g15
I01
sbI1
(tg16
(S'f8'
p498
I0
I1
tp499
Rp500
(I3
S'<'
p501
NNNI-1
I-1
I0
tp502
bI00
S'\xf8.o\x8d\xa0>\xfb\xbf'
p503
tp504
bag3
(g4
(I0
tp505
g6
tp506
Rp507
(g9
(g10
g11
Ntp508
Rp509
(dp510
g15
I01
sbI1
(tg16
(S'f8'
p511
I0
I1
tp512
Rp513
(I3
S'<'
p514
NNNI-1
I-1
I0
tp515
bI00
S'\xfb\x05\xb0\x0c?\xaa\xf8\xbf'
p516
tp517
bag3
(g4
(I0
tp518
g6
tp519
Rp520
(g9
(g10
g11
Ntp521
Rp522
(dp523
g15
I01
sbI1
(tg16
(S'f8'
p524
I0
I1
tp525
Rp526
(I3
S'<'
p527
NNNI-1
I-1
I0
tp528
bI00
S'P.\xb3\xa2\xb8\xd8\xe5\xbf'
p529
tp530
bag3
(g4
(I0
tp531
g6
tp532
Rp533
(g9
(g10
g11
Ntp534
Rp535
(dp536
g15
I01
sbI1
(tg16
(S'f8'
p537
I0
I1
tp538
Rp539
(I3
S'<'
p540
NNNI-1
I-1
I0
tp541
bI00
S'\x90\x19a\xb2`\x07\xfa\xbf'
p542
tp543
bag3
(g4
(I0
tp544
g6
tp545
Rp546
(g9
(g10
g11
Ntp547
Rp548
(dp549
g15
I01
sbI1
(tg16
(S'f8'
p550
I0
I1
tp551
Rp552
(I3
S'<'
p553
NNNI-1
I-1
I0
tp554
bI00
S'\xc5\x9f\x1a\xc9\xac\x1f\xf0\xbf'
p555
tp556
bag3
(g4
(I0
tp557
g6
tp558
Rp559
(g9
(g10
g11
Ntp560
Rp561
(dp562
g15
I01
sbI1
(tg16
(S'f8'
p563
I0
I1
tp564
Rp565
(I3
S'<'
p566
NNNI-1
I-1
I0
tp567
bI00
S'\xfb6\xb0@q\x0b\xf7\xbf'
p568
tp569
bag3
(g4
(I0
tp570
g6
tp571
Rp572
(g9
(g10
g11
Ntp573
Rp574
(dp575
g15
I01
sbI1
(tg16
(S'f8'
p576
I0
I1
tp577
Rp578
(I3
S'<'
p579
NNNI-1
I-1
I0
tp580
bI00
S'\xd8\xa9\xf6R\xf2e\xfb\xbf'
p581
tp582
bag3
(g4
(I0
tp583
g6
tp584
Rp585
(g9
(g10
g11
Ntp586
Rp587
(dp588
g15
I01
sbI1
(tg16
(S'f8'
p589
I0
I1
tp590
Rp591
(I3
S'<'
p592
NNNI-1
I-1
I0
tp593
bI00
S'D\x00CK\xcb\x0c\xed\xbf'
p594
tp595
bag3
(g4
(I0
tp596
g6
tp597
Rp598
(g9
(g10
g11
Ntp599
Rp600
(dp601
g15
I01
sbI1
(tg16
(S'f8'
p602
I0
I1
tp603
Rp604
(I3
S'<'
p605
NNNI-1
I-1
I0
tp606
bI00
S'.*\x1a\x14#\x88\xf2\xbf'
p607
tp608
bag3
(g4
(I0
tp609
g6
tp610
Rp611
(g9
(g10
g11
Ntp612
Rp613
(dp614
g15
I01
sbI1
(tg16
(S'f8'
p615
I0
I1
tp616
Rp617
(I3
S'<'
p618
NNNI-1
I-1
I0
tp619
bI00
S'\x95\x97\x19\x1e\xad\xba\xef\xbf'
p620
tp621
bag3
(g4
(I0
tp622
g6
tp623
Rp624
(g9
(g10
g11
Ntp625
Rp626
(dp627
g15
I01
sbI1
(tg16
(S'f8'
p628
I0
I1
tp629
Rp630
(I3
S'<'
p631
NNNI-1
I-1
I0
tp632
bI00
S'\xd1\xd1n\x16\xc2\xeb\xcc\xbf'
p633
tp634
bag3
(g4
(I0
tp635
g6
tp636
Rp637
(g9
(g10
g11
Ntp638
Rp639
(dp640
g15
I01
sbI1
(tg16
(S'f8'
p641
I0
I1
tp642
Rp643
(I3
S'<'
p644
NNNI-1
I-1
I0
tp645
bI00
S'\x1f\x90M\x83xL\xfa\xbf'
p646
tp647
bag3
(g4
(I0
tp648
g6
tp649
Rp650
(g9
(g10
g11
Ntp651
Rp652
(dp653
g15
I01
sbI1
(tg16
(S'f8'
p654
I0
I1
tp655
Rp656
(I3
S'<'
p657
NNNI-1
I-1
I0
tp658
bI00
S'kT\xe2%\x08\xae\xdf\xbf'
p659
tp660
bag3
(g4
(I0
tp661
g6
tp662
Rp663
(g9
(g10
g11
Ntp664
Rp665
(dp666
g15
I01
sbI1
(tg16
(S'f8'
p667
I0
I1
tp668
Rp669
(I3
S'<'
p670
NNNI-1
I-1
I0
tp671
bI00
S'\xd1h\xff;j\xdb\xfb\xbf'
p672
tp673
bag3
(g4
(I0
tp674
g6
tp675
Rp676
(g9
(g10
g11
Ntp677
Rp678
(dp679
g15
I01
sbI1
(tg16
(S'f8'
p680
I0
I1
tp681
Rp682
(I3
S'<'
p683
NNNI-1
I-1
I0
tp684
bI00
S'q\x93\xe8\xfeh\xc2\xfe\xbf'
p685
tp686
bag3
(g4
(I0
tp687
g6
tp688
Rp689
(g9
(g10
g11
Ntp690
Rp691
(dp692
g15
I01
sbI1
(tg16
(S'f8'
p693
I0
I1
tp694
Rp695
(I3
S'<'
p696
NNNI-1
I-1
I0
tp697
bI00
S'n\x0b[\x9dx.\x1b\xc0'
p698
tp699
bag3
(g4
(I0
tp700
g6
tp701
Rp702
(g9
(g10
g11
Ntp703
Rp704
(dp705
g15
I01
sbI1
(tg16
(S'f8'
p706
I0
I1
tp707
Rp708
(I3
S'<'
p709
NNNI-1
I-1
I0
tp710
bI00
S'\x19lPB\xd3\xfe\xfa\xbf'
p711
tp712
bag3
(g4
(I0
tp713
g6
tp714
Rp715
(g9
(g10
g11
Ntp716
Rp717
(dp718
g15
I01
sbI1
(tg16
(S'f8'
p719
I0
I1
tp720
Rp721
(I3
S'<'
p722
NNNI-1
I-1
I0
tp723
bI00
S'j\x1d\x16\\\xd6/\xfb\xbf'
p724
tp725
bag3
(g4
(I0
tp726
g6
tp727
Rp728
(g9
(g10
g11
Ntp729
Rp730
(dp731
g15
I01
sbI1
(tg16
(S'f8'
p732
I0
I1
tp733
Rp734
(I3
S'<'
p735
NNNI-1
I-1
I0
tp736
bI00
S'\x0f\xd1\x1a7g%\xef\xbf'
p737
tp738
bag3
(g4
(I0
tp739
g6
tp740
Rp741
(g9
(g10
g11
Ntp742
Rp743
(dp744
g15
I01
sbI1
(tg16
(S'f8'
p745
I0
I1
tp746
Rp747
(I3
S'<'
p748
NNNI-1
I-1
I0
tp749
bI00
S'\xfb\xa3\x89P\x1e\xc7\xf7\xbf'
p750
tp751
bag3
(g4
(I0
tp752
g6
tp753
Rp754
(g9
(g10
g11
Ntp755
Rp756
(dp757
g15
I01
sbI1
(tg16
(S'f8'
p758
I0
I1
tp759
Rp760
(I3
S'<'
p761
NNNI-1
I-1
I0
tp762
bI00
S'\xb7\xa7\xf4\xb6\xad\xf6\xff\xbf'
p763
tp764
bag3
(g4
(I0
tp765
g6
tp766
Rp767
(g9
(g10
g11
Ntp768
Rp769
(dp770
g15
I01
sbI1
(tg16
(S'f8'
p771
I0
I1
tp772
Rp773
(I3
S'<'
p774
NNNI-1
I-1
I0
tp775
bI00
S'\xe2\x16rb\xcfb\xf7\xbf'
p776
tp777
bag3
(g4
(I0
tp778
g6
tp779
Rp780
(g9
(g10
g11
Ntp781
Rp782
(dp783
g15
I01
sbI1
(tg16
(S'f8'
p784
I0
I1
tp785
Rp786
(I3
S'<'
p787
NNNI-1
I-1
I0
tp788
bI00
S't\x9f\xe7\xf7\xad\x90\xde\xbf'
p789
tp790
bag3
(g4
(I0
tp791
g6
tp792
Rp793
(g9
(g10
g11
Ntp794
Rp795
(dp796
g15
I01
sbI1
(tg16
(S'f8'
p797
I0
I1
tp798
Rp799
(I3
S'<'
p800
NNNI-1
I-1
I0
tp801
bI00
S'\xe8b\xef\xa4N\xf3\xf7\xbf'
p802
tp803
bag3
(g4
(I0
tp804
g6
tp805
Rp806
(g9
(g10
g11
Ntp807
Rp808
(dp809
g15
I01
sbI1
(tg16
(S'f8'
p810
I0
I1
tp811
Rp812
(I3
S'<'
p813
NNNI-1
I-1
I0
tp814
bI00
S'\xcb\x81\xf2\xcex \x06\xc0'
p815
tp816
bag3
(g4
(I0
tp817
g6
tp818
Rp819
(g9
(g10
g11
Ntp820
Rp821
(dp822
g15
I01
sbI1
(tg16
(S'f8'
p823
I0
I1
tp824
Rp825
(I3
S'<'
p826
NNNI-1
I-1
I0
tp827
bI00
S'\xa3\x9d\xbd\xd9C\xec\xe1\xbf'
p828
tp829
bag3
(g4
(I0
tp830
g6
tp831
Rp832
(g9
(g10
g11
Ntp833
Rp834
(dp835
g15
I01
sbI1
(tg16
(S'f8'
p836
I0
I1
tp837
Rp838
(I3
S'<'
p839
NNNI-1
I-1
I0
tp840
bI00
S'\xcc\x1a\xb4d\x06\x97\xee\xbf'
p841
tp842
bag3
(g4
(I0
tp843
g6
tp844
Rp845
(g9
(g10
g11
Ntp846
Rp847
(dp848
g15
I01
sbI1
(tg16
(S'f8'
p849
I0
I1
tp850
Rp851
(I3
S'<'
p852
NNNI-1
I-1
I0
tp853
bI00
S'\xf1)\x00\x87\xc5\x02\xff\xbf'
p854
tp855
bag3
(g4
(I0
tp856
g6
tp857
Rp858
(g9
(g10
g11
Ntp859
Rp860
(dp861
g15
I01
sbI1
(tg16
(S'f8'
p862
I0
I1
tp863
Rp864
(I3
S'<'
p865
NNNI-1
I-1
I0
tp866
bI00
S'\x9cw\xc935h\xd6\xbf'
p867
tp868
bag3
(g4
(I0
tp869
g6
tp870
Rp871
(g9
(g10
g11
Ntp872
Rp873
(dp874
g15
I01
sbI1
(tg16
(S'f8'
p875
I0
I1
tp876
Rp877
(I3
S'<'
p878
NNNI-1
I-1
I0
tp879
bI00
S'\xe9\rn\xaf\xd4d\xf0\xbf'
p880
tp881
bag3
(g4
(I0
tp882
g6
tp883
Rp884
(g9
(g10
g11
Ntp885
Rp886
(dp887
g15
I01
sbI1
(tg16
(S'f8'
p888
I0
I1
tp889
Rp890
(I3
S'<'
p891
NNNI-1
I-1
I0
tp892
bI00
S'\xc8\xcfc\x1eWw\xfc\xbf'
p893
tp894
bag3
(g4
(I0
tp895
g6
tp896
Rp897
(g9
(g10
g11
Ntp898
Rp899
(dp900
g15
I01
sbI1
(tg16
(S'f8'
p901
I0
I1
tp902
Rp903
(I3
S'<'
p904
NNNI-1
I-1
I0
tp905
bI00
S'\xdf\xcd\xa5\x06\x84\xe3\xea\xbf'
p906
tp907
bag3
(g4
(I0
tp908
g6
tp909
Rp910
(g9
(g10
g11
Ntp911
Rp912
(dp913
g15
I01
sbI1
(tg16
(S'f8'
p914
I0
I1
tp915
Rp916
(I3
S'<'
p917
NNNI-1
I-1
I0
tp918
bI00
S'x\xa8|m\xfb\xa2\xd4\xbf'
p919
tp920
bag3
(g4
(I0
tp921
g6
tp922
Rp923
(g9
(g10
g11
Ntp924
Rp925
(dp926
g15
I01
sbI1
(tg16
(S'f8'
p927
I0
I1
tp928
Rp929
(I3
S'<'
p930
NNNI-1
I-1
I0
tp931
bI00
S'\x86\x8f"AY\xdf\xbb\xbf'
p932
tp933
bag3
(g4
(I0
tp934
g6
tp935
Rp936
(g9
(g10
g11
Ntp937
Rp938
(dp939
g15
I01
sbI1
(tg16
(S'f8'
p940
I0
I1
tp941
Rp942
(I3
S'<'
p943
NNNI-1
I-1
I0
tp944
bI00
S'\xbeG\x87u\xb1t\xd4\xbf'
p945
tp946
bag3
(g4
(I0
tp947
g6
tp948
Rp949
(g9
(g10
g11
Ntp950
Rp951
(dp952
g15
I01
sbI1
(tg16
(S'f8'
p953
I0
I1
tp954
Rp955
(I3
S'<'
p956
NNNI-1
I-1
I0
tp957
bI00
S'\x87:\xf5\x145\x9b\xb3\xbf'
p958
tp959
bag3
(g4
(I0
tp960
g6
tp961
Rp962
(g9
(g10
g11
Ntp963
Rp964
(dp965
g15
I01
sbI1
(tg16
(S'f8'
p966
I0
I1
tp967
Rp968
(I3
S'<'
p969
NNNI-1
I-1
I0
tp970
bI00
S'\xe7=k\xdb<\xa8\xcd\xbf'
p971
tp972
bag3
(g4
(I0
tp973
g6
tp974
Rp975
(g9
(g10
g11
Ntp976
Rp977
(dp978
g15
I01
sbI1
(tg16
(S'f8'
p979
I0
I1
tp980
Rp981
(I3
S'<'
p982
NNNI-1
I-1
I0
tp983
bI00
S'\x01 \x86\xff\xbd\xf1\xf4\xbf'
p984
tp985
bag3
(g4
(I0
tp986
g6
tp987
Rp988
(g9
(g10
g11
Ntp989
Rp990
(dp991
g15
I01
sbI1
(tg16
(S'f8'
p992
I0
I1
tp993
Rp994
(I3
S'<'
p995
NNNI-1
I-1
I0
tp996
bI00
S'\xee\x81C\xd1\xfa%\x18\xc0'
p997
tp998
bag3
(g4
(I0
tp999
g6
tp1000
Rp1001
(g9
(g10
g11
Ntp1002
Rp1003
(dp1004
g15
I01
sbI1
(tg16
(S'f8'
p1005
I0
I1
tp1006
Rp1007
(I3
S'<'
p1008
NNNI-1
I-1
I0
tp1009
bI00
S'.]\xe6\x99\x02\xaf\xf8\xbf'
p1010
tp1011
bag3
(g4
(I0
tp1012
g6
tp1013
Rp1014
(g9
(g10
g11
Ntp1015
Rp1016
(dp1017
g15
I01
sbI1
(tg16
(S'f8'
p1018
I0
I1
tp1019
Rp1020
(I3
S'<'
p1021
NNNI-1
I-1
I0
tp1022
bI00
S'\xa8i\xf3\xfcm\x89\r\xc0'
p1023
tp1024
bag3
(g4
(I0
tp1025
g6
tp1026
Rp1027
(g9
(g10
g11
Ntp1028
Rp1029
(dp1030
g15
I01
sbI1
(tg16
(S'f8'
p1031
I0
I1
tp1032
Rp1033
(I3
S'<'
p1034
NNNI-1
I-1
I0
tp1035
bI00
S'\xf1\xb1}\xca\x9bu\x03\xc0'
p1036
tp1037
bag3
(g4
(I0
tp1038
g6
tp1039
Rp1040
(g9
(g10
g11
Ntp1041
Rp1042
(dp1043
g15
I01
sbI1
(tg16
(S'f8'
p1044
I0
I1
tp1045
Rp1046
(I3
S'<'
p1047
NNNI-1
I-1
I0
tp1048
bI00
S'r\x1a\x85E\xbf\xd7\x06\xc0'
p1049
tp1050
bag3
(g4
(I0
tp1051
g6
tp1052
Rp1053
(g9
(g10
g11
Ntp1054
Rp1055
(dp1056
g15
I01
sbI1
(tg16
(S'f8'
p1057
I0
I1
tp1058
Rp1059
(I3
S'<'
p1060
NNNI-1
I-1
I0
tp1061
bI00
S'+\xc1\x90\xf3\x02\x1a\x00\xc0'
p1062
tp1063
bag3
(g4
(I0
tp1064
g6
tp1065
Rp1066
(g9
(g10
g11
Ntp1067
Rp1068
(dp1069
g15
I01
sbI1
(tg16
(S'f8'
p1070
I0
I1
tp1071
Rp1072
(I3
S'<'
p1073
NNNI-1
I-1
I0
tp1074
bI00
S'D\xfb\xe2<\xbc\xab\x07\xc0'
p1075
tp1076
bag3
(g4
(I0
tp1077
g6
tp1078
Rp1079
(g9
(g10
g11
Ntp1080
Rp1081
(dp1082
g15
I01
sbI1
(tg16
(S'f8'
p1083
I0
I1
tp1084
Rp1085
(I3
S'<'
p1086
NNNI-1
I-1
I0
tp1087
bI00
S'\x89 S\xdb\xbb\xe7\xde\xbf'
p1088
tp1089
bag3
(g4
(I0
tp1090
g6
tp1091
Rp1092
(g9
(g10
g11
Ntp1093
Rp1094
(dp1095
g15
I01
sbI1
(tg16
(S'f8'
p1096
I0
I1
tp1097
Rp1098
(I3
S'<'
p1099
NNNI-1
I-1
I0
tp1100
bI00
S'&\t\x9fE\xf0W\x01\xc0'
p1101
tp1102
bag3
(g4
(I0
tp1103
g6
tp1104
Rp1105
(g9
(g10
g11
Ntp1106
Rp1107
(dp1108
g15
I01
sbI1
(tg16
(S'f8'
p1109
I0
I1
tp1110
Rp1111
(I3
S'<'
p1112
NNNI-1
I-1
I0
tp1113
bI00
S'w:\x94\x86\xcd\xc1\xed\xbf'
p1114
tp1115
bag3
(g4
(I0
tp1116
g6
tp1117
Rp1118
(g9
(g10
g11
Ntp1119
Rp1120
(dp1121
g15
I01
sbI1
(tg16
(S'f8'
p1122
I0
I1
tp1123
Rp1124
(I3
S'<'
p1125
NNNI-1
I-1
I0
tp1126
bI00
S'!\xea\x84\xe6-\xce\xe2\xbf'
p1127
tp1128
bag3
(g4
(I0
tp1129
g6
tp1130
Rp1131
(g9
(g10
g11
Ntp1132
Rp1133
(dp1134
g15
I01
sbI1
(tg16
(S'f8'
p1135
I0
I1
tp1136
Rp1137
(I3
S'<'
p1138
NNNI-1
I-1
I0
tp1139
bI00
S'\xd0:\x95?\x99\xd2\x00\xc0'
p1140
tp1141
bag3
(g4
(I0
tp1142
g6
tp1143
Rp1144
(g9
(g10
g11
Ntp1145
Rp1146
(dp1147
g15
I01
sbI1
(tg16
(S'f8'
p1148
I0
I1
tp1149
Rp1150
(I3
S'<'
p1151
NNNI-1
I-1
I0
tp1152
bI00
S'r17\xb6\x08\xe9\x18\xc0'
p1153
tp1154
bag3
(g4
(I0
tp1155
g6
tp1156
Rp1157
(g9
(g10
g11
Ntp1158
Rp1159
(dp1160
g15
I01
sbI1
(tg16
(S'f8'
p1161
I0
I1
tp1162
Rp1163
(I3
S'<'
p1164
NNNI-1
I-1
I0
tp1165
bI00
S'\xf9AS/\x82g\xf8\xbf'
p1166
tp1167
bag3
(g4
(I0
tp1168
g6
tp1169
Rp1170
(g9
(g10
g11
Ntp1171
Rp1172
(dp1173
g15
I01
sbI1
(tg16
(S'f8'
p1174
I0
I1
tp1175
Rp1176
(I3
S'<'
p1177
NNNI-1
I-1
I0
tp1178
bI00
S'\xa4\xc0\x8f\x90\xe1}\xf8\xbf'
p1179
tp1180
bag3
(g4
(I0
tp1181
g6
tp1182
Rp1183
(g9
(g10
g11
Ntp1184
Rp1185
(dp1186
g15
I01
sbI1
(tg16
(S'f8'
p1187
I0
I1
tp1188
Rp1189
(I3
S'<'
p1190
NNNI-1
I-1
I0
tp1191
bI00
S'\xaaE\xe5\x8d\xa3\xca\xf6\xbf'
p1192
tp1193
bag3
(g4
(I0
tp1194
g6
tp1195
Rp1196
(g9
(g10
g11
Ntp1197
Rp1198
(dp1199
g15
I01
sbI1
(tg16
(S'f8'
p1200
I0
I1
tp1201
Rp1202
(I3
S'<'
p1203
NNNI-1
I-1
I0
tp1204
bI00
S'\xc4f`]\xa4=\xf5\xbf'
p1205
tp1206
bag3
(g4
(I0
tp1207
g6
tp1208
Rp1209
(g9
(g10
g11
Ntp1210
Rp1211
(dp1212
g15
I01
sbI1
(tg16
(S'f8'
p1213
I0
I1
tp1214
Rp1215
(I3
S'<'
p1216
NNNI-1
I-1
I0
tp1217
bI00
S'\xa9\xa2_+\xfb\x08\xf6\xbf'
p1218
tp1219
bag3
(g4
(I0
tp1220
g6
tp1221
Rp1222
(g9
(g10
g11
Ntp1223
Rp1224
(dp1225
g15
I01
sbI1
(tg16
(S'f8'
p1226
I0
I1
tp1227
Rp1228
(I3
S'<'
p1229
NNNI-1
I-1
I0
tp1230
bI00
S'\xc1\xcd\xb5zc\xa7\xe3\xbf'
p1231
tp1232
basS'zstar2_lum'
p1233
(lp1234
g3
(g4
(I0
tp1235
g6
tp1236
Rp1237
(g13
I1
(tg19
I00
S'~0\xe2\x0c\xe2GU?'
p1238
tp1239
bag3
(g4
(I0
tp1240
g6
tp1241
Rp1242
(g28
I1
(tg32
I00
S'`\xba\xc3ff;d?'
p1243
tp1244
bag3
(g4
(I0
tp1245
g6
tp1246
Rp1247
(g41
I1
(tg45
I00
S'\x15\xa9~< N*?'
p1248
tp1249
bag3
(g4
(I0
tp1250
g6
tp1251
Rp1252
(g54
I1
(tg58
I00
S'-\xcc\xf5\x91J\x1b\x9c?'
p1253
tp1254
bag3
(g4
(I0
tp1255
g6
tp1256
Rp1257
(g67
I1
(tg71
I00
S'\xb5Sn\x87D\xc96?'
p1258
tp1259
bag3
(g4
(I0
tp1260
g6
tp1261
Rp1262
(g80
I1
(tg84
I00
S'\xfd,3&o\xb83?'
p1263
tp1264
bag3
(g4
(I0
tp1265
g6
tp1266
Rp1267
(g93
I1
(tg97
I00
S'\xa4:_\xdbp\xf7z?'
p1268
tp1269
bag3
(g4
(I0
tp1270
g6
tp1271
Rp1272
(g106
I1
(tg110
I00
S'\\\\\x8e\xf5\xe5\x9b9?'
p1273
tp1274
bag3
(g4
(I0
tp1275
g6
tp1276
Rp1277
(g119
I1
(tg123
I00
S'\x1f\x1f\xeb\x02\xba[??'
p1278
tp1279
bag3
(g4
(I0
tp1280
g6
tp1281
Rp1282
(g132
I1
(tg136
I00
S'\xb6m\xedh\n\xde1?'
p1283
tp1284
bag3
(g4
(I0
tp1285
g6
tp1286
Rp1287
(g145
I1
(tg149
I00
S'Q\xcf\xbe\xf63?`?'
p1288
tp1289
bag3
(g4
(I0
tp1290
g6
tp1291
Rp1292
(g158
I1
(tg162
I00
S'\xeb\xbb\xee\x84\xa7\xa5:?'
p1293
tp1294
bag3
(g4
(I0
tp1295
g6
tp1296
Rp1297
(g171
I1
(tg175
I00
S'\xd49W\x9c\x10\xbf`?'
p1298
tp1299
bag3
(g4
(I0
tp1300
g6
tp1301
Rp1302
(g184
I1
(tg188
I00
S'm\xdd\x87e\xd9\xbb^?'
p1303
tp1304
bag3
(g4
(I0
tp1305
g6
tp1306
Rp1307
(g197
I1
(tg201
I00
S'\xfd\x8c\xac\x14sHJ?'
p1308
tp1309
bag3
(g4
(I0
tp1310
g6
tp1311
Rp1312
(g210
I1
(tg214
I00
S'\xbf\xda\x95\x03\\\x05\x9c?'
p1313
tp1314
bag3
(g4
(I0
tp1315
g6
tp1316
Rp1317
(g223
I1
(tg227
I00
S'\xd4m\xdek\xd7\xe69?'
p1318
tp1319
bag3
(g4
(I0
tp1320
g6
tp1321
Rp1322
(g236
I1
(tg240
I00
S')\x87\xa6=\xccC0?'
p1323
tp1324
bag3
(g4
(I0
tp1325
g6
tp1326
Rp1327
(g249
I1
(tg253
I00
S'\xb7\xe8\x1d\x15\x83\xed4?'
p1328
tp1329
bag3
(g4
(I0
tp1330
g6
tp1331
Rp1332
(g262
I1
(tg266
I00
S'\xd3\xf6\xb8\xd2\xc8\xbe4?'
p1333
tp1334
bag3
(g4
(I0
tp1335
g6
tp1336
Rp1337
(g275
I1
(tg279
I00
S'\xfaj\x847\xa0\xea\x9b?'
p1338
tp1339
bag3
(g4
(I0
tp1340
g6
tp1341
Rp1342
(g288
I1
(tg292
I00
S'\xa3upt\xed\xe17?'
p1343
tp1344
bag3
(g4
(I0
tp1345
g6
tp1346
Rp1347
(g301
I1
(tg305
I00
S'\xb7\xfa\xb9\xf5\xdc]\x83?'
p1348
tp1349
bag3
(g4
(I0
tp1350
g6
tp1351
Rp1352
(g314
I1
(tg318
I00
S'\xa2\xa1\x07\x88\x0f\xb29?'
p1353
tp1354
bag3
(g4
(I0
tp1355
g6
tp1356
Rp1357
(g327
I1
(tg331
I00
S'\x84e\xc9\xdf\x9faa?'
p1358
tp1359
bag3
(g4
(I0
tp1360
g6
tp1361
Rp1362
(g340
I1
(tg344
I00
S'\x90I\xa6+ZH;?'
p1363
tp1364
bag3
(g4
(I0
tp1365
g6
tp1366
Rp1367
(g353
I1
(tg357
I00
S'\xf7T\x96\x7fo{:?'
p1368
tp1369
bag3
(g4
(I0
tp1370
g6
tp1371
Rp1372
(g366
I1
(tg370
I00
S'\xe2Y\xd8\x19\\\x0c4?'
p1373
tp1374
bag3
(g4
(I0
tp1375
g6
tp1376
Rp1377
(g379
I1
(tg383
I00
S'\x17\xbb`!N}}?'
p1378
tp1379
bag3
(g4
(I0
tp1380
g6
tp1381
Rp1382
(g392
I1
(tg396
I00
S'1{n\xf3\x19\nu?'
p1383
tp1384
bag3
(g4
(I0
tp1385
g6
tp1386
Rp1387
(g405
I1
(tg409
I00
S'\xfd\x0f\xbd\xf4Lu\x86?'
p1388
tp1389
bag3
(g4
(I0
tp1390
g6
tp1391
Rp1392
(g418
I1
(tg422
I00
S'D\xb1\xd6\x00\x15Ng?'
p1393
tp1394
bag3
(g4
(I0
tp1395
g6
tp1396
Rp1397
(g431
I1
(tg435
I00
S'\x9d\xd4\xe5\x14\x1b\xdb\x93?'
p1398
tp1399
bag3
(g4
(I0
tp1400
g6
tp1401
Rp1402
(g444
I1
(tg448
I00
S'\x95\x01J4i`M?'
p1403
tp1404
bag3
(g4
(I0
tp1405
g6
tp1406
Rp1407
(g457
I1
(tg461
I00
S'm2\x0e\xfd\x08\xd76?'
p1408
tp1409
bag3
(g4
(I0
tp1410
g6
tp1411
Rp1412
(g470
I1
(tg474
I00
S'\\~\xd4\x92\x9c\xd0\x9c?'
p1413
tp1414
bag3
(g4
(I0
tp1415
g6
tp1416
Rp1417
(g483
I1
(tg487
I00
S'\xcd\xb52T^\x16E?'
p1418
tp1419
bag3
(g4
(I0
tp1420
g6
tp1421
Rp1422
(g496
I1
(tg500
I00
S'8 \xfd\r\xbc\xf9A?'
p1423
tp1424
bag3
(g4
(I0
tp1425
g6
tp1426
Rp1427
(g509
I1
(tg513
I00
S'\x19\x86\xebT\xf7\xbfM?'
p1428
tp1429
bag3
(g4
(I0
tp1430
g6
tp1431
Rp1432
(g522
I1
(tg526
I00
S'\xaaB\xc3\xb9\xa8=\x86?'
p1433
tp1434
bag3
(g4
(I0
tp1435
g6
tp1436
Rp1437
(g535
I1
(tg539
I00
S'\x95(\xdc\xd1\\\x85G?'
p1438
tp1439
bag3
(g4
(I0
tp1440
g6
tp1441
Rp1442
(g548
I1
(tg552
I00
S'\xb5\x0c\x92\x19\xc6cr?'
p1443
tp1444
bag3
(g4
(I0
tp1445
g6
tp1446
Rp1447
(g561
I1
(tg565
I00
S'u\xa5\xf1\xd5EcT?'
p1448
tp1449
bag3
(g4
(I0
tp1450
g6
tp1451
Rp1452
(g574
I1
(tg578
I00
S'\xe7k\xf22\xde\xff@?'
p1453
tp1454
bag3
(g4
(I0
tp1455
g6
tp1456
Rp1457
(g587
I1
(tg591
I00
S'\x98fW\x91\xd0#t?'
p1458
tp1459
bag3
(g4
(I0
tp1460
g6
tp1461
Rp1462
(g600
I1
(tg604
I00
S':\x0f!\x99K\xd5g?'
p1463
tp1464
bag3
(g4
(I0
tp1465
g6
tp1466
Rp1467
(g613
I1
(tg617
I00
S'o\xf0C\xf5\x12&q?'
p1468
tp1469
bag3
(g4
(I0
tp1470
g6
tp1471
Rp1472
(g626
I1
(tg630
I00
S'\x0eQ\xdeG\x1e\xb5\x97?'
p1473
tp1474
bag3
(g4
(I0
tp1475
g6
tp1476
Rp1477
(g639
I1
(tg643
I00
S'T`\xd3\x88\xbc\x1eF?'
p1478
tp1479
bag3
(g4
(I0
tp1480
g6
tp1481
Rp1482
(g652
I1
(tg656
I00
S'J\xdft\xf1Y\x82\x90?'
p1483
tp1484
bag3
(g4
(I0
tp1485
g6
tp1486
Rp1487
(g665
I1
(tg669
I00
S'L}\xa1\xa6kK;?'
p1488
tp1489
bag3
(g4
(I0
tp1490
g6
tp1491
Rp1492
(g678
I1
(tg682
I00
S'\xea\xd4e$\x9e\x079?'
p1493
tp1494
bag3
(g4
(I0
tp1495
g6
tp1496
Rp1497
(g691
I1
(tg695
I00
S'-C\x1c\xeb\xe26\x1a?'
p1498
tp1499
bag3
(g4
(I0
tp1500
g6
tp1501
Rp1502
(g704
I1
(tg708
I00
S'\xb8\x91[\x8a\xebqB?'
p1503
tp1504
bag3
(g4
(I0
tp1505
g6
tp1506
Rp1507
(g717
I1
(tg721
I00
S'ki\xa9f\x0b;G?'
p1508
tp1509
bag3
(g4
(I0
tp1510
g6
tp1511
Rp1512
(g730
I1
(tg734
I00
S'mA\x87\xa7\n\x8br?'
p1513
tp1514
bag3
(g4
(I0
tp1515
g6
tp1516
Rp1517
(g743
I1
(tg747
I00
S'\xddeJ\xac\xa9\x01P?'
p1518
tp1519
bag3
(g4
(I0
tp1520
g6
tp1521
Rp1522
(g756
I1
(tg760
I00
S'{\xdc?\xc0\x82V0?'
p1523
tp1524
bag3
(g4
(I0
tp1525
g6
tp1526
Rp1527
(g769
I1
(tg773
I00
S'\x9d\t/\x11\x90\xeeP?'
p1528
tp1529
bag3
(g4
(I0
tp1530
g6
tp1531
Rp1532
(g782
I1
(tg786
I00
S'\x86\xd5\x02^\x01}\x91?'
p1533
tp1534
bag3
(g4
(I0
tp1535
g6
tp1536
Rp1537
(g795
I1
(tg799
I00
S'&a\xdd`\xcf\x0bP?'
p1538
tp1539
bag3
(g4
(I0
tp1540
g6
tp1541
Rp1542
(g808
I1
(tg812
I00
S'2}D\r\xdd\x9c\x1a?'
p1543
tp1544
bag3
(g4
(I0
tp1545
g6
tp1546
Rp1547
(g821
I1
(tg825
I00
S'\xbb\xe9 %\x15\x1a\x91?'
p1548
tp1549
bag3
(g4
(I0
tp1550
g6
tp1551
Rp1552
(g834
I1
(tg838
I00
S'\xa3\xa6\xc4\xc4\x82\xfcp?'
p1553
tp1554
bag3
(g4
(I0
tp1555
g6
tp1556
Rp1557
(g847
I1
(tg851
I00
S'\x0eg\xb0\xa5\x06\x8f3?'
p1558
tp1559
bag3
(g4
(I0
tp1560
g6
tp1561
Rp1562
(g860
I1
(tg864
I00
S'\xa6>E\xe3e\x01\x97?'
p1563
tp1564
bag3
(g4
(I0
tp1565
g6
tp1566
Rp1567
(g873
I1
(tg877
I00
S'}\xb7\x8b\x9c\xafKl?'
p1568
tp1569
bag3
(g4
(I0
tp1570
g6
tp1571
Rp1572
(g886
I1
(tg890
I00
S'\x88\x99,\x9e\xde\xbb3?'
p1573
tp1574
bag3
(g4
(I0
tp1575
g6
tp1576
Rp1577
(g899
I1
(tg903
I00
S'}\xaaO`\\\xb2x?'
p1578
tp1579
bag3
(g4
(I0
tp1580
g6
tp1581
Rp1582
(g912
I1
(tg916
I00
S'Y\x99\xaa@"\x00\x95?'
p1583
tp1584
bag3
(g4
(I0
tp1585
g6
tp1586
Rp1587
(g925
I1
(tg929
I00
S'\xa18A\xeb\xcc\xa7\x9b?'
p1588
tp1589
bag3
(g4
(I0
tp1590
g6
tp1591
Rp1592
(g938
I1
(tg942
I00
S'\xb0Y\xb7N5\xc6\x95?'
p1593
tp1594
bag3
(g4
(I0
tp1595
g6
tp1596
Rp1597
(g951
I1
(tg955
I00
S'*2\xbe\xbdI\x82\x9a?'
p1598
tp1599
bag3
(g4
(I0
tp1600
g6
tp1601
Rp1602
(g964
I1
(tg968
I00
S'\xcc\xf2;\xe5\xb6$\x99?'
p1603
tp1604
bag3
(g4
(I0
tp1605
g6
tp1606
Rp1607
(g977
I1
(tg981
I00
S'\xbea\xad\x14!\xcaY?'
p1608
tp1609
bag3
(g4
(I0
tp1610
g6
tp1611
Rp1612
(g990
I1
(tg994
I00
S'L\x8f\xc4H\xa2u\x1b?'
p1613
tp1614
bag3
(g4
(I0
tp1615
g6
tp1616
Rp1617
(g1003
I1
(tg1007
I00
S'e\x14\xd9\x90\xf0\x11N?'
p1618
tp1619
bag3
(g4
(I0
tp1620
g6
tp1621
Rp1622
(g1016
I1
(tg1020
I00
S'\xa46\xd0\xb1\x1e\xee\x1a?'
p1623
tp1624
bag3
(g4
(I0
tp1625
g6
tp1626
Rp1627
(g1029
I1
(tg1033
I00
S'T\x8b\xa0\x8a\xbd\xe9&?'
p1628
tp1629
bag3
(g4
(I0
tp1630
g6
tp1631
Rp1632
(g1042
I1
(tg1046
I00
S'\x00\x00\x00\x00\x00\x00\xf8\x7f'
p1633
tp1634
bag3
(g4
(I0
tp1635
g6
tp1636
Rp1637
(g1055
I1
(tg1059
I00
S'\xa4u\xea\x01\x0e\xc54?'
p1638
tp1639
bag3
(g4
(I0
tp1640
g6
tp1641
Rp1642
(g1068
I1
(tg1072
I00
S'\xbe2I\x91\xcc\x8d\x1b?'
p1643
tp1644
bag3
(g4
(I0
tp1645
g6
tp1646
Rp1647
(g1081
I1
(tg1085
I00
S'\x91\x9bk\x80 \xdf\x91?'
p1648
tp1649
bag3
(g4
(I0
tp1650
g6
tp1651
Rp1652
(g1094
I1
(tg1098
I00
S'\x91\x16\xfbvn\xcc2?'
p1653
tp1654
bag3
(g4
(I0
tp1655
g6
tp1656
Rp1657
(g1107
I1
(tg1111
I00
S'\xde\x91\xa0\x99-\xf7t?'
p1658
tp1659
bag3
(g4
(I0
tp1660
g6
tp1661
Rp1662
(g1120
I1
(tg1124
I00
S'\x83L\xa1S\xe7\xd7\x8a?'
p1663
tp1664
bag3
(g4
(I0
tp1665
g6
tp1666
Rp1667
(g1133
I1
(tg1137
I00
S'\x16\xd1\xffe\xf0\xbb3?'
p1668
tp1669
bag3
(g4
(I0
tp1670
g6
tp1671
Rp1672
(g1146
I1
(tg1150
I00
S'.C\x1c\xeb\xe26\x1a?'
p1673
tp1674
bag3
(g4
(I0
tp1675
g6
tp1676
Rp1677
(g1159
I1
(tg1163
I00
S'\xdd6\n~\xed\x00P?'
p1678
tp1679
bag3
(g4
(I0
tp1680
g6
tp1681
Rp1682
(g1172
I1
(tg1176
I00
S'\xb9\xf3dh \xcaL?'
p1683
tp1684
bag3
(g4
(I0
tp1685
g6
tp1686
Rp1687
(g1185
I1
(tg1189
I00
S's\xa6z\xa5hHX?'
p1688
tp1689
bag3
(g4
(I0
tp1690
g6
tp1691
Rp1692
(g1198
I1
(tg1202
I00
S'\x12\xc9\x18\xd0\xd1\x7fW?'
p1693
tp1694
bag3
(g4
(I0
tp1695
g6
tp1696
Rp1697
(g1211
I1
(tg1215
I00
S'@\x06L\xd1\xadFY?'
p1698
tp1699
bag3
(g4
(I0
tp1700
g6
tp1701
Rp1702
(g1224
I1
(tg1228
I00
S'\x9dg\x82vt\xa3\x88?'
p1703
tp1704
basS'zstar_toto'
p1705
(lp1706
g3
(g4
(I0
tp1707
g6
tp1708
Rp1709
(g13
I1
(tg19
I00
S'\xbb\xf5(\x06\xac\xf2N?'
p1710
tp1711
bag3
(g4
(I0
tp1712
g6
tp1713
Rp1714
(g28
I1
(tg32
I00
S'\x8d\x02P8n\xa1a?'
p1715
tp1716
bag3
(g4
(I0
tp1717
g6
tp1718
Rp1719
(g41
I1
(tg45
I00
S"\xd7U\xf8\xc7T\x93'?"
p1720
tp1721
bag3
(g4
(I0
tp1722
g6
tp1723
Rp1724
(g54
I1
(tg58
I00
S'S\x07##\x94_\x98?'
p1725
tp1726
bag3
(g4
(I0
tp1727
g6
tp1728
Rp1729
(g67
I1
(tg71
I00
S'\xa7\xca\x8cQ\xa0\xbb1?'
p1730
tp1731
bag3
(g4
(I0
tp1732
g6
tp1733
Rp1734
(g80
I1
(tg84
I00
S'\xd6\xfe\x87\xcf([(?'
p1735
tp1736
bag3
(g4
(I0
tp1737
g6
tp1738
Rp1739
(g93
I1
(tg97
I00
S'\x0f>8tq\x7fr?'
p1740
tp1741
bag3
(g4
(I0
tp1742
g6
tp1743
Rp1744
(g106
I1
(tg110
I00
S'&\xf2\x1b\xfd\xde\x014?'
p1745
tp1746
bag3
(g4
(I0
tp1747
g6
tp1748
Rp1749
(g119
I1
(tg123
I00
S'\xcd\x89LQAP6?'
p1750
tp1751
bag3
(g4
(I0
tp1752
g6
tp1753
Rp1754
(g132
I1
(tg136
I00
S'\xb4W\xe0\xf2/\xf70?'
p1755
tp1756
bag3
(g4
(I0
tp1757
g6
tp1758
Rp1759
(g145
I1
(tg149
I00
S'\xae-\xcds\xf0\x9bV?'
p1760
tp1761
bag3
(g4
(I0
tp1762
g6
tp1763
Rp1764
(g158
I1
(tg162
I00
S'\x17\xc4\xfc\x1a^\xa92?'
p1765
tp1766
bag3
(g4
(I0
tp1767
g6
tp1768
Rp1769
(g171
I1
(tg175
I00
S'\x0c-\xeb\x85wcX?'
p1770
tp1771
bag3
(g4
(I0
tp1772
g6
tp1773
Rp1774
(g184
I1
(tg188
I00
S'XP\\Xi\xeaW?'
p1775
tp1776
bag3
(g4
(I0
tp1777
g6
tp1778
Rp1779
(g197
I1
(tg201
I00
S'\xd8\x89\xf5\x19\x8dPD?'
p1780
tp1781
bag3
(g4
(I0
tp1782
g6
tp1783
Rp1784
(g210
I1
(tg214
I00
S'B|\xbd\xb2E\xcd\x94?'
p1785
tp1786
bag3
(g4
(I0
tp1787
g6
tp1788
Rp1789
(g223
I1
(tg227
I00
S'Y\xc9\xd5\x0e\x96\x184?'
p1790
tp1791
bag3
(g4
(I0
tp1792
g6
tp1793
Rp1794
(g236
I1
(tg240
I00
S'\xd2]p\xbb\xe2G.?'
p1795
tp1796
bag3
(g4
(I0
tp1797
g6
tp1798
Rp1799
(g249
I1
(tg253
I00
S'\xffo#\xab\xac%2?'
p1800
tp1801
bag3
(g4
(I0
tp1802
g6
tp1803
Rp1804
(g262
I1
(tg266
I00
S'\xa5\x06\xc5\x0c\xc8\xf01?'
p1805
tp1806
bag3
(g4
(I0
tp1807
g6
tp1808
Rp1809
(g275
I1
(tg279
I00
S'\xa7\xc2\xd8u\x95\x93\x99?'
p1810
tp1811
bag3
(g4
(I0
tp1812
g6
tp1813
Rp1814
(g288
I1
(tg292
I00
S'\xe4<\xac\xcf\xe2\x1b3?'
p1815
tp1816
bag3
(g4
(I0
tp1817
g6
tp1818
Rp1819
(g301
I1
(tg305
I00
S'\x07\xfd\x89\x17>\xaew?'
p1820
tp1821
bag3
(g4
(I0
tp1822
g6
tp1823
Rp1824
(g314
I1
(tg318
I00
S'#O\x06\xdb]\xde1?'
p1825
tp1826
bag3
(g4
(I0
tp1827
g6
tp1828
Rp1829
(g327
I1
(tg331
I00
S'\xd5\xd1\xf9\xf5\x0eHY?'
p1830
tp1831
bag3
(g4
(I0
tp1832
g6
tp1833
Rp1834
(g340
I1
(tg344
I00
S'k\xce\xdf\xd9%\xe64?'
p1835
tp1836
bag3
(g4
(I0
tp1837
g6
tp1838
Rp1839
(g353
I1
(tg357
I00
S']\x06\x80\xd3$@5?'
p1840
tp1841
bag3
(g4
(I0
tp1842
g6
tp1843
Rp1844
(g366
I1
(tg370
I00
S'\xca\x88\xcf\xe6\x87e0?'
p1845
tp1846
bag3
(g4
(I0
tp1847
g6
tp1848
Rp1849
(g379
I1
(tg383
I00
S'\xb9}\xfb\xafd\xf9q?'
p1850
tp1851
bag3
(g4
(I0
tp1852
g6
tp1853
Rp1854
(g392
I1
(tg396
I00
S'\xb8\xdd\x1f\x17\xa4\xa7o?'
p1855
tp1856
bag3
(g4
(I0
tp1857
g6
tp1858
Rp1859
(g405
I1
(tg409
I00
S'\x1c\xf3\xbd\x1f\xb5\x1a~?'
p1860
tp1861
bag3
(g4
(I0
tp1862
g6
tp1863
Rp1864
(g418
I1
(tg422
I00
S'\xd4\xbb*\x04\xd1\xcf`?'
p1865
tp1866
bag3
(g4
(I0
tp1867
g6
tp1868
Rp1869
(g431
I1
(tg435
I00
S'"\x9b6XC\xe4\x8e?'
p1870
tp1871
bag3
(g4
(I0
tp1872
g6
tp1873
Rp1874
(g444
I1
(tg448
I00
S'\x94\xd2\x84%\xd6\xe2B?'
p1875
tp1876
bag3
(g4
(I0
tp1877
g6
tp1878
Rp1879
(g457
I1
(tg461
I00
S'\xdc(YO9|3?'
p1880
tp1881
bag3
(g4
(I0
tp1882
g6
tp1883
Rp1884
(g470
I1
(tg474
I00
S'\xf0\xb9\\\x84\x18\x8b\x97?'
p1885
tp1886
bag3
(g4
(I0
tp1887
g6
tp1888
Rp1889
(g483
I1
(tg487
I00
S'mH?\xa9\x88k??'
p1890
tp1891
bag3
(g4
(I0
tp1892
g6
tp1893
Rp1894
(g496
I1
(tg500
I00
S'\x01(\xd5,\xd5\xe3;?'
p1895
tp1896
bag3
(g4
(I0
tp1897
g6
tp1898
Rp1899
(g509
I1
(tg513
I00
S'(\xa5@H9\xcbB?'
p1900
tp1901
bag3
(g4
(I0
tp1902
g6
tp1903
Rp1904
(g522
I1
(tg526
I00
S'\x01\xfc?%\xcc\x95|?'
p1905
tp1906
bag3
(g4
(I0
tp1907
g6
tp1908
Rp1909
(g535
I1
(tg539
I00
S'\xc8\xa5=\xb4\xef?>?'
p1910
tp1911
bag3
(g4
(I0
tp1912
g6
tp1913
Rp1914
(g548
I1
(tg552
I00
S'xEFX\xeb!j?'
p1915
tp1916
bag3
(g4
(I0
tp1917
g6
tp1918
Rp1919
(g561
I1
(tg565
I00
S'\xd4\x94b\xb1\xdf\xb5N?'
p1920
tp1921
bag3
(g4
(I0
tp1922
g6
tp1923
Rp1924
(g574
I1
(tg578
I00
S'O\x81`\xc9\x98u:?'
p1925
tp1926
bag3
(g4
(I0
tp1927
g6
tp1928
Rp1929
(g587
I1
(tg591
I00
S'7\x01{\xff\x9b\xc8p?'
p1930
tp1931
bag3
(g4
(I0
tp1932
g6
tp1933
Rp1934
(g600
I1
(tg604
I00
S'\xb8Q}RJL`?'
p1935
tp1936
bag3
(g4
(I0
tp1937
g6
tp1938
Rp1939
(g613
I1
(tg617
I00
S'a1\xb0\xb4\xed\x9cf?'
p1940
tp1941
bag3
(g4
(I0
tp1942
g6
tp1943
Rp1944
(g626
I1
(tg630
I00
S'F\xf9\xcb\x12\x81\xd2\x94?'
p1945
tp1946
bag3
(g4
(I0
tp1947
g6
tp1948
Rp1949
(g639
I1
(tg643
I00
S'>\xf8\x14\xa1\x1f\xf4@?'
p1950
tp1951
bag3
(g4
(I0
tp1952
g6
tp1953
Rp1954
(g652
I1
(tg656
I00
S'`?3i\xe0B\x84?'
p1955
tp1956
bag3
(g4
(I0
tp1957
g6
tp1958
Rp1959
(g665
I1
(tg669
I00
S'jv\xaaF\x96\xc76?'
p1960
tp1961
bag3
(g4
(I0
tp1962
g6
tp1963
Rp1964
(g678
I1
(tg682
I00
S'h \xf9}\x86\xa94?'
p1965
tp1966
bag3
(g4
(I0
tp1967
g6
tp1968
Rp1969
(g691
I1
(tg695
I00
S'\x0e\xe4\x845\xb3\xbe\x1e?'
p1970
tp1971
bag3
(g4
(I0
tp1972
g6
tp1973
Rp1974
(g704
I1
(tg708
I00
S'\xd9\xbc\xbd\x9f%\x86<?'
p1975
tp1976
bag3
(g4
(I0
tp1977
g6
tp1978
Rp1979
(g717
I1
(tg721
I00
S'\xacNq\x9fc\x16C?'
p1980
tp1981
bag3
(g4
(I0
tp1982
g6
tp1983
Rp1984
(g730
I1
(tg734
I00
S'<vd\x84\x18\x1fl?'
p1985
tp1986
bag3
(g4
(I0
tp1987
g6
tp1988
Rp1989
(g743
I1
(tg747
I00
S'\xcb\xee\x89H\x9e\xafC?'
p1990
tp1991
bag3
(g4
(I0
tp1992
g6
tp1993
Rp1994
(g756
I1
(tg760
I00
S'@Pl\xb0b\xff)?'
p1995
tp1996
bag3
(g4
(I0
tp1997
g6
tp1998
Rp1999
(g769
I1
(tg773
I00
S'p\xcc\x82\x1c\x85\x82F?'
p2000
tp2001
bag3
(g4
(I0
tp2002
g6
tp2003
Rp2004
(g782
I1
(tg786
I00
S'x\xd8\xe1\xf0{\x91\x88?'
p2005
tp2006
bag3
(g4
(I0
tp2007
g6
tp2008
Rp2009
(g795
I1
(tg799
I00
S'\x9c\xc9\xf0Q\xb1\xb0D?'
p2010
tp2011
bag3
(g4
(I0
tp2012
g6
tp2013
Rp2014
(g808
I1
(tg812
I00
S'\xa2=\xa8\xd5/\xb2\x1a?'
p2015
tp2016
bag3
(g4
(I0
tp2017
g6
tp2018
Rp2019
(g821
I1
(tg825
I00
S'\x98\x84\x1dh\xf9\x98\x86?'
p2020
tp2021
bag3
(g4
(I0
tp2022
g6
tp2023
Rp2024
(g834
I1
(tg838
I00
S'\x17tk\x04\xc9\xb3k?'
p2025
tp2026
bag3
(g4
(I0
tp2027
g6
tp2028
Rp2029
(g847
I1
(tg851
I00
S'\x10G\x0bU\xf2e1?'
p2030
tp2031
bag3
(g4
(I0
tp2032
g6
tp2033
Rp2034
(g860
I1
(tg864
I00
S'u\xa0\xcclE\xec\x90?'
p2035
tp2036
bag3
(g4
(I0
tp2037
g6
tp2038
Rp2039
(g873
I1
(tg877
I00
S'\xfbX"\xc0\x9e\xe0d?'
p2040
tp2041
bag3
(g4
(I0
tp2042
g6
tp2043
Rp2044
(g886
I1
(tg890
I00
S'@\xc1\xe6\xd4B\xf0,?'
p2045
tp2046
bag3
(g4
(I0
tp2047
g6
tp2048
Rp2049
(g899
I1
(tg903
I00
S'\xf69A\xee\xc23p?'
p2050
tp2051
bag3
(g4
(I0
tp2052
g6
tp2053
Rp2054
(g912
I1
(tg916
I00
S'\xd9j\xf3\xe7\xef\xf4\x8f?'
p2055
tp2056
bag3
(g4
(I0
tp2057
g6
tp2058
Rp2059
(g925
I1
(tg929
I00
S'\xcc\x0e$\xdb"#\x94?'
p2060
tp2061
bag3
(g4
(I0
tp2062
g6
tp2063
Rp2064
(g938
I1
(tg942
I00
S'\xdd\xb7\xc3y=?\x8c?'
p2065
tp2066
bag3
(g4
(I0
tp2067
g6
tp2068
Rp2069
(g951
I1
(tg955
I00
S'\xf0q\x06\xe7Y\x0f\x98?'
p2070
tp2071
bag3
(g4
(I0
tp2072
g6
tp2073
Rp2074
(g964
I1
(tg968
I00
S'\r\xee]\x86\xba\xc4\x94?'
p2075
tp2076
bag3
(g4
(I0
tp2077
g6
tp2078
Rp2079
(g977
I1
(tg981
I00
S'\xbe x\xd7\x00;S?'
p2080
tp2081
bag3
(g4
(I0
tp2082
g6
tp2083
Rp2084
(g990
I1
(tg994
I00
S'Qm!%\x9f\xcc\x1c?'
p2085
tp2086
bag3
(g4
(I0
tp2087
g6
tp2088
Rp2089
(g1003
I1
(tg1007
I00
S'B\x1c\x06\xf6\xfe\x19G?'
p2090
tp2091
bag3
(g4
(I0
tp2092
g6
tp2093
Rp2094
(g1016
I1
(tg1020
I00
S'O\x0cj\xe1d\x16\x1b?'
p2095
tp2096
bag3
(g4
(I0
tp2097
g6
tp2098
Rp2099
(g1029
I1
(tg1033
I00
S'\x7f\x14\xf6\xf9\xe0\xe3!?'
p2100
tp2101
bag3
(g4
(I0
tp2102
g6
tp2103
Rp2104
(g1042
I1
(tg1046
I00
S'\xb1\xe4U\xce#\xc2$?'
p2105
tp2106
bag3
(g4
(I0
tp2107
g6
tp2108
Rp2109
(g1055
I1
(tg1059
I00
S'[\xaeK\x84\xe7\x81.?'
p2110
tp2111
bag3
(g4
(I0
tp2112
g6
tp2113
Rp2114
(g1068
I1
(tg1072
I00
S'(\x1a\x01\xea\xe0\x12\x1c?'
p2115
tp2116
bag3
(g4
(I0
tp2117
g6
tp2118
Rp2119
(g1081
I1
(tg1085
I00
S'\xe9\xad\xbds\xc6\x04\x8c?'
p2120
tp2121
bag3
(g4
(I0
tp2122
g6
tp2123
Rp2124
(g1094
I1
(tg1098
I00
S"\x97\x1e'$S (?"
p2125
tp2126
bag3
(g4
(I0
tp2127
g6
tp2128
Rp2129
(g1107
I1
(tg1111
I00
S'fm\x9a\xde\xde2p?'
p2130
tp2131
bag3
(g4
(I0
tp2132
g6
tp2133
Rp2134
(g1120
I1
(tg1124
I00
S'\x94k\xcc\x94\xaf\x8e\x80?'
p2135
tp2136
bag3
(g4
(I0
tp2137
g6
tp2138
Rp2139
(g1133
I1
(tg1137
I00
S'(\x1e0\xf5\xa8s+?'
p2140
tp2141
bag3
(g4
(I0
tp2142
g6
tp2143
Rp2144
(g1146
I1
(tg1150
I00
S'-C\x1c\xeb\xe26\x1a?'
p2145
tp2146
bag3
(g4
(I0
tp2147
g6
tp2148
Rp2149
(g1159
I1
(tg1163
I00
S'\xfe\xc35\t,\xd9D?'
p2150
tp2151
bag3
(g4
(I0
tp2152
g6
tp2153
Rp2154
(g1172
I1
(tg1176
I00
S'\n>\x84\xc4\xc4iE?'
p2155
tp2156
bag3
(g4
(I0
tp2157
g6
tp2158
Rp2159
(g1185
I1
(tg1189
I00
S'o\x1e\xe7\x80\xe9\xaaQ?'
p2160
tp2161
bag3
(g4
(I0
tp2162
g6
tp2163
Rp2164
(g1198
I1
(tg1202
I00
S'\x9c\xe8d\x1d\r\xc9P?'
p2165
tp2166
bag3
(g4
(I0
tp2167
g6
tp2168
Rp2169
(g1211
I1
(tg1215
I00
S'\x08u\x0e\x8e@\xc2P?'
p2170
tp2171
bag3
(g4
(I0
tp2172
g6
tp2173
Rp2174
(g1224
I1
(tg1228
I00
S'\xf8\xe7\xe9-\xb8\xcf{?'
p2175
tp2176
basS'oh_gas5'
p2177
(lp2178
g3
(g4
(I0
tp2179
g6
tp2180
Rp2181
(g13
I1
(tg19
I00
S'\xff=6\x11\x18\x9c\x1e@'
p2182
tp2183
bag3
(g4
(I0
tp2184
g6
tp2185
Rp2186
(g28
I1
(tg32
I00
S'R\xd5#<\xfb\x10 @'
p2187
tp2188
bag3
(g4
(I0
tp2189
g6
tp2190
Rp2191
(g41
I1
(tg45
I00
S'\x9eJ\x85\x0f\xad\xe8\x1a@'
p2192
tp2193
bag3
(g4
(I0
tp2194
g6
tp2195
Rp2196
(g54
I1
(tg58
I00
S'\xfeGx\x9d\x7f\x0e!@'
p2197
tp2198
bag3
(g4
(I0
tp2199
g6
tp2200
Rp2201
(g67
I1
(tg71
I00
S'{\x1f\xbe\xb1\x03H\x1b@'
p2202
tp2203
bag3
(g4
(I0
tp2204
g6
tp2205
Rp2206
(g80
I1
(tg84
I00
S"'\xd4\x81\xd2*\xa6\x1a@"
p2207
tp2208
bag3
(g4
(I0
tp2209
g6
tp2210
Rp2211
(g93
I1
(tg97
I00
S'\xc2V\xbbt\xdf\xd6 @'
p2212
tp2213
bag3
(g4
(I0
tp2214
g6
tp2215
Rp2216
(g106
I1
(tg110
I00
S'\xc8q!\x01\xb6Q\x1a@'
p2217
tp2218
bag3
(g4
(I0
tp2219
g6
tp2220
Rp2221
(g119
I1
(tg123
I00
S'O\xbf\x12BRF\x1c@'
p2222
tp2223
bag3
(g4
(I0
tp2224
g6
tp2225
Rp2226
(g132
I1
(tg136
I00
S'h\xdd\x1bf\x02H\x1b@'
p2227
tp2228
bag3
(g4
(I0
tp2229
g6
tp2230
Rp2231
(g145
I1
(tg149
I00
S'\x05\xf0\xed\x95+\x1b\x1f@'
p2232
tp2233
bag3
(g4
(I0
tp2234
g6
tp2235
Rp2236
(g158
I1
(tg162
I00
S'f\x7f\xfe\xe5_#\x1c@'
p2237
tp2238
bag3
(g4
(I0
tp2239
g6
tp2240
Rp2241
(g171
I1
(tg175
I00
S'\xd9r1ss\x96\x1f@'
p2242
tp2243
bag3
(g4
(I0
tp2244
g6
tp2245
Rp2246
(g184
I1
(tg188
I00
S'\x93\xe49\xadM\x7f\x1e@'
p2247
tp2248
bag3
(g4
(I0
tp2249
g6
tp2250
Rp2251
(g197
I1
(tg201
I00
S'\x98\x9fg\xb5\xa5\x93\x1d@'
p2252
tp2253
bag3
(g4
(I0
tp2254
g6
tp2255
Rp2256
(g210
I1
(tg214
I00
S'\xa2\xfe\xde#\xd1\x82!@'
p2257
tp2258
bag3
(g4
(I0
tp2259
g6
tp2260
Rp2261
(g223
I1
(tg227
I00
S'Z \x1a\r>`\x1c@'
p2262
tp2263
bag3
(g4
(I0
tp2264
g6
tp2265
Rp2266
(g236
I1
(tg240
I00
S'\xaeS\xdd\xa7\xca\xee\x1a@'
p2267
tp2268
bag3
(g4
(I0
tp2269
g6
tp2270
Rp2271
(g249
I1
(tg253
I00
S'\x88X\x07!\xaa3\x1b@'
p2272
tp2273
bag3
(g4
(I0
tp2274
g6
tp2275
Rp2276
(g262
I1
(tg266
I00
S'R+\xad>\x85E\x1b@'
p2277
tp2278
bag3
(g4
(I0
tp2279
g6
tp2280
Rp2281
(g275
I1
(tg279
I00
S'c\xe9\x90\xf2\x8d\x1e!@'
p2282
tp2283
bag3
(g4
(I0
tp2284
g6
tp2285
Rp2286
(g288
I1
(tg292
I00
S'\x15\x02\xc8\x93s\xdd\x1a@'
p2287
tp2288
bag3
(g4
(I0
tp2289
g6
tp2290
Rp2291
(g301
I1
(tg305
I00
S'2+L{\xc0\xe4 @'
p2292
tp2293
bag3
(g4
(I0
tp2294
g6
tp2295
Rp2296
(g314
I1
(tg318
I00
S'X7}I\xdai\x1c@'
p2297
tp2298
bag3
(g4
(I0
tp2299
g6
tp2300
Rp2301
(g327
I1
(tg331
I00
S'W=\xc1\x001:\x1f@'
p2302
tp2303
bag3
(g4
(I0
tp2304
g6
tp2305
Rp2306
(g340
I1
(tg344
I00
S'\xfb\x96\x8c-\xe5\x01\x1c@'
p2307
tp2308
bag3
(g4
(I0
tp2309
g6
tp2310
Rp2311
(g353
I1
(tg357
I00
S'\xbeL\xdd\xbf\x16\x07\x1c@'
p2312
tp2313
bag3
(g4
(I0
tp2314
g6
tp2315
Rp2316
(g366
I1
(tg370
I00
S'\xfb\xa8\xa6\xcc\x00\x90\x1b@'
p2317
tp2318
bag3
(g4
(I0
tp2319
g6
tp2320
Rp2321
(g379
I1
(tg383
I00
S'8-\xf8y\xa4\xb9 @'
p2322
tp2323
bag3
(g4
(I0
tp2324
g6
tp2325
Rp2326
(g392
I1
(tg396
I00
S'.\x9c-&\x94\x84 @'
p2327
tp2328
bag3
(g4
(I0
tp2329
g6
tp2330
Rp2331
(g405
I1
(tg409
I00
S'\x08\xab\xe3n>Z!@'
p2332
tp2333
bag3
(g4
(I0
tp2334
g6
tp2335
Rp2336
(g418
I1
(tg422
I00
S'pTZ\xc82\x99\x1f@'
p2337
tp2338
bag3
(g4
(I0
tp2339
g6
tp2340
Rp2341
(g431
I1
(tg435
I00
S'q\xde\x05\x1e\xe8Q!@'
p2342
tp2343
bag3
(g4
(I0
tp2344
g6
tp2345
Rp2346
(g444
I1
(tg448
I00
S't\x93-\xebA\xbd\x1d@'
p2347
tp2348
bag3
(g4
(I0
tp2349
g6
tp2350
Rp2351
(g457
I1
(tg461
I00
S'\x8d\xf0\x16\x9b~z\x1c@'
p2352
tp2353
bag3
(g4
(I0
tp2354
g6
tp2355
Rp2356
(g470
I1
(tg474
I00
S'\xef-W\xa4\xd8\xeb @'
p2357
tp2358
bag3
(g4
(I0
tp2359
g6
tp2360
Rp2361
(g483
I1
(tg487
I00
S'\xf6\xa9\xb3IW\xe1\x1c@'
p2362
tp2363
bag3
(g4
(I0
tp2364
g6
tp2365
Rp2366
(g496
I1
(tg500
I00
S'W\xe9\xe0\xd8>\xe1\x17@'
p2367
tp2368
bag3
(g4
(I0
tp2369
g6
tp2370
Rp2371
(g509
I1
(tg513
I00
S'Y\xddO/\x9e\xb4\x1d@'
p2372
tp2373
bag3
(g4
(I0
tp2374
g6
tp2375
Rp2376
(g522
I1
(tg526
I00
S'\xbciS\xd1\xf6\x04!@'
p2377
tp2378
bag3
(g4
(I0
tp2379
g6
tp2380
Rp2381
(g535
I1
(tg539
I00
S'f\x05\xe9P\x9e\xb5\x1c@'
p2382
tp2383
bag3
(g4
(I0
tp2384
g6
tp2385
Rp2386
(g548
I1
(tg552
I00
S'ivuuk\x1d @'
p2387
tp2388
bag3
(g4
(I0
tp2389
g6
tp2390
Rp2391
(g561
I1
(tg565
I00
S'(\x05\x80:m#\x1e@'
p2392
tp2393
bag3
(g4
(I0
tp2394
g6
tp2395
Rp2396
(g574
I1
(tg578
I00
S'}\\\xe26~O\x1c@'
p2397
tp2398
bag3
(g4
(I0
tp2399
g6
tp2400
Rp2401
(g587
I1
(tg591
I00
S'\xc3nA\xf0\xcb8 @'
p2402
tp2403
bag3
(g4
(I0
tp2404
g6
tp2405
Rp2406
(g600
I1
(tg604
I00
S'\xe1\xd2\xfa\xd8\xf2!\x1f@'
p2407
tp2408
bag3
(g4
(I0
tp2409
g6
tp2410
Rp2411
(g613
I1
(tg617
I00
S'\xffD\x1e\r\xdac\x1f@'
p2412
tp2413
bag3
(g4
(I0
tp2414
g6
tp2415
Rp2416
(g626
I1
(tg630
I00
S'P\x9d\x1e\x91\xecv!@'
p2417
tp2418
bag3
(g4
(I0
tp2419
g6
tp2420
Rp2421
(g639
I1
(tg643
I00
S'\xd2\r`\xb1\xe0j\x1d@'
p2422
tp2423
bag3
(g4
(I0
tp2424
g6
tp2425
Rp2426
(g652
I1
(tg656
I00
S'z\x17s$\xa4\xd5 @'
p2427
tp2428
bag3
(g4
(I0
tp2429
g6
tp2430
Rp2431
(g665
I1
(tg669
I00
S'1!\xcf 2M\x1c@'
p2432
tp2433
bag3
(g4
(I0
tp2434
g6
tp2435
Rp2436
(g678
I1
(tg682
I00
S'\xe9\x1f\xa9D\x0b\xc2\x1b@'
p2437
tp2438
bag3
(g4
(I0
tp2439
g6
tp2440
Rp2441
(g691
I1
(tg695
I00
S'%$Y\x04\x0c~\x14@'
p2442
tp2443
bag3
(g4
(I0
tp2444
g6
tp2445
Rp2446
(g704
I1
(tg708
I00
S'\xa1\xf8\x14V\x93X\x1d@'
p2447
tp2448
bag3
(g4
(I0
tp2449
g6
tp2450
Rp2451
(g717
I1
(tg721
I00
S'|6U\x90\xba\xa9\x1d@'
p2452
tp2453
bag3
(g4
(I0
tp2454
g6
tp2455
Rp2456
(g730
I1
(tg734
I00
S'\x08{Np\xad\x1f @'
p2457
tp2458
bag3
(g4
(I0
tp2459
g6
tp2460
Rp2461
(g743
I1
(tg747
I00
S'\xab\x15\x92\xe3]\xd3\x1d@'
p2462
tp2463
bag3
(g4
(I0
tp2464
g6
tp2465
Rp2466
(g756
I1
(tg760
I00
S'T$\x8d\x99\x8cm\x1a@'
p2467
tp2468
bag3
(g4
(I0
tp2469
g6
tp2470
Rp2471
(g769
I1
(tg773
I00
S'\x08H\xe6\x1e\xe0\xf0\x1d@'
p2472
tp2473
bag3
(g4
(I0
tp2474
g6
tp2475
Rp2476
(g782
I1
(tg786
I00
S'T\x1f\x8b\x89\x01\x1a!@'
p2477
tp2478
bag3
(g4
(I0
tp2479
g6
tp2480
Rp2481
(g795
I1
(tg799
I00
S'\xd8\x85i\x90\x80\xc8\x1d@'
p2482
tp2483
bag3
(g4
(I0
tp2484
g6
tp2485
Rp2486
(g808
I1
(tg812
I00
S'P\x8fV\xe7\x83\xa1\x17@'
p2487
tp2488
bag3
(g4
(I0
tp2489
g6
tp2490
Rp2491
(g821
I1
(tg825
I00
S'\xd0m\xf8Hk\xf1 @'
p2492
tp2493
bag3
(g4
(I0
tp2494
g6
tp2495
Rp2496
(g834
I1
(tg838
I00
S'n\xa5fU\x9d\xbd\x1f@'
p2497
tp2498
bag3
(g4
(I0
tp2499
g6
tp2500
Rp2501
(g847
I1
(tg851
I00
S':N\x07\x1c^N\x1b@'
p2502
tp2503
bag3
(g4
(I0
tp2504
g6
tp2505
Rp2506
(g860
I1
(tg864
I00
S'}\x97\x08z\x97\xe7\x1f@'
p2507
tp2508
bag3
(g4
(I0
tp2509
g6
tp2510
Rp2511
(g873
I1
(tg877
I00
S'\x16\xa4\xf3h\xa5h\x1f@'
p2512
tp2513
bag3
(g4
(I0
tp2514
g6
tp2515
Rp2516
(g886
I1
(tg890
I00
S'\xf6\xca&\x80o\xad\x19@'
p2517
tp2518
bag3
(g4
(I0
tp2519
g6
tp2520
Rp2521
(g899
I1
(tg903
I00
S'<!nX\xcc\xbd\x1e@'
p2522
tp2523
bag3
(g4
(I0
tp2524
g6
tp2525
Rp2526
(g912
I1
(tg916
I00
S'\x85\xf2\x02\x0c\xf5&!@'
p2527
tp2528
bag3
(g4
(I0
tp2529
g6
tp2530
Rp2531
(g925
I1
(tg929
I00
S'\xaeYP\x07\xca\xc4!@'
p2532
tp2533
bag3
(g4
(I0
tp2534
g6
tp2535
Rp2536
(g938
I1
(tg942
I00
S'\x14@\xde\x9c\nm!@'
p2537
tp2538
bag3
(g4
(I0
tp2539
g6
tp2540
Rp2541
(g951
I1
(tg955
I00
S'a7e\x02M8!@'
p2542
tp2543
bag3
(g4
(I0
tp2544
g6
tp2545
Rp2546
(g964
I1
(tg968
I00
S'\x9b\xc1P6\xc9S!@'
p2547
tp2548
bag3
(g4
(I0
tp2549
g6
tp2550
Rp2551
(g977
I1
(tg981
I00
S'G\x0cA\xe5\xccc\x1e@'
p2552
tp2553
bag3
(g4
(I0
tp2554
g6
tp2555
Rp2556
(g990
I1
(tg994
I00
S'\xad\n\xf4\x08[\xff\x14@'
p2557
tp2558
bag3
(g4
(I0
tp2559
g6
tp2560
Rp2561
(g1003
I1
(tg1007
I00
S'\xeeM\xc4\x9e\xcf\x87\x1d@'
p2562
tp2563
bag3
(g4
(I0
tp2564
g6
tp2565
Rp2566
(g1016
I1
(tg1020
I00
S'\xe8\xc3\x86\xce\x96\xd6\x18@'
p2567
tp2568
bag3
(g4
(I0
tp2569
g6
tp2570
Rp2571
(g1029
I1
(tg1033
I00
S'7E\xf07D}\x1b@'
p2572
tp2573
bag3
(g4
(I0
tp2574
g6
tp2575
Rp2576
(g1042
I1
(tg1046
I00
S'=\xb76\xd2\xf7\x98\x1a@'
p2577
tp2578
bag3
(g4
(I0
tp2579
g6
tp2580
Rp2581
(g1055
I1
(tg1059
I00
S'\xdaJo\r\x02}\x1b@'
p2582
tp2583
bag3
(g4
(I0
tp2584
g6
tp2585
Rp2586
(g1068
I1
(tg1072
I00
S'\x8f\x81\xc4pc\xc7\x19@'
p2587
tp2588
bag3
(g4
(I0
tp2589
g6
tp2590
Rp2591
(g1081
I1
(tg1085
I00
S'~\xba\x12\xbfA\x0c!@'
p2592
tp2593
bag3
(g4
(I0
tp2594
g6
tp2595
Rp2596
(g1094
I1
(tg1098
I00
S'\xb6\x04\x16g\xf2\xec\x1b@'
p2597
tp2598
bag3
(g4
(I0
tp2599
g6
tp2600
Rp2601
(g1107
I1
(tg1111
I00
S'\xfc\xd4!\xee\xdaL @'
p2602
tp2603
bag3
(g4
(I0
tp2604
g6
tp2605
Rp2606
(g1120
I1
(tg1124
I00
S'}#d\x81\x8a,!@'
p2607
tp2608
bag3
(g4
(I0
tp2609
g6
tp2610
Rp2611
(g1133
I1
(tg1137
I00
S'\x06\x7f\xfa\x11!\x99\x1b@'
p2612
tp2613
bag3
(g4
(I0
tp2614
g6
tp2615
Rp2616
(g1146
I1
(tg1150
I00
S'\xbd4\xeb\xeeT8\x14@'
p2617
tp2618
bag3
(g4
(I0
tp2619
g6
tp2620
Rp2621
(g1159
I1
(tg1163
I00
S'\x10\x98\xa0\xbd\x91\x04\x1d@'
p2622
tp2623
bag3
(g4
(I0
tp2624
g6
tp2625
Rp2626
(g1172
I1
(tg1176
I00
S'\xee@\x04\xaf\xa7I\x1d@'
p2627
tp2628
bag3
(g4
(I0
tp2629
g6
tp2630
Rp2631
(g1185
I1
(tg1189
I00
S'g\xf6\x91G\xa8\xac\x1e@'
p2632
tp2633
bag3
(g4
(I0
tp2634
g6
tp2635
Rp2636
(g1198
I1
(tg1202
I00
S'\xd8\xeb\x11\xad\xc0\x96\x1e@'
p2637
tp2638
bag3
(g4
(I0
tp2639
g6
tp2640
Rp2641
(g1211
I1
(tg1215
I00
S'n\xa7\xea\xd8\x9c\xb1\x1e@'
p2642
tp2643
bag3
(g4
(I0
tp2644
g6
tp2645
Rp2646
(g1224
I1
(tg1228
I00
S'\xd8y\x9f\x19\x1e\xdc @'
p2647
tp2648
basS'oh_gas2'
p2649
(lp2650
g3
(g4
(I0
tp2651
g6
tp2652
Rp2653
(g13
I1
(tg19
I00
S'\xcb?\xdcZ&5\x1f@'
p2654
tp2655
bag3
(g4
(I0
tp2656
g6
tp2657
Rp2658
(g28
I1
(tg32
I00
S'\xc8\x86\xba\x10\xc9K @'
p2659
tp2660
bag3
(g4
(I0
tp2661
g6
tp2662
Rp2663
(g41
I1
(tg45
I00
S"\xa2\xfc\x99\xf8'\xeb\x1b@"
p2664
tp2665
bag3
(g4
(I0
tp2666
g6
tp2667
Rp2668
(g54
I1
(tg58
I00
S'\x91\xae\xdf\x1a\xa5\x9a"@'
p2669
tp2670
bag3
(g4
(I0
tp2671
g6
tp2672
Rp2673
(g67
I1
(tg71
I00
S'\xb6\x03 \xe5\xc1\xee\x1c@'
p2674
tp2675
bag3
(g4
(I0
tp2676
g6
tp2677
Rp2678
(g80
I1
(tg84
I00
S'\x11\xc2\xfaL\x04\xea\x1c@'
p2679
tp2680
bag3
(g4
(I0
tp2681
g6
tp2682
Rp2683
(g93
I1
(tg97
I00
S'w,\x91\xe4\xe1\x1d!@'
p2684
tp2685
bag3
(g4
(I0
tp2686
g6
tp2687
Rp2688
(g106
I1
(tg110
I00
S'(\x86$\xfe\x9d\xa6\x1c@'
p2689
tp2690
bag3
(g4
(I0
tp2691
g6
tp2692
Rp2693
(g119
I1
(tg123
I00
S'{\xce\xed\x92\xdey\x1d@'
p2694
tp2695
bag3
(g4
(I0
tp2696
g6
tp2697
Rp2698
(g132
I1
(tg136
I00
S'\x00\x00\x00\x00\x00\x00\xf8\xff'
p2699
tp2700
bag3
(g4
(I0
tp2701
g6
tp2702
Rp2703
(g145
I1
(tg149
I00
S'\\\r\x178\xe4\t @'
p2704
tp2705
bag3
(g4
(I0
tp2706
g6
tp2707
Rp2708
(g158
I1
(tg162
I00
S'#\xe0>\xfc\x10\x9f\x1d@'
p2709
tp2710
bag3
(g4
(I0
tp2711
g6
tp2712
Rp2713
(g171
I1
(tg175
I00
S'\x91Um\x99}\x19 @'
p2714
tp2715
bag3
(g4
(I0
tp2716
g6
tp2717
Rp2718
(g184
I1
(tg188
I00
S'/\xf7\xfe\xa2\xf3\xe9\x1f@'
p2719
tp2720
bag3
(g4
(I0
tp2721
g6
tp2722
Rp2723
(g197
I1
(tg201
I00
S'[\xe7\xfby\x04t\x1e@'
p2724
tp2725
bag3
(g4
(I0
tp2726
g6
tp2727
Rp2728
(g210
I1
(tg214
I00
S'\xe3\xf6\x19\xa9\xf3\x99"@'
p2729
tp2730
bag3
(g4
(I0
tp2731
g6
tp2732
Rp2733
(g223
I1
(tg227
I00
S'\x01\xf9\xe2\xc1\xca\xf7\x1c@'
p2734
tp2735
bag3
(g4
(I0
tp2736
g6
tp2737
Rp2738
(g236
I1
(tg240
I00
S'ir\xd9k\xc3\x02\x1c@'
p2739
tp2740
bag3
(g4
(I0
tp2741
g6
tp2742
Rp2743
(g249
I1
(tg253
I00
S'\x8b\x19\xda\x9e*}\x1c@'
p2744
tp2745
bag3
(g4
(I0
tp2746
g6
tp2747
Rp2748
(g262
I1
(tg266
I00
S'RL\x16j\x1b\xa0\x1c@'
p2749
tp2750
bag3
(g4
(I0
tp2751
g6
tp2752
Rp2753
(g275
I1
(tg279
I00
S'7\xee\xb3J8\x8c"@'
p2754
tp2755
bag3
(g4
(I0
tp2756
g6
tp2757
Rp2758
(g288
I1
(tg292
I00
S'\x85\xecM\x83r\xca\x1c@'
p2759
tp2760
bag3
(g4
(I0
tp2761
g6
tp2762
Rp2763
(g301
I1
(tg305
I00
S'\x1c\xb2\x185\xe0X!@'
p2764
tp2765
bag3
(g4
(I0
tp2766
g6
tp2767
Rp2768
(g314
I1
(tg318
I00
S'\x9b\xf3\x9a\xe9\x9bj\x1d@'
p2769
tp2770
bag3
(g4
(I0
tp2771
g6
tp2772
Rp2773
(g327
I1
(tg331
I00
S'\xf4\xbc\xb1\xa2\x15\x04 @'
p2774
tp2775
bag3
(g4
(I0
tp2776
g6
tp2777
Rp2778
(g340
I1
(tg344
I00
S'C:\xd2\xfc\xff5\x1d@'
p2779
tp2780
bag3
(g4
(I0
tp2781
g6
tp2782
Rp2783
(g353
I1
(tg357
I00
S'!BC\xbbK\x15\x1d@'
p2784
tp2785
bag3
(g4
(I0
tp2786
g6
tp2787
Rp2788
(g366
I1
(tg370
I00
S'z\x02\xfa\x17\xbe\xec\x1c@'
p2789
tp2790
bag3
(g4
(I0
tp2791
g6
tp2792
Rp2793
(g379
I1
(tg383
I00
S"-\xbf@\xc0\x9f'!@"
p2794
tp2795
bag3
(g4
(I0
tp2796
g6
tp2797
Rp2798
(g392
I1
(tg396
I00
S'\xf1px\x03\x9a\xde @'
p2799
tp2800
bag3
(g4
(I0
tp2801
g6
tp2802
Rp2803
(g405
I1
(tg409
I00
S't6\xf1\xebu\xa2!@'
p2804
tp2805
bag3
(g4
(I0
tp2806
g6
tp2807
Rp2808
(g418
I1
(tg422
I00
S'U\xc2\x91?\x9eO @'
p2809
tp2810
bag3
(g4
(I0
tp2811
g6
tp2812
Rp2813
(g431
I1
(tg435
I00
S'\xbf\xc5Upa\x07"@'
p2814
tp2815
bag3
(g4
(I0
tp2816
g6
tp2817
Rp2818
(g444
I1
(tg448
I00
S'\x99Y\xd4\x12\x19\xe6\x1e@'
p2819
tp2820
bag3
(g4
(I0
tp2821
g6
tp2822
Rp2823
(g457
I1
(tg461
I00
S'\xe5\x1a\xa1`\xb8\xfc\x1c@'
p2824
tp2825
bag3
(g4
(I0
tp2826
g6
tp2827
Rp2828
(g470
I1
(tg474
I00
S'\xbeY\xea\xc6\xcb\xbb"@'
p2829
tp2830
bag3
(g4
(I0
tp2831
g6
tp2832
Rp2833
(g483
I1
(tg487
I00
S'\xbe\x08\xca_\x83\xcd\x1d@'
p2834
tp2835
bag3
(g4
(I0
tp2836
g6
tp2837
Rp2838
(g496
I1
(tg500
I00
S'@e \x89\x8d\xec\x1d@'
p2839
tp2840
bag3
(g4
(I0
tp2841
g6
tp2842
Rp2843
(g509
I1
(tg513
I00
S'\x94\x93\x8d.\t\xc0\x1e@'
p2844
tp2845
bag3
(g4
(I0
tp2846
g6
tp2847
Rp2848
(g522
I1
(tg526
I00
S'\x12^\x0b\xff\x02\x86!@'
p2849
tp2850
bag3
(g4
(I0
tp2851
g6
tp2852
Rp2853
(g535
I1
(tg539
I00
S'!-*;\x80L\x1e@'
p2854
tp2855
bag3
(g4
(I0
tp2856
g6
tp2857
Rp2858
(g548
I1
(tg552
I00
S'j\xfeA\x81\xfb\xc1 @'
p2859
tp2860
bag3
(g4
(I0
tp2861
g6
tp2862
Rp2863
(g561
I1
(tg565
I00
S'\xf3\xa1\xce\x07x\x0f\x1f@'
p2864
tp2865
bag3
(g4
(I0
tp2866
g6
tp2867
Rp2868
(g574
I1
(tg578
I00
S'\xa34W\xa4gt\x1d@'
p2869
tp2870
bag3
(g4
(I0
tp2871
g6
tp2872
Rp2873
(g587
I1
(tg591
I00
S'\xde\x87\xb1\xaf.\xba @'
p2874
tp2875
bag3
(g4
(I0
tp2876
g6
tp2877
Rp2878
(g600
I1
(tg604
I00
S'\xd1\xdbW\xad\x9b3 @'
p2879
tp2880
bag3
(g4
(I0
tp2881
g6
tp2882
Rp2883
(g613
I1
(tg617
I00
S'\x0c\xaf\xe8\x82)\xa2 @'
p2884
tp2885
bag3
(g4
(I0
tp2886
g6
tp2887
Rp2888
(g626
I1
(tg630
I00
S'I\xeaI\x94*z"@'
p2889
tp2890
bag3
(g4
(I0
tp2891
g6
tp2892
Rp2893
(g639
I1
(tg643
I00
S'\xad\xd9`\x9c\xd2\xca\x1e@'
p2894
tp2895
bag3
(g4
(I0
tp2896
g6
tp2897
Rp2898
(g652
I1
(tg656
I00
S'\xd8\xa3\xac\xfd\xf9\xd0!@'
p2899
tp2900
bag3
(g4
(I0
tp2901
g6
tp2902
Rp2903
(g665
I1
(tg669
I00
S'\x08\xc5R\x99\x0f9\x1d@'
p2904
tp2905
bag3
(g4
(I0
tp2906
g6
tp2907
Rp2908
(g678
I1
(tg682
I00
S'\x9f\xfb\xd2\xed\xca0\x1c@'
p2909
tp2910
bag3
(g4
(I0
tp2911
g6
tp2912
Rp2913
(g691
I1
(tg695
I00
S'\x17>+"\x8dx\x17@'
p2914
tp2915
bag3
(g4
(I0
tp2916
g6
tp2917
Rp2918
(g704
I1
(tg708
I00
S'*\xf2\xb5\xbf\x14\xc7\x1d@'
p2919
tp2920
bag3
(g4
(I0
tp2921
g6
tp2922
Rp2923
(g717
I1
(tg721
I00
S'H\x8d\xf4\xeb\x17\x08\x1e@'
p2924
tp2925
bag3
(g4
(I0
tp2926
g6
tp2927
Rp2928
(g730
I1
(tg734
I00
S'\x19\x8c\xed\xa5\xb7\xb2 @'
p2929
tp2930
bag3
(g4
(I0
tp2931
g6
tp2932
Rp2933
(g743
I1
(tg747
I00
S'%<\xac\x0b\xf2\xd1\x1e@'
p2934
tp2935
bag3
(g4
(I0
tp2936
g6
tp2937
Rp2938
(g756
I1
(tg760
I00
S'\x92\xf9\xcd,\xe6[\x1c@'
p2939
tp2940
bag3
(g4
(I0
tp2941
g6
tp2942
Rp2943
(g769
I1
(tg773
I00
S'n9\xf8\xdc\xeb\xcb\x1e@'
p2944
tp2945
bag3
(g4
(I0
tp2946
g6
tp2947
Rp2948
(g782
I1
(tg786
I00
S'\xb0\xdb/o\x02\x06"@'
p2949
tp2950
bag3
(g4
(I0
tp2951
g6
tp2952
Rp2953
(g795
I1
(tg799
I00
S'h\xb7\x85\x81\xce*\x1f@'
p2954
tp2955
bag3
(g4
(I0
tp2956
g6
tp2957
Rp2958
(g808
I1
(tg812
I00
S'uK&\x92v\xf5\x19@'
p2959
tp2960
bag3
(g4
(I0
tp2961
g6
tp2962
Rp2963
(g821
I1
(tg825
I00
S'\x8d\xb8\xebm\xeb\xec!@'
p2964
tp2965
bag3
(g4
(I0
tp2966
g6
tp2967
Rp2968
(g834
I1
(tg838
I00
S'\xa4A\xed\xc6jF @'
p2969
tp2970
bag3
(g4
(I0
tp2971
g6
tp2972
Rp2973
(g847
I1
(tg851
I00
S'\xb1\x94@\x04]\xaa\x1c@'
p2974
tp2975
bag3
(g4
(I0
tp2976
g6
tp2977
Rp2978
(g860
I1
(tg864
I00
S'\xe7C\xce\x90:\x1b"@'
p2979
tp2980
bag3
(g4
(I0
tp2981
g6
tp2982
Rp2983
(g873
I1
(tg877
I00
S'\xd2d\xd3Q\x7fo @'
p2984
tp2985
bag3
(g4
(I0
tp2986
g6
tp2987
Rp2988
(g886
I1
(tg890
I00
S'\xf3\xaa\xa3\xd9\xf05\x1c@'
p2989
tp2990
bag3
(g4
(I0
tp2991
g6
tp2992
Rp2993
(g899
I1
(tg903
I00
S'\x90\xd0\xc9 \x8b\xdd @'
p2994
tp2995
bag3
(g4
(I0
tp2996
g6
tp2997
Rp2998
(g912
I1
(tg916
I00
S'Ne\xa6\xa3\x93\x0f"@'
p2999
tp3000
bag3
(g4
(I0
tp3001
g6
tp3002
Rp3003
(g925
I1
(tg929
I00
S'\xc39\xc2\x05\xab\xb1"@'
p3004
tp3005
bag3
(g4
(I0
tp3006
g6
tp3007
Rp3008
(g938
I1
(tg942
I00
S'\xebn\xc6h\xf6\x1b"@'
p3009
tp3010
bag3
(g4
(I0
tp3011
g6
tp3012
Rp3013
(g951
I1
(tg955
I00
S'\x00\x81\xe3\x116\xbd"@'
p3014
tp3015
bag3
(g4
(I0
tp3016
g6
tp3017
Rp3018
(g964
I1
(tg968
I00
S'8-&\x1b\x0bd"@'
p3019
tp3020
bag3
(g4
(I0
tp3021
g6
tp3022
Rp3023
(g977
I1
(tg981
I00
S'\xbb\xc6\x92\x81\xed\x90\x1f@'
p3024
tp3025
bag3
(g4
(I0
tp3026
g6
tp3027
Rp3028
(g990
I1
(tg994
I00
S'\xfa\xe9\xd1A@)\x19@'
p3029
tp3030
bag3
(g4
(I0
tp3031
g6
tp3032
Rp3033
(g1003
I1
(tg1007
I00
S'Qj$\xfa\x0cU\x1e@'
p3034
tp3035
bag3
(g4
(I0
tp3036
g6
tp3037
Rp3038
(g1016
I1
(tg1020
I00
S'\x90m\x0f\x9a\xb2\x12\x1a@'
p3039
tp3040
bag3
(g4
(I0
tp3041
g6
tp3042
Rp3043
(g1029
I1
(tg1033
I00
S'\xca\xcc\x0c\x88\x9e\x93\x1c@'
p3044
tp3045
bag3
(g4
(I0
tp3046
g6
tp3047
Rp3048
(g1042
I1
(tg1046
I00
S'\xa5!I\x82I\xd7\x1b@'
p3049
tp3050
bag3
(g4
(I0
tp3051
g6
tp3052
Rp3053
(g1055
I1
(tg1059
I00
S'\xc1\x18,\xdc\xc6F\x1d@'
p3054
tp3055
bag3
(g4
(I0
tp3056
g6
tp3057
Rp3058
(g1068
I1
(tg1072
I00
S'):\x8f\x078m\x1b@'
p3059
tp3060
bag3
(g4
(I0
tp3061
g6
tp3062
Rp3063
(g1081
I1
(tg1085
I00
S'\xcb\xcfQk\xc8\xed!@'
p3064
tp3065
bag3
(g4
(I0
tp3066
g6
tp3067
Rp3068
(g1094
I1
(tg1098
I00
S'\xc9\x97\xcb\xa5\x82$\x1d@'
p3069
tp3070
bag3
(g4
(I0
tp3071
g6
tp3072
Rp3073
(g1107
I1
(tg1111
I00
S'\xee\xfd\xfamO\xcb @'
p3074
tp3075
bag3
(g4
(I0
tp3076
g6
tp3077
Rp3078
(g1120
I1
(tg1124
I00
S'`\xd2\xfa\xc1\x16\xb2!@'
p3079
tp3080
bag3
(g4
(I0
tp3081
g6
tp3082
Rp3083
(g1133
I1
(tg1137
I00
S']\x7f-|\xc3.\x1d@'
p3084
tp3085
bag3
(g4
(I0
tp3086
g6
tp3087
Rp3088
(g1146
I1
(tg1150
I00
S'\xc9\xe3\x8aV\x98\x18\x15@'
p3089
tp3090
bag3
(g4
(I0
tp3091
g6
tp3092
Rp3093
(g1159
I1
(tg1163
I00
S'$ \x9aar\x9a\x1e@'
p3094
tp3095
bag3
(g4
(I0
tp3096
g6
tp3097
Rp3098
(g1172
I1
(tg1176
I00
S'\xdb\xb4\xd02\x81M\x1e@'
p3099
tp3100
bag3
(g4
(I0
tp3101
g6
tp3102
Rp3103
(g1185
I1
(tg1189
I00
S'A)\xa2\xc1\xe0\x82\x1f@'
p3104
tp3105
bag3
(g4
(I0
tp3106
g6
tp3107
Rp3108
(g1198
I1
(tg1202
I00
S'8\x07\x1d\x8ar\xa0\x1f@'
p3109
tp3110
bag3
(g4
(I0
tp3111
g6
tp3112
Rp3113
(g1211
I1
(tg1215
I00
S'\x01k\\EK\x90\x1f@'
p3114
tp3115
bag3
(g4
(I0
tp3116
g6
tp3117
Rp3118
(g1224
I1
(tg1228
I00
S'\xf6Q\xa6p\x9a\x87!@'
p3119
tp3120
basS'oh_gas3'
p3121
(lp3122
g3
(g4
(I0
tp3123
g6
tp3124
Rp3125
(g13
I1
(tg19
I00
S'%cUjY0\x1f@'
p3126
tp3127
bag3
(g4
(I0
tp3128
g6
tp3129
Rp3130
(g28
I1
(tg32
I00
S'\t"\xda\x9f\xb2G @'
p3131
tp3132
bag3
(g4
(I0
tp3133
g6
tp3134
Rp3135
(g41
I1
(tg45
I00
S'\x0bVnXH\xb0\x1b@'
p3136
tp3137
bag3
(g4
(I0
tp3138
g6
tp3139
Rp3140
(g54
I1
(tg58
I00
S'\xb8o\x87\xe6\x11\x95"@'
p3141
tp3142
bag3
(g4
(I0
tp3143
g6
tp3144
Rp3145
(g67
I1
(tg71
I00
S'2\xc9R0\x1c\xef\x1c@'
p3146
tp3147
bag3
(g4
(I0
tp3148
g6
tp3149
Rp3150
(g80
I1
(tg84
I00
S'\x93.\xbd4}\xe9\x1c@'
p3151
tp3152
bag3
(g4
(I0
tp3153
g6
tp3154
Rp3155
(g93
I1
(tg97
I00
S'6\xe9\x03\xba\xc8\x18!@'
p3156
tp3157
bag3
(g4
(I0
tp3158
g6
tp3159
Rp3160
(g106
I1
(tg110
I00
S'm*}\xba!{\x1c@'
p3161
tp3162
bag3
(g4
(I0
tp3163
g6
tp3164
Rp3165
(g119
I1
(tg123
I00
S'\xd4\x8e\xaf\xeb3x\x1d@'
p3166
tp3167
bag3
(g4
(I0
tp3168
g6
tp3169
Rp3170
(g132
I1
(tg136
I00
S"'\r\x11\x9cNJ\x1b@"
p3171
tp3172
bag3
(g4
(I0
tp3173
g6
tp3174
Rp3175
(g145
I1
(tg149
I00
S'\xca\x93LQ\x19\x05 @'
p3176
tp3177
bag3
(g4
(I0
tp3178
g6
tp3179
Rp3180
(g158
I1
(tg162
I00
S'\x92\x1fW\x835\xa0\x1d@'
p3181
tp3182
bag3
(g4
(I0
tp3183
g6
tp3184
Rp3185
(g171
I1
(tg175
I00
S'\x05j\x96\x10j\x17 @'
p3186
tp3187
bag3
(g4
(I0
tp3188
g6
tp3189
Rp3190
(g184
I1
(tg188
I00
S"\xc8\xdf\xba'\xf4\xa8\x1f@"
p3191
tp3192
bag3
(g4
(I0
tp3193
g6
tp3194
Rp3195
(g197
I1
(tg201
I00
S'\x9b\xc5\xcf\xfc2^\x1e@'
p3196
tp3197
bag3
(g4
(I0
tp3198
g6
tp3199
Rp3200
(g210
I1
(tg214
I00
S'\x85G\xc0\xd2\xd7\x8e"@'
p3201
tp3202
bag3
(g4
(I0
tp3203
g6
tp3204
Rp3205
(g223
I1
(tg227
I00
S'\xf0\xb6\x1ak\xf0\xe5\x1c@'
p3206
tp3207
bag3
(g4
(I0
tp3208
g6
tp3209
Rp3210
(g236
I1
(tg240
I00
S'bd\x17\xa0\x9a\x08\x1c@'
p3211
tp3212
bag3
(g4
(I0
tp3213
g6
tp3214
Rp3215
(g249
I1
(tg253
I00
S'\x9et\x14>\nt\x1c@'
p3216
tp3217
bag3
(g4
(I0
tp3218
g6
tp3219
Rp3220
(g262
I1
(tg266
I00
S'\xf5\xe9\xc5?\x87\x8f\x1c@'
p3221
tp3222
bag3
(g4
(I0
tp3223
g6
tp3224
Rp3225
(g275
I1
(tg279
I00
S'+F/L\x8fm"@'
p3226
tp3227
bag3
(g4
(I0
tp3228
g6
tp3229
Rp3230
(g288
I1
(tg292
I00
S'\x19\xed\xbb\xbb\xcf\xbe\x1c@'
p3231
tp3232
bag3
(g4
(I0
tp3233
g6
tp3234
Rp3235
(g301
I1
(tg305
I00
S'\xdd\xac\t\xc7\rT!@'
p3236
tp3237
bag3
(g4
(I0
tp3238
g6
tp3239
Rp3240
(g314
I1
(tg318
I00
S'\xfe\xcdZf)j\x1d@'
p3241
tp3242
bag3
(g4
(I0
tp3243
g6
tp3244
Rp3245
(g327
I1
(tg331
I00
S'2\xb1\xf4\xc3\x05\x00 @'
p3246
tp3247
bag3
(g4
(I0
tp3248
g6
tp3249
Rp3250
(g340
I1
(tg344
I00
S'd\x8f\x97n 3\x1d@'
p3251
tp3252
bag3
(g4
(I0
tp3253
g6
tp3254
Rp3255
(g353
I1
(tg357
I00
S'\x99l\xbff\xe2\x14\x1d@'
p3256
tp3257
bag3
(g4
(I0
tp3258
g6
tp3259
Rp3260
(g366
I1
(tg370
I00
S'\xb5\xc5\x9a\x112\xe6\x1c@'
p3261
tp3262
bag3
(g4
(I0
tp3263
g6
tp3264
Rp3265
(g379
I1
(tg383
I00
S'\xf1\x07\x13,\xe7&!@'
p3266
tp3267
bag3
(g4
(I0
tp3268
g6
tp3269
Rp3270
(g392
I1
(tg396
I00
S'\xf6\x9ay\xddP\xdb @'
p3271
tp3272
bag3
(g4
(I0
tp3273
g6
tp3274
Rp3275
(g405
I1
(tg409
I00
S'\xe4S#\xcc\n\xa1!@'
p3276
tp3277
bag3
(g4
(I0
tp3278
g6
tp3279
Rp3280
(g418
I1
(tg422
I00
S'k<\xf8\xe7\xe5M @'
p3281
tp3282
bag3
(g4
(I0
tp3283
g6
tp3284
Rp3285
(g431
I1
(tg435
I00
S'\xe74\xbf\x1b\xdb\xf3!@'
p3286
tp3287
bag3
(g4
(I0
tp3288
g6
tp3289
Rp3290
(g444
I1
(tg448
I00
S'\xbb\xf4L\xf5U\xe5\x1e@'
p3291
tp3292
bag3
(g4
(I0
tp3293
g6
tp3294
Rp3295
(g457
I1
(tg461
I00
S"\xfb'\xa9\x95\xd9\xe8\x1c@"
p3296
tp3297
bag3
(g4
(I0
tp3298
g6
tp3299
Rp3300
(g470
I1
(tg474
I00
S'g\xc5\x9c\xafO\xb2"@'
p3301
tp3302
bag3
(g4
(I0
tp3303
g6
tp3304
Rp3305
(g483
I1
(tg487
I00
S'\xd2f\xad\x17\x00\xcc\x1d@'
p3306
tp3307
bag3
(g4
(I0
tp3308
g6
tp3309
Rp3310
(g496
I1
(tg500
I00
S'\x06\xb3S\x07\xc6\xcd\x1d@'
p3311
tp3312
bag3
(g4
(I0
tp3313
g6
tp3314
Rp3315
(g509
I1
(tg513
I00
S'\x04 !a!\xc0\x1e@'
p3316
tp3317
bag3
(g4
(I0
tp3318
g6
tp3319
Rp3320
(g522
I1
(tg526
I00
S'N\x13\x170\x91~!@'
p3321
tp3322
bag3
(g4
(I0
tp3323
g6
tp3324
Rp3325
(g535
I1
(tg539
I00
S'~\x80\xb5\xcc\x10D\x1e@'
p3326
tp3327
bag3
(g4
(I0
tp3328
g6
tp3329
Rp3330
(g548
I1
(tg552
I00
S'4W\x1b\xa2\xb6\xbd @'
p3331
tp3332
bag3
(g4
(I0
tp3333
g6
tp3334
Rp3335
(g561
I1
(tg565
I00
S'\xac\x13\x8e\xd1\x13\x0e\x1f@'
p3336
tp3337
bag3
(g4
(I0
tp3338
g6
tp3339
Rp3340
(g574
I1
(tg578
I00
S'\x1fJ2F7l\x1d@'
p3341
tp3342
bag3
(g4
(I0
tp3343
g6
tp3344
Rp3345
(g587
I1
(tg591
I00
S'\xe35\x9d%#\xaa @'
p3346
tp3347
bag3
(g4
(I0
tp3348
g6
tp3349
Rp3350
(g600
I1
(tg604
I00
S'f\x82\xd3ap\x14 @'
p3351
tp3352
bag3
(g4
(I0
tp3353
g6
tp3354
Rp3355
(g613
I1
(tg617
I00
S'\xfa\xed\xdc\xb7\xe6\x9e @'
p3356
tp3357
bag3
(g4
(I0
tp3358
g6
tp3359
Rp3360
(g626
I1
(tg630
I00
S'\x119z\xd0\xe7f"@'
p3361
tp3362
bag3
(g4
(I0
tp3363
g6
tp3364
Rp3365
(g639
I1
(tg643
I00
S'\xcc\xf9\x8f\xe9\x89\xc8\x1e@'
p3366
tp3367
bag3
(g4
(I0
tp3368
g6
tp3369
Rp3370
(g652
I1
(tg656
I00
S'\x12N\xe2`b\xcc!@'
p3371
tp3372
bag3
(g4
(I0
tp3373
g6
tp3374
Rp3375
(g665
I1
(tg669
I00
S'DFR\x8f44\x1d@'
p3376
tp3377
bag3
(g4
(I0
tp3378
g6
tp3379
Rp3380
(g678
I1
(tg682
I00
S'\xa1\x15-\xf95\x19\x1c@'
p3381
tp3382
bag3
(g4
(I0
tp3383
g6
tp3384
Rp3385
(g691
I1
(tg695
I00
S'v?\x9d\x1aFl\x17@'
p3386
tp3387
bag3
(g4
(I0
tp3388
g6
tp3389
Rp3390
(g704
I1
(tg708
I00
S',P`o8\xb3\x1d@'
p3391
tp3392
bag3
(g4
(I0
tp3393
g6
tp3394
Rp3395
(g717
I1
(tg721
I00
S'\x95\x90J\x8d\xfc\xfb\x1d@'
p3396
tp3397
bag3
(g4
(I0
tp3398
g6
tp3399
Rp3400
(g730
I1
(tg734
I00
S'\xc1r\x8d\xf2\\\x9e @'
p3401
tp3402
bag3
(g4
(I0
tp3403
g6
tp3404
Rp3405
(g743
I1
(tg747
I00
S'\x98^\xba\xaeb\xcc\x1e@'
p3406
tp3407
bag3
(g4
(I0
tp3408
g6
tp3409
Rp3410
(g756
I1
(tg760
I00
S'\x9crA$\x9bT\x1c@'
p3411
tp3412
bag3
(g4
(I0
tp3413
g6
tp3414
Rp3415
(g769
I1
(tg773
I00
S'\xd0\xa8\x17%\xc7\xbb\x1e@'
p3416
tp3417
bag3
(g4
(I0
tp3418
g6
tp3419
Rp3420
(g782
I1
(tg786
I00
S'\xe3\xc1\x03\xefy\xef!@'
p3421
tp3422
bag3
(g4
(I0
tp3423
g6
tp3424
Rp3425
(g795
I1
(tg799
I00
S'2\xa5\xc3\xa9\xa3+\x1f@'
p3426
tp3427
bag3
(g4
(I0
tp3428
g6
tp3429
Rp3430
(g808
I1
(tg812
I00
S'\x02u\xc6v\xa6\xf3\x19@'
p3431
tp3432
bag3
(g4
(I0
tp3433
g6
tp3434
Rp3435
(g821
I1
(tg825
I00
S'\\\x1bP\x15\xc8\xe8!@'
p3436
tp3437
bag3
(g4
(I0
tp3438
g6
tp3439
Rp3440
(g834
I1
(tg838
I00
S'\xba c\xc8|  @'
p3441
tp3442
bag3
(g4
(I0
tp3443
g6
tp3444
Rp3445
(g847
I1
(tg851
I00
S'\x806\x87\x1b@\xa7\x1c@'
p3446
tp3447
bag3
(g4
(I0
tp3448
g6
tp3449
Rp3450
(g860
I1
(tg864
I00
S'\x98|6\x9a\xb6\x13"@'
p3451
tp3452
bag3
(g4
(I0
tp3453
g6
tp3454
Rp3455
(g873
I1
(tg877
I00
S'^\xf7\xa6\x1b\x19k @'
p3456
tp3457
bag3
(g4
(I0
tp3458
g6
tp3459
Rp3460
(g886
I1
(tg890
I00
S'\xe4^\x99\xda\xcd0\x1c@'
p3461
tp3462
bag3
(g4
(I0
tp3463
g6
tp3464
Rp3465
(g899
I1
(tg903
I00
S'b\xe8\xcbZa\xc5 @'
p3466
tp3467
bag3
(g4
(I0
tp3468
g6
tp3469
Rp3470
(g912
I1
(tg916
I00
S'\x14\xd4b\xde2\xfa!@'
p3471
tp3472
bag3
(g4
(I0
tp3473
g6
tp3474
Rp3475
(g925
I1
(tg929
I00
S'\xde\xac\x93\x19\xab\xae"@'
p3476
tp3477
bag3
(g4
(I0
tp3478
g6
tp3479
Rp3480
(g938
I1
(tg942
I00
S'*\xcbh\xd6`\x19"@'
p3481
tp3482
bag3
(g4
(I0
tp3483
g6
tp3484
Rp3485
(g951
I1
(tg955
I00
S'\x80\x19\xc9c\xd3\xb0"@'
p3486
tp3487
bag3
(g4
(I0
tp3488
g6
tp3489
Rp3490
(g964
I1
(tg968
I00
S'\x82>~\xd8\xeaS"@'
p3491
tp3492
bag3
(g4
(I0
tp3493
g6
tp3494
Rp3495
(g977
I1
(tg981
I00
S'\r\xf7_\xa5\x96x\x1f@'
p3496
tp3497
bag3
(g4
(I0
tp3498
g6
tp3499
Rp3500
(g990
I1
(tg994
I00
S'u\xe4W\xd7[\xeb\x18@'
p3501
tp3502
bag3
(g4
(I0
tp3503
g6
tp3504
Rp3505
(g1003
I1
(tg1007
I00
S'2?\xfe]\x83K\x1e@'
p3506
tp3507
bag3
(g4
(I0
tp3508
g6
tp3509
Rp3510
(g1016
I1
(tg1020
I00
S'\x04\xc6Y\xc3Z\x03\x1a@'
p3511
tp3512
bag3
(g4
(I0
tp3513
g6
tp3514
Rp3515
(g1029
I1
(tg1033
I00
S'\xd9\x03\x1d\xfc!\x93\x1c@'
p3516
tp3517
bag3
(g4
(I0
tp3518
g6
tp3519
Rp3520
(g1042
I1
(tg1046
I00
S'>\xc5A\x01\xf1R\x1b@'
p3521
tp3522
bag3
(g4
(I0
tp3523
g6
tp3524
Rp3525
(g1055
I1
(tg1059
I00
S'\xaf\xedM\xe7=H\x1d@'
p3526
tp3527
bag3
(g4
(I0
tp3528
g6
tp3529
Rp3530
(g1068
I1
(tg1072
I00
S'S\x13\x81\xbe\xa0`\x1b@'
p3531
tp3532
bag3
(g4
(I0
tp3533
g6
tp3534
Rp3535
(g1081
I1
(tg1085
I00
S'\xdc\x0b-\xddM\xe5!@'
p3536
tp3537
bag3
(g4
(I0
tp3538
g6
tp3539
Rp3540
(g1094
I1
(tg1098
I00
S'\x03\xa8\xf84\xa7!\x1d@'
p3541
tp3542
bag3
(g4
(I0
tp3543
g6
tp3544
Rp3545
(g1107
I1
(tg1111
I00
S'm\xbe\x1e\x0cx\xbd @'
p3546
tp3547
bag3
(g4
(I0
tp3548
g6
tp3549
Rp3550
(g1120
I1
(tg1124
I00
S'\x18\xa48\x9d\xc9\xab!@'
p3551
tp3552
bag3
(g4
(I0
tp3553
g6
tp3554
Rp3555
(g1133
I1
(tg1137
I00
S'\xd3-\xab\x11P/\x1d@'
p3556
tp3557
bag3
(g4
(I0
tp3558
g6
tp3559
Rp3560
(g1146
I1
(tg1150
I00
S")\xc3\x9b\xb7'\xf3\x14@"
p3561
tp3562
bag3
(g4
(I0
tp3563
g6
tp3564
Rp3565
(g1159
I1
(tg1163
I00
S'\xb1jb\xc3\x83\x81\x1e@'
p3566
tp3567
bag3
(g4
(I0
tp3568
g6
tp3569
Rp3570
(g1172
I1
(tg1176
I00
S'\x12V\xe7U\xedH\x1e@'
p3571
tp3572
bag3
(g4
(I0
tp3573
g6
tp3574
Rp3575
(g1185
I1
(tg1189
I00
S'_2vN\x18z\x1f@'
p3576
tp3577
bag3
(g4
(I0
tp3578
g6
tp3579
Rp3580
(g1198
I1
(tg1202
I00
S'\xd0\xa1z\xd1[\x96\x1f@'
p3581
tp3582
bag3
(g4
(I0
tp3583
g6
tp3584
Rp3585
(g1211
I1
(tg1215
I00
S'\x90!f\xd8\xd2\x85\x1f@'
p3586
tp3587
bag3
(g4
(I0
tp3588
g6
tp3589
Rp3590
(g1224
I1
(tg1228
I00
S'\xd7!\x95\xe0\xa9}!@'
p3591
tp3592
basS'mstar_rh'
p3593
(lp3594
g3
(g4
(I0
tp3595
g6
tp3596
Rp3597
(g9
(cpynbody.units
CompositeUnit
p3598
g11
Ntp3599
Rp3600
(dp3601
S'_powers'
p3602
(lp3603
cfractions
Fraction
p3604
(S'1'
p3605
tp3606
Rp3607
asS'_scale'
p3608
I1
sS'_bases'
p3609
(lp3610
cpynbody.units
_resurrect_named_unit
p3611
(S'Msol'
p3612
S'M_{\\odot}'
p3613
g9
(g3598
g11
Ntp3614
Rp3615
(dp3616
g3602
(lp3617
I1
asg3608
F1.98892e+30
sg3609
(lp3618
g3611
(S'kg'
p3619
NNtp3620
Rp3621
asbtp3622
Rp3623
asbI1
(tg19
I00
S'_4\xa8\xbc\x0c\x97\xa2A'
p3624
tp3625
bag3
(g4
(I0
tp3626
g6
tp3627
Rp3628
(g9
(g3598
g11
Ntp3629
Rp3630
(dp3631
g3602
(lp3632
g3604
(g3605
tp3633
Rp3634
asg3608
I1
sg3609
(lp3635
g3623
asbI1
(tg32
I00
S'&\xc6y\xc5\x1b\xf5\xb8A'
p3636
tp3637
bag3
(g4
(I0
tp3638
g6
tp3639
Rp3640
(g9
(g3598
g11
Ntp3641
Rp3642
(dp3643
g3602
(lp3644
g3604
(g3605
tp3645
Rp3646
asg3608
I1
sg3609
(lp3647
g3623
asbI1
(tg45
I00
S'\xddh\xf4\x17{\xaa@A'
p3648
tp3649
bag3
(g4
(I0
tp3650
g6
tp3651
Rp3652
(g9
(g3598
g11
Ntp3653
Rp3654
(dp3655
g3602
(lp3656
g3604
(g3605
tp3657
Rp3658
asg3608
I1
sg3609
(lp3659
g3623
asbI1
(tg58
I00
S'\xdem\xad\x06h\xa6 B'
p3660
tp3661
bag3
(g4
(I0
tp3662
g6
tp3663
Rp3664
(g9
(g3598
g11
Ntp3665
Rp3666
(dp3667
g3602
(lp3668
g3604
(g3605
tp3669
Rp3670
asg3608
I1
sg3609
(lp3671
g3623
asbI1
(tg71
I00
S'\xdcB\x14\x1a\xf9\xde0A'
p3672
tp3673
bag3
(g4
(I0
tp3674
g6
tp3675
Rp3676
(g9
(g3598
g11
Ntp3677
Rp3678
(dp3679
g3602
(lp3680
g3604
(g3605
tp3681
Rp3682
asg3608
I1
sg3609
(lp3683
g3623
asbI1
(tg84
I00
S'\xe3Lg\xe0\xfe%\x1dA'
p3684
tp3685
bag3
(g4
(I0
tp3686
g6
tp3687
Rp3688
(g9
(g3598
g11
Ntp3689
Rp3690
(dp3691
g3602
(lp3692
g3604
(g3605
tp3693
Rp3694
asg3608
I1
sg3609
(lp3695
g3623
asbI1
(tg97
I00
S'\x92\x9f\xc7\xd34\xd7\xc3A'
p3696
tp3697
bag3
(g4
(I0
tp3698
g6
tp3699
Rp3700
(g9
(g3598
g11
Ntp3701
Rp3702
(dp3703
g3602
(lp3704
g3604
(g3605
tp3705
Rp3706
asg3608
I1
sg3609
(lp3707
g3623
asbI1
(tg110
I00
S'u\x9d\xf1\xfd\xa5\x1bAA'
p3708
tp3709
bag3
(g4
(I0
tp3710
g6
tp3711
Rp3712
(g9
(g3598
g11
Ntp3713
Rp3714
(dp3715
g3602
(lp3716
g3604
(g3605
tp3717
Rp3718
asg3608
I1
sg3609
(lp3719
g3623
asbI1
(tg123
I00
S'`!\xafC\xd2\x9c@A'
p3720
tp3721
bag3
(g4
(I0
tp3722
g6
tp3723
Rp3724
(g9
(g3598
g11
Ntp3725
Rp3726
(dp3727
g3602
(lp3728
g3604
(g3605
tp3729
Rp3730
asg3608
I1
sg3609
(lp3731
g3623
asbI1
(tg136
I00
S'\x85\xd6\xee\r\x00\xed5A'
p3732
tp3733
bag3
(g4
(I0
tp3734
g6
tp3735
Rp3736
(g9
(g3598
g11
Ntp3737
Rp3738
(dp3739
g3602
(lp3740
g3604
(g3605
tp3741
Rp3742
asg3608
I1
sg3609
(lp3743
g3623
asbI1
(tg149
I00
S'\x94\xd7j^\xd6\x03\xb9A'
p3744
tp3745
bag3
(g4
(I0
tp3746
g6
tp3747
Rp3748
(g9
(g3598
g11
Ntp3749
Rp3750
(dp3751
g3602
(lp3752
g3604
(g3605
tp3753
Rp3754
asg3608
I1
sg3609
(lp3755
g3623
asbI1
(tg162
I00
S'e\x02\x1al\x89\xc8BA'
p3756
tp3757
bag3
(g4
(I0
tp3758
g6
tp3759
Rp3760
(g9
(g3598
g11
Ntp3761
Rp3762
(dp3763
g3602
(lp3764
g3604
(g3605
tp3765
Rp3766
asg3608
I1
sg3609
(lp3767
g3623
asbI1
(tg175
I00
S'\x08\xe5\xfdm\xcf\xa6\xb5A'
p3768
tp3769
bag3
(g4
(I0
tp3770
g6
tp3771
Rp3772
(g9
(g3598
g11
Ntp3773
Rp3774
(dp3775
g3602
(lp3776
g3604
(g3605
tp3777
Rp3778
asg3608
I1
sg3609
(lp3779
g3623
asbI1
(tg188
I00
S'\xe1} \x0fx\xab\xb2A'
p3780
tp3781
bag3
(g4
(I0
tp3782
g6
tp3783
Rp3784
(g9
(g3598
g11
Ntp3785
Rp3786
(dp3787
g3602
(lp3788
g3604
(g3605
tp3789
Rp3790
asg3608
I1
sg3609
(lp3791
g3623
asbI1
(tg201
I00
S'\x1a#\xf8\xd6^\x15\xa0A'
p3792
tp3793
bag3
(g4
(I0
tp3794
g6
tp3795
Rp3796
(g9
(g3598
g11
Ntp3797
Rp3798
(dp3799
g3602
(lp3800
g3604
(g3605
tp3801
Rp3802
asg3608
I1
sg3609
(lp3803
g3623
asbI1
(tg214
I00
S'c\xba\xf1\xc1e\x81&B'
p3804
tp3805
bag3
(g4
(I0
tp3806
g6
tp3807
Rp3808
(g9
(g3598
g11
Ntp3809
Rp3810
(dp3811
g3602
(lp3812
g3604
(g3605
tp3813
Rp3814
asg3608
I1
sg3609
(lp3815
g3623
asbI1
(tg227
I00
S'\xf0\xe9W\xd9}\xbb]A'
p3816
tp3817
bag3
(g4
(I0
tp3818
g6
tp3819
Rp3820
(g9
(g3598
g11
Ntp3821
Rp3822
(dp3823
g3602
(lp3824
g3604
(g3605
tp3825
Rp3826
asg3608
I1
sg3609
(lp3827
g3623
asbI1
(tg240
I00
S'\xc6k\x90x\n\xfd@A'
p3828
tp3829
bag3
(g4
(I0
tp3830
g6
tp3831
Rp3832
(g9
(g3598
g11
Ntp3833
Rp3834
(dp3835
g3602
(lp3836
g3604
(g3605
tp3837
Rp3838
asg3608
I1
sg3609
(lp3839
g3623
asbI1
(tg253
I00
S'v\xdch7\xa2TLA'
p3840
tp3841
bag3
(g4
(I0
tp3842
g6
tp3843
Rp3844
(g9
(g3598
g11
Ntp3845
Rp3846
(dp3847
g3602
(lp3848
g3604
(g3605
tp3849
Rp3850
asg3608
I1
sg3609
(lp3851
g3623
asbI1
(tg266
I00
S'\x86\x85\x16\xe7\xc836A'
p3852
tp3853
bag3
(g4
(I0
tp3854
g6
tp3855
Rp3856
(g9
(g3598
g11
Ntp3857
Rp3858
(dp3859
g3602
(lp3860
g3604
(g3605
tp3861
Rp3862
asg3608
I1
sg3609
(lp3863
g3623
asbI1
(tg279
I00
S'\xf2\xa37\xfav\xb22B'
p3864
tp3865
bag3
(g4
(I0
tp3866
g6
tp3867
Rp3868
(g9
(g3598
g11
Ntp3869
Rp3870
(dp3871
g3602
(lp3872
g3604
(g3605
tp3873
Rp3874
asg3608
I1
sg3609
(lp3875
g3623
asbI1
(tg292
I00
S'\x0e\x8b\xa7\x03\xe45:A'
p3876
tp3877
bag3
(g4
(I0
tp3878
g6
tp3879
Rp3880
(g9
(g3598
g11
Ntp3881
Rp3882
(dp3883
g3602
(lp3884
g3604
(g3605
tp3885
Rp3886
asg3608
I1
sg3609
(lp3887
g3623
asbI1
(tg305
I00
S'\x88\xdf4K;E\xcbA'
p3888
tp3889
bag3
(g4
(I0
tp3890
g6
tp3891
Rp3892
(g9
(g3598
g11
Ntp3893
Rp3894
(dp3895
g3602
(lp3896
g3604
(g3605
tp3897
Rp3898
asg3608
I1
sg3609
(lp3899
g3623
asbI1
(tg318
I00
S'(\xe3\xb2\xdf\xcb/AA'
p3900
tp3901
bag3
(g4
(I0
tp3902
g6
tp3903
Rp3904
(g9
(g3598
g11
Ntp3905
Rp3906
(dp3907
g3602
(lp3908
g3604
(g3605
tp3909
Rp3910
asg3608
I1
sg3609
(lp3911
g3623
asbI1
(tg331
I00
S'\xdc\x9bAq\xa8\x7f\xa8A'
p3912
tp3913
bag3
(g4
(I0
tp3914
g6
tp3915
Rp3916
(g9
(g3598
g11
Ntp3917
Rp3918
(dp3919
g3602
(lp3920
g3604
(g3605
tp3921
Rp3922
asg3608
I1
sg3609
(lp3923
g3623
asbI1
(tg344
I00
S'\x0e[\xd1t\xa6\xfcOA'
p3924
tp3925
bag3
(g4
(I0
tp3926
g6
tp3927
Rp3928
(g9
(g3598
g11
Ntp3929
Rp3930
(dp3931
g3602
(lp3932
g3604
(g3605
tp3933
Rp3934
asg3608
I1
sg3609
(lp3935
g3623
asbI1
(tg357
I00
S'DO\xee\x89\x96wJA'
p3936
tp3937
bag3
(g4
(I0
tp3938
g6
tp3939
Rp3940
(g9
(g3598
g11
Ntp3941
Rp3942
(dp3943
g3602
(lp3944
g3604
(g3605
tp3945
Rp3946
asg3608
I1
sg3609
(lp3947
g3623
asbI1
(tg370
I00
S'\xe8\x93\xfc6-9@A'
p3948
tp3949
bag3
(g4
(I0
tp3950
g6
tp3951
Rp3952
(g9
(g3598
g11
Ntp3953
Rp3954
(dp3955
g3602
(lp3956
g3604
(g3605
tp3957
Rp3958
asg3608
I1
sg3609
(lp3959
g3623
asbI1
(tg383
I00
S'\xc0\x94\xa1\xcb\xdb\xe4\xcdA'
p3960
tp3961
bag3
(g4
(I0
tp3962
g6
tp3963
Rp3964
(g9
(g3598
g11
Ntp3965
Rp3966
(dp3967
g3602
(lp3968
g3604
(g3605
tp3969
Rp3970
asg3608
I1
sg3609
(lp3971
g3623
asbI1
(tg396
I00
S'\xdai\xd7$\xeb\xa8\xd1A'
p3972
tp3973
bag3
(g4
(I0
tp3974
g6
tp3975
Rp3976
(g9
(g3598
g11
Ntp3977
Rp3978
(dp3979
g3602
(lp3980
g3604
(g3605
tp3981
Rp3982
asg3608
I1
sg3609
(lp3983
g3623
asbI1
(tg409
I00
S'\xdas\xf5\xa2K\xb0\xe0A'
p3984
tp3985
bag3
(g4
(I0
tp3986
g6
tp3987
Rp3988
(g9
(g3598
g11
Ntp3989
Rp3990
(dp3991
g3602
(lp3992
g3604
(g3605
tp3993
Rp3994
asg3608
I1
sg3609
(lp3995
g3623
asbI1
(tg422
I00
S'\x8a\xf9\xea{\x98e\xbaA'
p3996
tp3997
bag3
(g4
(I0
tp3998
g6
tp3999
Rp4000
(g9
(g3598
g11
Ntp4001
Rp4002
(dp4003
g3602
(lp4004
g3604
(g3605
tp4005
Rp4006
asg3608
I1
sg3609
(lp4007
g3623
asbI1
(tg435
I00
S'\x84=p\xed\x02#\xf5A'
p4008
tp4009
bag3
(g4
(I0
tp4010
g6
tp4011
Rp4012
(g9
(g3598
g11
Ntp4013
Rp4014
(dp4015
g3602
(lp4016
g3604
(g3605
tp4017
Rp4018
asg3608
I1
sg3609
(lp4019
g3623
asbI1
(tg448
I00
S'\xb2z\xd9x?^iA'
p4020
tp4021
bag3
(g4
(I0
tp4022
g6
tp4023
Rp4024
(g9
(g3598
g11
Ntp4025
Rp4026
(dp4027
g3602
(lp4028
g3604
(g3605
tp4029
Rp4030
asg3608
I1
sg3609
(lp4031
g3623
asbI1
(tg461
I00
S'\xaa9\x8d\xae\x8d\xd9gA'
p4032
tp4033
bag3
(g4
(I0
tp4034
g6
tp4035
Rp4036
(g9
(g3598
g11
Ntp4037
Rp4038
(dp4039
g3602
(lp4040
g3604
(g3605
tp4041
Rp4042
asg3608
I1
sg3609
(lp4043
g3623
asbI1
(tg474
I00
S'\xfb\xbauqD\x153B'
p4044
tp4045
bag3
(g4
(I0
tp4046
g6
tp4047
Rp4048
(g9
(g3598
g11
Ntp4049
Rp4050
(dp4051
g3602
(lp4052
g3604
(g3605
tp4053
Rp4054
asg3608
I1
sg3609
(lp4055
g3623
asbI1
(tg487
I00
S'\x80>\x05z\xe8\xc2bA'
p4056
tp4057
bag3
(g4
(I0
tp4058
g6
tp4059
Rp4060
(g9
(g3598
g11
Ntp4061
Rp4062
(dp4063
g3602
(lp4064
g3604
(g3605
tp4065
Rp4066
asg3608
I1
sg3609
(lp4067
g3623
asbI1
(tg500
I00
S'o\x9b\x05\xfe_\xf7iA'
p4068
tp4069
bag3
(g4
(I0
tp4070
g6
tp4071
Rp4072
(g9
(g3598
g11
Ntp4073
Rp4074
(dp4075
g3602
(lp4076
g3604
(g3605
tp4077
Rp4078
asg3608
I1
sg3609
(lp4079
g3623
asbI1
(tg513
I00
S'\t\xb4\xfb\xa2\x96\x91pA'
p4080
tp4081
bag3
(g4
(I0
tp4082
g6
tp4083
Rp4084
(g9
(g3598
g11
Ntp4085
Rp4086
(dp4087
g3602
(lp4088
g3604
(g3605
tp4089
Rp4090
asg3608
I1
sg3609
(lp4091
g3623
asbI1
(tg526
I00
S'\x82\xb0\x83**\x1f\xe1A'
p4092
tp4093
bag3
(g4
(I0
tp4094
g6
tp4095
Rp4096
(g9
(g3598
g11
Ntp4097
Rp4098
(dp4099
g3602
(lp4100
g3604
(g3605
tp4101
Rp4102
asg3608
I1
sg3609
(lp4103
g3623
asbI1
(tg539
I00
S'4\xb2u\x1b\xcc\xe5fA'
p4104
tp4105
bag3
(g4
(I0
tp4106
g6
tp4107
Rp4108
(g9
(g3598
g11
Ntp4109
Rp4110
(dp4111
g3602
(lp4112
g3604
(g3605
tp4113
Rp4114
asg3608
I1
sg3609
(lp4115
g3623
asbI1
(tg552
I00
S'\xf1\x95+[\xa0U\xceA'
p4116
tp4117
bag3
(g4
(I0
tp4118
g6
tp4119
Rp4120
(g9
(g3598
g11
Ntp4121
Rp4122
(dp4123
g3602
(lp4124
g3604
(g3605
tp4125
Rp4126
asg3608
I1
sg3609
(lp4127
g3623
asbI1
(tg565
I00
S'gx\x81\xef\x88d\x96A'
p4128
tp4129
bag3
(g4
(I0
tp4130
g6
tp4131
Rp4132
(g9
(g3598
g11
Ntp4133
Rp4134
(dp4135
g3602
(lp4136
g3604
(g3605
tp4137
Rp4138
asg3608
I1
sg3609
(lp4139
g3623
asbI1
(tg578
I00
S'\xe2"\xf0\xb1\x1b\xffqA'
p4140
tp4141
bag3
(g4
(I0
tp4142
g6
tp4143
Rp4144
(g9
(g3598
g11
Ntp4145
Rp4146
(dp4147
g3602
(lp4148
g3604
(g3605
tp4149
Rp4150
asg3608
I1
sg3609
(lp4151
g3623
asbI1
(tg591
I00
S'\x82nQ\xb1+G\xdcA'
p4152
tp4153
bag3
(g4
(I0
tp4154
g6
tp4155
Rp4156
(g9
(g3598
g11
Ntp4157
Rp4158
(dp4159
g3602
(lp4160
g3604
(g3605
tp4161
Rp4162
asg3608
I1
sg3609
(lp4163
g3623
asbI1
(tg604
I00
S'\xf0^;\xb2\x02\xdf\xd2A'
p4164
tp4165
bag3
(g4
(I0
tp4166
g6
tp4167
Rp4168
(g9
(g3598
g11
Ntp4169
Rp4170
(dp4171
g3602
(lp4172
g3604
(g3605
tp4173
Rp4174
asg3608
I1
sg3609
(lp4175
g3623
asbI1
(tg617
I00
S'o\x08d\xa2\xbd\x9a\xcbA'
p4176
tp4177
bag3
(g4
(I0
tp4178
g6
tp4179
Rp4180
(g9
(g3598
g11
Ntp4181
Rp4182
(dp4183
g3602
(lp4184
g3604
(g3605
tp4185
Rp4186
asg3608
I1
sg3609
(lp4187
g3623
asbI1
(tg630
I00
S'6+5\xa0\xb1\xea\x05B'
p4188
tp4189
bag3
(g4
(I0
tp4190
g6
tp4191
Rp4192
(g9
(g3598
g11
Ntp4193
Rp4194
(dp4195
g3602
(lp4196
g3604
(g3605
tp4197
Rp4198
asg3608
I1
sg3609
(lp4199
g3623
asbI1
(tg643
I00
S'\xdac\xf8^,\x97sA'
p4200
tp4201
bag3
(g4
(I0
tp4202
g6
tp4203
Rp4204
(g9
(g3598
g11
Ntp4205
Rp4206
(dp4207
g3602
(lp4208
g3604
(g3605
tp4209
Rp4210
asg3608
I1
sg3609
(lp4211
g3623
asbI1
(tg656
I00
S'l\x03@f^\xce\xf1A'
p4212
tp4213
bag3
(g4
(I0
tp4214
g6
tp4215
Rp4216
(g9
(g3598
g11
Ntp4217
Rp4218
(dp4219
g3602
(lp4220
g3604
(g3605
tp4221
Rp4222
asg3608
I1
sg3609
(lp4223
g3623
asbI1
(tg669
I00
S'\xbb\x1c\xec\xe7\xf6\xc0gA'
p4224
tp4225
bag3
(g4
(I0
tp4226
g6
tp4227
Rp4228
(g9
(g3598
g11
Ntp4229
Rp4230
(dp4231
g3602
(lp4232
g3604
(g3605
tp4233
Rp4234
asg3608
I1
sg3609
(lp4235
g3623
asbI1
(tg682
I00
S'n\xad\xc1Y\xc9<rA'
p4236
tp4237
bag3
(g4
(I0
tp4238
g6
tp4239
Rp4240
(g9
(g3598
g11
Ntp4241
Rp4242
(dp4243
g3602
(lp4244
g3604
(g3605
tp4245
Rp4246
asg3608
I1
sg3609
(lp4247
g3623
asbI1
(tg695
I00
S'R\xd9"\xdfe\x1b\xcb@'
p4248
tp4249
bag3
(g4
(I0
tp4250
g6
tp4251
Rp4252
(g9
(g3598
g11
Ntp4253
Rp4254
(dp4255
g3602
(lp4256
g3604
(g3605
tp4257
Rp4258
asg3608
I1
sg3609
(lp4259
g3623
asbI1
(tg708
I00
S'\xd8\xd80\x97\xb2\\\x82A'
p4260
tp4261
bag3
(g4
(I0
tp4262
g6
tp4263
Rp4264
(g9
(g3598
g11
Ntp4265
Rp4266
(dp4267
g3602
(lp4268
g3604
(g3605
tp4269
Rp4270
asg3608
I1
sg3609
(lp4271
g3623
asbI1
(tg721
I00
S'\xd0\xc6\x83u\xfaD\x8fA'
p4272
tp4273
bag3
(g4
(I0
tp4274
g6
tp4275
Rp4276
(g9
(g3598
g11
Ntp4277
Rp4278
(dp4279
g3602
(lp4280
g3604
(g3605
tp4281
Rp4282
asg3608
I1
sg3609
(lp4283
g3623
asbI1
(tg734
I00
S'*;\xd8-C\xc3\xd3A'
p4284
tp4285
bag3
(g4
(I0
tp4286
g6
tp4287
Rp4288
(g9
(g3598
g11
Ntp4289
Rp4290
(dp4291
g3602
(lp4292
g3604
(g3605
tp4293
Rp4294
asg3608
I1
sg3609
(lp4295
g3623
asbI1
(tg747
I00
S'\xad\xb3\x8eu\x9d\xa9|A'
p4296
tp4297
bag3
(g4
(I0
tp4298
g6
tp4299
Rp4300
(g9
(g3598
g11
Ntp4301
Rp4302
(dp4303
g3602
(lp4304
g3604
(g3605
tp4305
Rp4306
asg3608
I1
sg3609
(lp4307
g3623
asbI1
(tg760
I00
S'\x88\x06-\xb2?\x17\xf4@'
p4308
tp4309
bag3
(g4
(I0
tp4310
g6
tp4311
Rp4312
(g9
(g3598
g11
Ntp4313
Rp4314
(dp4315
g3602
(lp4316
g3604
(g3605
tp4317
Rp4318
asg3608
I1
sg3609
(lp4319
g3623
asbI1
(tg773
I00
S'\xbc\xba\x7fx\xe7\xbb\x80A'
p4320
tp4321
bag3
(g4
(I0
tp4322
g6
tp4323
Rp4324
(g9
(g3598
g11
Ntp4325
Rp4326
(dp4327
g3602
(lp4328
g3604
(g3605
tp4329
Rp4330
asg3608
I1
sg3609
(lp4331
g3623
asbI1
(tg786
I00
S'\xd0f9\xc7\xef\x0c\xf8A'
p4332
tp4333
bag3
(g4
(I0
tp4334
g6
tp4335
Rp4336
(g9
(g3598
g11
Ntp4337
Rp4338
(dp4339
g3602
(lp4340
g3604
(g3605
tp4341
Rp4342
asg3608
I1
sg3609
(lp4343
g3623
asbI1
(tg799
I00
S'\x14\xc2\xb3\x885d{A'
p4344
tp4345
bag3
(g4
(I0
tp4346
g6
tp4347
Rp4348
(g9
(g3598
g11
Ntp4349
Rp4350
(dp4351
g3602
(lp4352
g3604
(g3605
tp4353
Rp4354
asg3608
I1
sg3609
(lp4355
g3623
asbI1
(tg812
I00
S'*v\xae\xa2\x11h\xe8@'
p4356
tp4357
bag3
(g4
(I0
tp4358
g6
tp4359
Rp4360
(g9
(g3598
g11
Ntp4361
Rp4362
(dp4363
g3602
(lp4364
g3604
(g3605
tp4365
Rp4366
asg3608
I1
sg3609
(lp4367
g3623
asbI1
(tg825
I00
S'\x16\xdco\xe4\xcf\x12\xf5A'
p4368
tp4369
bag3
(g4
(I0
tp4370
g6
tp4371
Rp4372
(g9
(g3598
g11
Ntp4373
Rp4374
(dp4375
g3602
(lp4376
g3604
(g3605
tp4377
Rp4378
asg3608
I1
sg3609
(lp4379
g3623
asbI1
(tg838
I00
S'\x93\x98 \x8f\xae\xaf\xe6A'
p4380
tp4381
bag3
(g4
(I0
tp4382
g6
tp4383
Rp4384
(g9
(g3598
g11
Ntp4385
Rp4386
(dp4387
g3602
(lp4388
g3604
(g3605
tp4389
Rp4390
asg3608
I1
sg3609
(lp4391
g3623
asbI1
(tg851
I00
S'P\xaf~\t\x8cT)A'
p4392
tp4393
bag3
(g4
(I0
tp4394
g6
tp4395
Rp4396
(g9
(g3598
g11
Ntp4397
Rp4398
(dp4399
g3602
(lp4400
g3604
(g3605
tp4401
Rp4402
asg3608
I1
sg3609
(lp4403
g3623
asbI1
(tg864
I00
S'\x9d@T(\xd5\xae\x0cB'
p4404
tp4405
bag3
(g4
(I0
tp4406
g6
tp4407
Rp4408
(g9
(g3598
g11
Ntp4409
Rp4410
(dp4411
g3602
(lp4412
g3604
(g3605
tp4413
Rp4414
asg3608
I1
sg3609
(lp4415
g3623
asbI1
(tg877
I00
S'\t\xca<M2t\xa8A'
p4416
tp4417
bag3
(g4
(I0
tp4418
g6
tp4419
Rp4420
(g9
(g3598
g11
Ntp4421
Rp4422
(dp4423
g3602
(lp4424
g3604
(g3605
tp4425
Rp4426
asg3608
I1
sg3609
(lp4427
g3623
asbI1
(tg890
I00
S'/\xdep\xca\x87\xf4\xf9@'
p4428
tp4429
bag3
(g4
(I0
tp4430
g6
tp4431
Rp4432
(g9
(g3598
g11
Ntp4433
Rp4434
(dp4435
g3602
(lp4436
g3604
(g3605
tp4437
Rp4438
asg3608
I1
sg3609
(lp4439
g3623
asbI1
(tg903
I00
S'p=9\x1b\xbeb\xe7A'
p4440
tp4441
bag3
(g4
(I0
tp4442
g6
tp4443
Rp4444
(g9
(g3598
g11
Ntp4445
Rp4446
(dp4447
g3602
(lp4448
g3604
(g3605
tp4449
Rp4450
asg3608
I1
sg3609
(lp4451
g3623
asbI1
(tg916
I00
S'0\xe0\xb7\x84\xc4"\x0bB'
p4452
tp4453
bag3
(g4
(I0
tp4454
g6
tp4455
Rp4456
(g9
(g3598
g11
Ntp4457
Rp4458
(dp4459
g3602
(lp4460
g3604
(g3605
tp4461
Rp4462
asg3608
I1
sg3609
(lp4463
g3623
asbI1
(tg929
I00
S'XU\xe3i9\xc0\x13B'
p4464
tp4465
bag3
(g4
(I0
tp4466
g6
tp4467
Rp4468
(g9
(g3598
g11
Ntp4469
Rp4470
(dp4471
g3602
(lp4472
g3604
(g3605
tp4473
Rp4474
asg3608
I1
sg3609
(lp4475
g3623
asbI1
(tg942
I00
S'\xa8\xf1\xd9\xdeWO\x00B'
p4476
tp4477
bag3
(g4
(I0
tp4478
g6
tp4479
Rp4480
(g9
(g3598
g11
Ntp4481
Rp4482
(dp4483
g3602
(lp4484
g3604
(g3605
tp4485
Rp4486
asg3608
I1
sg3609
(lp4487
g3623
asbI1
(tg955
I00
S'\r\xe6\x0e\xdfq\x85\x1bB'
p4488
tp4489
bag3
(g4
(I0
tp4490
g6
tp4491
Rp4492
(g9
(g3598
g11
Ntp4493
Rp4494
(dp4495
g3602
(lp4496
g3604
(g3605
tp4497
Rp4498
asg3608
I1
sg3609
(lp4499
g3623
asbI1
(tg968
I00
S'^`\xc5[%\x1f\x14B'
p4500
tp4501
bag3
(g4
(I0
tp4502
g6
tp4503
Rp4504
(g9
(g3598
g11
Ntp4505
Rp4506
(dp4507
g3602
(lp4508
g3604
(g3605
tp4509
Rp4510
asg3608
I1
sg3609
(lp4511
g3623
asbI1
(tg981
I00
S'\xda\xeb\r2\xe1e\xa0A'
p4512
tp4513
bag3
(g4
(I0
tp4514
g6
tp4515
Rp4516
(g9
(g3598
g11
Ntp4517
Rp4518
(dp4519
g3602
(lp4520
g3604
(g3605
tp4521
Rp4522
asg3608
I1
sg3609
(lp4523
g3623
asbI1
(tg994
I00
S'\x8cyi\xc5e4\xd7@'
p4524
tp4525
bag3
(g4
(I0
tp4526
g6
tp4527
Rp4528
(g9
(g3598
g11
Ntp4529
Rp4530
(dp4531
g3602
(lp4532
g3604
(g3605
tp4533
Rp4534
asg3608
I1
sg3609
(lp4535
g3623
asbI1
(tg1007
I00
S'f\xef\xa1N#\xec\x94A'
p4536
tp4537
bag3
(g4
(I0
tp4538
g6
tp4539
Rp4540
(g9
(g3598
g11
Ntp4541
Rp4542
(dp4543
g3602
(lp4544
g3604
(g3605
tp4545
Rp4546
asg3608
I1
sg3609
(lp4547
g3623
asbI1
(tg1020
I00
S'\xc6\xb5\xd6Ud\x18\xdf@'
p4548
tp4549
bag3
(g4
(I0
tp4550
g6
tp4551
Rp4552
(g9
(g3598
g11
Ntp4553
Rp4554
(dp4555
g3602
(lp4556
g3604
(g3605
tp4557
Rp4558
asg3608
I1
sg3609
(lp4559
g3623
asbI1
(tg1033
I00
S'h\x93/\xca g\x0cA'
p4560
tp4561
bag3
(g4
(I0
tp4562
g6
tp4563
Rp4564
(g9
(g3598
g11
Ntp4565
Rp4566
(dp4567
g3602
(lp4568
g3604
(g3605
tp4569
Rp4570
asg3608
I1
sg3609
(lp4571
g3623
asbI1
(tg1046
I00
S'\x8cT\xe1\x0f\xa2\n\x15A'
p4572
tp4573
bag3
(g4
(I0
tp4574
g6
tp4575
Rp4576
(g9
(g3598
g11
Ntp4577
Rp4578
(dp4579
g3602
(lp4580
g3604
(g3605
tp4581
Rp4582
asg3608
I1
sg3609
(lp4583
g3623
asbI1
(tg1059
I00
S'\x02?\xf1\xa3_\xa9 A'
p4584
tp4585
bag3
(g4
(I0
tp4586
g6
tp4587
Rp4588
(g9
(g3598
g11
Ntp4589
Rp4590
(dp4591
g3602
(lp4592
g3604
(g3605
tp4593
Rp4594
asg3608
I1
sg3609
(lp4595
g3623
asbI1
(tg1072
I00
S'\xda\xfb\xc6G\xbb\xdf\x04A'
p4596
tp4597
bag3
(g4
(I0
tp4598
g6
tp4599
Rp4600
(g9
(g3598
g11
Ntp4601
Rp4602
(dp4603
g3602
(lp4604
g3604
(g3605
tp4605
Rp4606
asg3608
I1
sg3609
(lp4607
g3623
asbI1
(tg1085
I00
S'Dk\x17\x9f\x18p\x03B'
p4608
tp4609
bag3
(g4
(I0
tp4610
g6
tp4611
Rp4612
(g9
(g3598
g11
Ntp4613
Rp4614
(dp4615
g3602
(lp4616
g3604
(g3605
tp4617
Rp4618
asg3608
I1
sg3609
(lp4619
g3623
asbI1
(tg1098
I00
S',\xb1\xd5\x03\xc2D\x17A'
p4620
tp4621
bag3
(g4
(I0
tp4622
g6
tp4623
Rp4624
(g9
(g3598
g11
Ntp4625
Rp4626
(dp4627
g3602
(lp4628
g3604
(g3605
tp4629
Rp4630
asg3608
I1
sg3609
(lp4631
g3623
asbI1
(tg1111
I00
S'\xcfok\xb9\x81\x94\xd7A'
p4632
tp4633
bag3
(g4
(I0
tp4634
g6
tp4635
Rp4636
(g9
(g3598
g11
Ntp4637
Rp4638
(dp4639
g3602
(lp4640
g3604
(g3605
tp4641
Rp4642
asg3608
I1
sg3609
(lp4643
g3623
asbI1
(tg1124
I00
S'wS\xee\x10\xac\x7f\xedA'
p4644
tp4645
bag3
(g4
(I0
tp4646
g6
tp4647
Rp4648
(g9
(g3598
g11
Ntp4649
Rp4650
(dp4651
g3602
(lp4652
g3604
(g3605
tp4653
Rp4654
asg3608
I1
sg3609
(lp4655
g3623
asbI1
(tg1137
I00
S'\x10\xf3\x9d\xcd\x8c\xa6"A'
p4656
tp4657
bag3
(g4
(I0
tp4658
g6
tp4659
Rp4660
(g9
(g3598
g11
Ntp4661
Rp4662
(dp4663
g3602
(lp4664
g3604
(g3605
tp4665
Rp4666
asg3608
I1
sg3609
(lp4667
g3623
asbI1
(tg1150
I00
S'\xb9~\xebz\xcf\xc4\xdb@'
p4668
tp4669
bag3
(g4
(I0
tp4670
g6
tp4671
Rp4672
(g9
(g3598
g11
Ntp4673
Rp4674
(dp4675
g3602
(lp4676
g3604
(g3605
tp4677
Rp4678
asg3608
I1
sg3609
(lp4679
g3623
asbI1
(tg1163
I00
S'\x98\xdd\xe1\xf2\x06\x8a}A'
p4680
tp4681
bag3
(g4
(I0
tp4682
g6
tp4683
Rp4684
(g9
(g3598
g11
Ntp4685
Rp4686
(dp4687
g3602
(lp4688
g3604
(g3605
tp4689
Rp4690
asg3608
I1
sg3609
(lp4691
g3623
asbI1
(tg1176
I00
S'\xc7\x1e\xdeV \xc3\x96A'
p4692
tp4693
bag3
(g4
(I0
tp4694
g6
tp4695
Rp4696
(g9
(g3598
g11
Ntp4697
Rp4698
(dp4699
g3602
(lp4700
g3604
(g3605
tp4701
Rp4702
asg3608
I1
sg3609
(lp4703
g3623
asbI1
(tg1189
I00
S'\xecDL\xf9n\xec\x9aA'
p4704
tp4705
bag3
(g4
(I0
tp4706
g6
tp4707
Rp4708
(g9
(g3598
g11
Ntp4709
Rp4710
(dp4711
g3602
(lp4712
g3604
(g3605
tp4713
Rp4714
asg3608
I1
sg3609
(lp4715
g3623
asbI1
(tg1202
I00
S'\xa7\x8a\x04+\x9fV\x95A'
p4716
tp4717
bag3
(g4
(I0
tp4718
g6
tp4719
Rp4720
(g9
(g3598
g11
Ntp4721
Rp4722
(dp4723
g3602
(lp4724
g3604
(g3605
tp4725
Rp4726
asg3608
I1
sg3609
(lp4727
g3623
asbI1
(tg1215
I00
S'j\x9d\x13 r\x90\x9cA'
p4728
tp4729
bag3
(g4
(I0
tp4730
g6
tp4731
Rp4732
(g9
(g3598
g11
Ntp4733
Rp4734
(dp4735
g3602
(lp4736
g3604
(g3605
tp4737
Rp4738
asg3608
I1
sg3609
(lp4739
g3623
asbI1
(tg1228
I00
S'8\xa3\xdb4O\x8e\xf1A'
p4740
tp4741
basS'zstar3'
p4742
(lp4743
g3
(g4
(I0
tp4744
g6
tp4745
Rp4746
(g13
I1
(tg19
I00
S'\r\x06\x7f\xe6k\x11P?'
p4747
tp4748
bag3
(g4
(I0
tp4749
g6
tp4750
Rp4751
(g28
I1
(tg32
I00
S'|\x94\xe7\xa5\xf5\x1ab?'
p4752
tp4753
bag3
(g4
(I0
tp4754
g6
tp4755
Rp4756
(g41
I1
(tg45
I00
S'm\x99\x1a"\x96\xa8\'?'
p4757
tp4758
bag3
(g4
(I0
tp4759
g6
tp4760
Rp4761
(g54
I1
(tg58
I00
S'|\xaez\xd3,@\x99?'
p4762
tp4763
bag3
(g4
(I0
tp4764
g6
tp4765
Rp4766
(g67
I1
(tg71
I00
S'\x00Q\xc0\xa3\x9dq2?'
p4767
tp4768
bag3
(g4
(I0
tp4769
g6
tp4770
Rp4771
(g80
I1
(tg84
I00
S'\xd7\xab\xd0\xb9\xa9\xa9*?'
p4772
tp4773
bag3
(g4
(I0
tp4774
g6
tp4775
Rp4776
(g93
I1
(tg97
I00
S'i\x99\xdb\x08\xf8#s?'
p4777
tp4778
bag3
(g4
(I0
tp4779
g6
tp4780
Rp4781
(g106
I1
(tg110
I00
S"'\x0e\xab\xa9\xa2\x9f4?"
p4782
tp4783
bag3
(g4
(I0
tp4784
g6
tp4785
Rp4786
(g119
I1
(tg123
I00
S'kG\x84\x14?R7?'
p4787
tp4788
bag3
(g4
(I0
tp4789
g6
tp4790
Rp4791
(g132
I1
(tg136
I00
S'\xb5\x17\xbe\xc0\xd9\xc80?'
p4792
tp4793
bag3
(g4
(I0
tp4794
g6
tp4795
Rp4796
(g145
I1
(tg149
I00
S'\x9a\x9c\xe2\x8d\xdc\x89X?'
p4797
tp4798
bag3
(g4
(I0
tp4799
g6
tp4800
Rp4801
(g158
I1
(tg162
I00
S'm\xed\xf2\xd0\xbd\xf03?'
p4802
tp4803
bag3
(g4
(I0
tp4804
g6
tp4805
Rp4806
(g171
I1
(tg175
I00
S'{\x1d\xa0\xdbY\x8cY?'
p4807
tp4808
bag3
(g4
(I0
tp4809
g6
tp4810
Rp4811
(g184
I1
(tg188
I00
S'r\xc0\xb1y\xa0\xc0X?'
p4812
tp4813
bag3
(g4
(I0
tp4814
g6
tp4815
Rp4816
(g197
I1
(tg201
I00
S'\xbdn\xcb\xd4\xb2\xdeD?'
p4817
tp4818
bag3
(g4
(I0
tp4819
g6
tp4820
Rp4821
(g210
I1
(tg214
I00
S'\xa4\x108p\x9e_\x97?'
p4822
tp4823
bag3
(g4
(I0
tp4824
g6
tp4825
Rp4826
(g223
I1
(tg227
I00
S'{\xb3\xebU\x9f\x074?'
p4827
tp4828
bag3
(g4
(I0
tp4829
g6
tp4830
Rp4831
(g236
I1
(tg240
I00
S')V\xf8{\x1a?.?'
p4832
tp4833
bag3
(g4
(I0
tp4834
g6
tp4835
Rp4836
(g249
I1
(tg253
I00
S'k\xb5\xcc\x948d2?'
p4837
tp4838
bag3
(g4
(I0
tp4839
g6
tp4840
Rp4841
(g262
I1
(tg266
I00
S'5\xa3c\xce\xa4S2?'
p4842
tp4843
bag3
(g4
(I0
tp4844
g6
tp4845
Rp4846
(g275
I1
(tg279
I00
S'\xc2t\xe7\xed\xfe,\x9a?'
p4847
tp4848
bag3
(g4
(I0
tp4849
g6
tp4850
Rp4851
(g288
I1
(tg292
I00
S"\x05'\xc73\x88c3?"
p4852
tp4853
bag3
(g4
(I0
tp4854
g6
tp4855
Rp4856
(g301
I1
(tg305
I00
S'*\xd49\xb1\xa8\xfdx?'
p4857
tp4858
bag3
(g4
(I0
tp4859
g6
tp4860
Rp4861
(g314
I1
(tg318
I00
S'\x92\xeeu\x01J\xa82?'
p4862
tp4863
bag3
(g4
(I0
tp4864
g6
tp4865
Rp4866
(g327
I1
(tg331
I00
S'\xf3\xc8\x90gE\xbcZ?'
p4867
tp4868
bag3
(g4
(I0
tp4869
g6
tp4870
Rp4871
(g340
I1
(tg344
I00
S'\xa2\x08iA\x12\x1f5?'
p4872
tp4873
bag3
(g4
(I0
tp4874
g6
tp4875
Rp4876
(g353
I1
(tg357
I00
S'e\xbd\xaa\x86\x86Z5?'
p4877
tp4878
bag3
(g4
(I0
tp4879
g6
tp4880
Rp4881
(g366
I1
(tg370
I00
S'\xee\x81\xf2K\x96\xd30?'
p4882
tp4883
bag3
(g4
(I0
tp4884
g6
tp4885
Rp4886
(g379
I1
(tg383
I00
S'm\x93-\x17\xcd\xbas?'
p4887
tp4888
bag3
(g4
(I0
tp4889
g6
tp4890
Rp4891
(g392
I1
(tg396
I00
S"\n'O\xc9\xa5\xb3p?"
p4892
tp4893
bag3
(g4
(I0
tp4894
g6
tp4895
Rp4896
(g405
I1
(tg409
I00
S'\xbfqf\x01><\x7f?'
p4897
tp4898
bag3
(g4
(I0
tp4899
g6
tp4900
Rp4901
(g418
I1
(tg422
I00
S'\x06\x10l\xad\xc0Eb?'
p4902
tp4903
bag3
(g4
(I0
tp4904
g6
tp4905
Rp4906
(g431
I1
(tg435
I00
S'\x1e\xce\xd1\x06}1\x8f?'
p4907
tp4908
bag3
(g4
(I0
tp4909
g6
tp4910
Rp4911
(g444
I1
(tg448
I00
S'\x96~\xb8]\x0f\xf0C?'
p4912
tp4913
bag3
(g4
(I0
tp4914
g6
tp4915
Rp4916
(g457
I1
(tg461
I00
S'\xd6\xb1\xf7\xe1@\xa23?'
p4917
tp4918
bag3
(g4
(I0
tp4919
g6
tp4920
Rp4921
(g470
I1
(tg474
I00
S'9P\xe8,\x7f\x08\x9a?'
p4922
tp4923
bag3
(g4
(I0
tp4924
g6
tp4925
Rp4926
(g483
I1
(tg487
I00
S'\x8aWl\xa0e`@?'
p4927
tp4928
bag3
(g4
(I0
tp4929
g6
tp4930
Rp4931
(g496
I1
(tg500
I00
S'a[W\xa6+3=?'
p4932
tp4933
bag3
(g4
(I0
tp4934
g6
tp4935
Rp4936
(g509
I1
(tg513
I00
S']\x0c\x02\x15\xf0<D?'
p4937
tp4938
bag3
(g4
(I0
tp4939
g6
tp4940
Rp4941
(g522
I1
(tg526
I00
S'm:3j\xe6=~?'
p4942
tp4943
bag3
(g4
(I0
tp4944
g6
tp4945
Rp4946
(g535
I1
(tg539
I00
S'\xcc\xd4\xa5\x8c|\xcc@?'
p4947
tp4948
bag3
(g4
(I0
tp4949
g6
tp4950
Rp4951
(g548
I1
(tg552
I00
S'\xc1\xfcg\x0fx\x88k?'
p4952
tp4953
bag3
(g4
(I0
tp4954
g6
tp4955
Rp4956
(g561
I1
(tg565
I00
S'\xf7\x1e\xd6\xcf\xb4RP?'
p4957
tp4958
bag3
(g4
(I0
tp4959
g6
tp4960
Rp4961
(g574
I1
(tg578
I00
S'\xe9\xc5^\xf5Qs;?'
p4962
tp4963
bag3
(g4
(I0
tp4964
g6
tp4965
Rp4966
(g587
I1
(tg591
I00
S'\nCrU\xc1\x87q?'
p4967
tp4968
bag3
(g4
(I0
tp4969
g6
tp4970
Rp4971
(g600
I1
(tg604
I00
S'\x89\x0b\x0f\x7f9Pc?'
p4972
tp4973
bag3
(g4
(I0
tp4974
g6
tp4975
Rp4976
(g613
I1
(tg617
I00
S'\xadI\xce]G\xb7j?'
p4977
tp4978
bag3
(g4
(I0
tp4979
g6
tp4980
Rp4981
(g626
I1
(tg630
I00
S'\xb1A\xa2z@Q\x95?'
p4982
tp4983
bag3
(g4
(I0
tp4984
g6
tp4985
Rp4986
(g639
I1
(tg643
I00
S'H\x98\xab~\xaeHA?'
p4987
tp4988
bag3
(g4
(I0
tp4989
g6
tp4990
Rp4991
(g652
I1
(tg656
I00
S'\xca\xcdp\xe1\xcf\xeb\x87?'
p4992
tp4993
bag3
(g4
(I0
tp4994
g6
tp4995
Rp4996
(g665
I1
(tg669
I00
S'4PN\x95z\x1a7?'
p4997
tp4998
bag3
(g4
(I0
tp4999
g6
tp5000
Rp5001
(g678
I1
(tg682
I00
S']\xef\xdd\x12/\xa94?'
p5002
tp5003
bag3
(g4
(I0
tp5004
g6
tp5005
Rp5006
(g691
I1
(tg695
I00
S'-C\x1c\xeb\xe26\x1a?'
p5007
tp5008
bag3
(g4
(I0
tp5009
g6
tp5010
Rp5011
(g704
I1
(tg708
I00
S'6\x13waV\xdd=?'
p5012
tp5013
bag3
(g4
(I0
tp5014
g6
tp5015
Rp5016
(g717
I1
(tg721
I00
S'\x15S|\x96)kC?'
p5017
tp5018
bag3
(g4
(I0
tp5019
g6
tp5020
Rp5021
(g730
I1
(tg734
I00
S'e]V&D\xd6m?'
p5022
tp5023
bag3
(g4
(I0
tp5024
g6
tp5025
Rp5026
(g743
I1
(tg747
I00
S'\x97Q=\xc7\xf7!F?'
p5027
tp5028
bag3
(g4
(I0
tp5029
g6
tp5030
Rp5031
(g756
I1
(tg760
I00
S'\x1d\x02\xfc\xbc\x0b\x8f*?'
p5032
tp5033
bag3
(g4
(I0
tp5034
g6
tp5035
Rp5036
(g769
I1
(tg773
I00
S'\x83Q\xa2\xbb\x81\x84H?'
p5037
tp5038
bag3
(g4
(I0
tp5039
g6
tp5040
Rp5041
(g782
I1
(tg786
I00
S'\xbeu:\xe0.\xeb\x89?'
p5042
tp5043
bag3
(g4
(I0
tp5044
g6
tp5045
Rp5046
(g795
I1
(tg799
I00
S'\xddT\xbf\x88 \x81F?'
p5047
tp5048
bag3
(g4
(I0
tp5049
g6
tp5050
Rp5051
(g808
I1
(tg812
I00
S'D\xf7&\xce\xee\x92\x1a?'
p5052
tp5053
bag3
(g4
(I0
tp5054
g6
tp5055
Rp5056
(g821
I1
(tg825
I00
S'^\x8e.\x7f\xec\xcd\x87?'
p5057
tp5058
bag3
(g4
(I0
tp5059
g6
tp5060
Rp5061
(g834
I1
(tg838
I00
S'\xdd,\x18\xc8\x87\xe0k?'
p5062
tp5063
bag3
(g4
(I0
tp5064
g6
tp5065
Rp5066
(g847
I1
(tg851
I00
S'\xd6\xa9l8\xcb\xc31?'
p5067
tp5068
bag3
(g4
(I0
tp5069
g6
tp5070
Rp5071
(g860
I1
(tg864
I00
S'\x8c3\x1fLz\x03\x92?'
p5072
tp5073
bag3
(g4
(I0
tp5074
g6
tp5075
Rp5076
(g873
I1
(tg877
I00
S'*\xd3\xe9\xdd\xf9\xeef?'
p5077
tp5078
bag3
(g4
(I0
tp5079
g6
tp5080
Rp5081
(g886
I1
(tg890
I00
S'\xce\x1c\x8b0\x17Y/?'
p5082
tp5083
bag3
(g4
(I0
tp5084
g6
tp5085
Rp5086
(g899
I1
(tg903
I00
S'%\x83\x91\x19\xd7\xc0s?'
p5087
tp5088
bag3
(g4
(I0
tp5089
g6
tp5090
Rp5091
(g912
I1
(tg916
I00
S'\xf4\r\xbe#\x05\xfb\x90?'
p5092
tp5093
bag3
(g4
(I0
tp5094
g6
tp5095
Rp5096
(g925
I1
(tg929
I00
S'\xcf\xa7?\x85\x17\xff\x96?'
p5097
tp5098
bag3
(g4
(I0
tp5099
g6
tp5100
Rp5101
(g938
I1
(tg942
I00
S'X\x12\xf7`\xa1\x87\x8e?'
p5102
tp5103
bag3
(g4
(I0
tp5104
g6
tp5105
Rp5106
(g951
I1
(tg955
I00
S'\x982\xa1\xacx\x95\x98?'
p5107
tp5108
bag3
(g4
(I0
tp5109
g6
tp5110
Rp5111
(g964
I1
(tg968
I00
S'\x08\xd2\xa4W\x17\xdd\x95?'
p5112
tp5113
bag3
(g4
(I0
tp5114
g6
tp5115
Rp5116
(g977
I1
(tg981
I00
S'\xf3\xed\xa0<\x04\x0fT?'
p5117
tp5118
bag3
(g4
(I0
tp5119
g6
tp5120
Rp5121
(g990
I1
(tg994
I00
S'\x8b\x88-\xe9\x93\x98\x1b?'
p5122
tp5123
bag3
(g4
(I0
tp5124
g6
tp5125
Rp5126
(g1003
I1
(tg1007
I00
S'@\x90\x9b5\xdd\x9aH?'
p5127
tp5128
bag3
(g4
(I0
tp5129
g6
tp5130
Rp5131
(g1016
I1
(tg1020
I00
S'D\xaf\xb2\xbc\xd3\x06\x1b?'
p5132
tp5133
bag3
(g4
(I0
tp5134
g6
tp5135
Rp5136
(g1029
I1
(tg1033
I00
S'\xe9\x97\xe0\xbd\t\xe1"?'
p5137
tp5138
bag3
(g4
(I0
tp5139
g6
tp5140
Rp5141
(g1042
I1
(tg1046
I00
S'\xa1\xddld\x9c\xc2$?'
p5142
tp5143
bag3
(g4
(I0
tp5144
g6
tp5145
Rp5146
(g1055
I1
(tg1059
I00
S'\xf8\x82\xb7\xf6\xfa\x080?'
p5147
tp5148
bag3
(g4
(I0
tp5149
g6
tp5150
Rp5151
(g1068
I1
(tg1072
I00
S'\x04\x92\xfajj\xe2\x1b?'
p5152
tp5153
bag3
(g4
(I0
tp5154
g6
tp5155
Rp5156
(g1081
I1
(tg1085
I00
S'9}\xd8\x9c\xf6\x95\x8c?'
p5157
tp5158
bag3
(g4
(I0
tp5159
g6
tp5160
Rp5161
(g1094
I1
(tg1098
I00
S'lV}\x92\x86\xf0)?'
p5162
tp5163
bag3
(g4
(I0
tp5164
g6
tp5165
Rp5166
(g1107
I1
(tg1111
I00
S'2\xff)*+\x05q?'
p5167
tp5168
bag3
(g4
(I0
tp5169
g6
tp5170
Rp5171
(g1120
I1
(tg1124
I00
S'K\xc9:0\xc7\xfc\x81?'
p5172
tp5173
bag3
(g4
(I0
tp5174
g6
tp5175
Rp5176
(g1133
I1
(tg1137
I00
S'\x8f\x8bA\xd6\xee\xf1,?'
p5177
tp5178
bag3
(g4
(I0
tp5179
g6
tp5180
Rp5181
(g1146
I1
(tg1150
I00
S',C\x1c\xeb\xe26\x1a?'
p5182
tp5183
bag3
(g4
(I0
tp5184
g6
tp5185
Rp5186
(g1159
I1
(tg1163
I00
S'pz\x12\xd8v\xc2F?'
p5187
tp5188
bag3
(g4
(I0
tp5189
g6
tp5190
Rp5191
(g1172
I1
(tg1176
I00
S'/ya\x83\x98\xf7F?'
p5192
tp5193
bag3
(g4
(I0
tp5194
g6
tp5195
Rp5196
(g1185
I1
(tg1189
I00
S'X\xd6\xd6\xc9\xe5TR?'
p5197
tp5198
bag3
(g4
(I0
tp5199
g6
tp5200
Rp5201
(g1198
I1
(tg1202
I00
S'\xb1\xd76\xb2\x1f\xfaQ?'
p5202
tp5203
bag3
(g4
(I0
tp5204
g6
tp5205
Rp5206
(g1211
I1
(tg1215
I00
S'l\xf4>\xdfm\x0eR?'
p5207
tp5208
bag3
(g4
(I0
tp5209
g6
tp5210
Rp5211
(g1224
I1
(tg1228
I00
S'B\x81\x85\xf7=:\x80?'
p5212
tp5213
basS'zstar4'
p5214
(lp5215
g3
(g4
(I0
tp5216
g6
tp5217
Rp5218
(g13
I1
(tg19
I00
S'\xd8\x05a\xe3\xb5\x96Q?'
p5219
tp5220
bag3
(g4
(I0
tp5221
g6
tp5222
Rp5223
(g28
I1
(tg32
I00
S'\x9f\xea\x8b\xa9\xae\xabb?'
p5224
tp5225
bag3
(g4
(I0
tp5226
g6
tp5227
Rp5228
(g41
I1
(tg45
I00
S"\xa0Sx\xbbH\xa1'?"
p5229
tp5230
bag3
(g4
(I0
tp5231
g6
tp5232
Rp5233
(g54
I1
(tg58
I00
S'\x8b\xac\xa24)^\x99?'
p5234
tp5235
bag3
(g4
(I0
tp5236
g6
tp5237
Rp5238
(g67
I1
(tg71
I00
S'\xb4\xaa\x10z\xab\xcc1?'
p5239
tp5240
bag3
(g4
(I0
tp5241
g6
tp5242
Rp5243
(g80
I1
(tg84
I00
S'v\x8bU\xe6yx(?'
p5244
tp5245
bag3
(g4
(I0
tp5246
g6
tp5247
Rp5248
(g93
I1
(tg97
I00
S'\xda&6\xda\x97\xc2s?'
p5249
tp5250
bag3
(g4
(I0
tp5251
g6
tp5252
Rp5253
(g106
I1
(tg110
I00
S'\xa5:\t\xdc094?'
p5254
tp5255
bag3
(g4
(I0
tp5256
g6
tp5257
Rp5258
(g119
I1
(tg123
I00
S'\xd1\x90\x1b\x15\x9ci6?'
p5259
tp5260
bag3
(g4
(I0
tp5261
g6
tp5262
Rp5263
(g132
I1
(tg136
I00
S'\xb8\xde\\\xb3\x81\xd60?'
p5264
tp5265
bag3
(g4
(I0
tp5266
g6
tp5267
Rp5268
(g145
I1
(tg149
I00
S'\x93\x88\x0c\tl\xfcX?'
p5269
tp5270
bag3
(g4
(I0
tp5271
g6
tp5272
Rp5273
(g158
I1
(tg162
I00
S'\xf9\x00?w\xd4\xf82?'
p5274
tp5275
bag3
(g4
(I0
tp5276
g6
tp5277
Rp5278
(g171
I1
(tg175
I00
S'\x10\xa3Q\xc6\xf0\xaf[?'
p5279
tp5280
bag3
(g4
(I0
tp5281
g6
tp5282
Rp5283
(g184
I1
(tg188
I00
S'\x8d(d\xb2\x03"Z?'
p5284
tp5285
bag3
(g4
(I0
tp5286
g6
tp5287
Rp5288
(g197
I1
(tg201
I00
S')\x8fE\xfby\x7f@?'
p5289
tp5290
bag3
(g4
(I0
tp5291
g6
tp5292
Rp5293
(g210
I1
(tg214
I00
S'\x97\x9e;\x1c\x03\xb9\x97?'
p5294
tp5295
bag3
(g4
(I0
tp5296
g6
tp5297
Rp5298
(g223
I1
(tg227
I00
S'\xe2o\xeb\x92J\xfb3?'
p5299
tp5300
bag3
(g4
(I0
tp5301
g6
tp5302
Rp5303
(g236
I1
(tg240
I00
S'\xa7\xff\x89\x08\x07+.?'
p5304
tp5305
bag3
(g4
(I0
tp5306
g6
tp5307
Rp5308
(g249
I1
(tg253
I00
S"\xd8-SL'R2?"
p5309
tp5310
bag3
(g4
(I0
tp5311
g6
tp5312
Rp5313
(g262
I1
(tg266
I00
S')\xb5\xdc\xca\x02\x1a2?'
p5314
tp5315
bag3
(g4
(I0
tp5316
g6
tp5317
Rp5318
(g275
I1
(tg279
I00
S'\x95 \t`\xc7)\x9a?'
p5319
tp5320
bag3
(g4
(I0
tp5321
g6
tp5322
Rp5323
(g288
I1
(tg292
I00
S':\xbesy/43?'
p5324
tp5325
bag3
(g4
(I0
tp5326
g6
tp5327
Rp5328
(g301
I1
(tg305
I00
S'?\xcai<\xe9\xf9z?'
p5329
tp5330
bag3
(g4
(I0
tp5331
g6
tp5332
Rp5333
(g314
I1
(tg318
I00
S'\x866\xe0p\xa922?'
p5334
tp5335
bag3
(g4
(I0
tp5336
g6
tp5337
Rp5338
(g327
I1
(tg331
I00
S'e\xfa\x9d\xeaO\x16^?'
p5339
tp5340
bag3
(g4
(I0
tp5341
g6
tp5342
Rp5343
(g340
I1
(tg344
I00
S'\x9b\xd4JY\xf5\x115?'
p5344
tp5345
bag3
(g4
(I0
tp5346
g6
tp5347
Rp5348
(g353
I1
(tg357
I00
S'\xac\xc9\x89\xb3\xb1O5?'
p5349
tp5350
bag3
(g4
(I0
tp5351
g6
tp5352
Rp5353
(g366
I1
(tg370
I00
S'\x07\x1d\xa239\x920?'
p5354
tp5355
bag3
(g4
(I0
tp5356
g6
tp5357
Rp5358
(g379
I1
(tg383
I00
S'\xc9\xb3\xcf\xb3\x03\xc8u?'
p5359
tp5360
bag3
(g4
(I0
tp5361
g6
tp5362
Rp5363
(g392
I1
(tg396
I00
S'\x83\xef\x83i[\x0fr?'
p5364
tp5365
bag3
(g4
(I0
tp5366
g6
tp5367
Rp5368
(g405
I1
(tg409
I00
S'/6&P\x98t\x80?'
p5369
tp5370
bag3
(g4
(I0
tp5371
g6
tp5372
Rp5373
(g418
I1
(tg422
I00
S"'>\xe9\xdcG\x1ac?"
p5374
tp5375
bag3
(g4
(I0
tp5376
g6
tp5377
Rp5378
(g431
I1
(tg435
I00
S'g\xe9\x07\xb5fP\x8f?'
p5379
tp5380
bag3
(g4
(I0
tp5381
g6
tp5382
Rp5383
(g444
I1
(tg448
I00
S'\xbe2\xdf\xd8\xf9~C?'
p5384
tp5385
bag3
(g4
(I0
tp5386
g6
tp5387
Rp5388
(g457
I1
(tg461
I00
S'\x0f\xd3wD\xe4\x064?'
p5389
tp5390
bag3
(g4
(I0
tp5391
g6
tp5392
Rp5393
(g470
I1
(tg474
I00
S'\x1ab(eF.\x9a?'
p5394
tp5395
bag3
(g4
(I0
tp5396
g6
tp5397
Rp5398
(g483
I1
(tg487
I00
S'W\xba?\x90\x94n@?'
p5399
tp5400
bag3
(g4
(I0
tp5401
g6
tp5402
Rp5403
(g496
I1
(tg500
I00
S'\xbc\xd2N\x80\xce\xee=?'
p5404
tp5405
bag3
(g4
(I0
tp5406
g6
tp5407
Rp5408
(g509
I1
(tg513
I00
S'\xf6\xf0\xc4\x93\xeerD?'
p5409
tp5410
bag3
(g4
(I0
tp5411
g6
tp5412
Rp5413
(g522
I1
(tg526
I00
S'\xa3=\x08\xea\xa2\xdb\x7f?'
p5414
tp5415
bag3
(g4
(I0
tp5416
g6
tp5417
Rp5418
(g535
I1
(tg539
I00
S'\xac\x88\xe8\xfe\xed\xf0@?'
p5419
tp5420
bag3
(g4
(I0
tp5421
g6
tp5422
Rp5423
(g548
I1
(tg552
I00
S'\x7f\x9e\x14\\\xb5Gn?'
p5424
tp5425
bag3
(g4
(I0
tp5426
g6
tp5427
Rp5428
(g561
I1
(tg565
I00
S'>\xdc\xb3m\x1f\x17Q?'
p5429
tp5430
bag3
(g4
(I0
tp5431
g6
tp5432
Rp5433
(g574
I1
(tg578
I00
S'o\xa6\x1f\xa13\xe6;?'
p5434
tp5435
bag3
(g4
(I0
tp5436
g6
tp5437
Rp5438
(g587
I1
(tg591
I00
S'\x87^\xee_CLr?'
p5439
tp5440
bag3
(g4
(I0
tp5441
g6
tp5442
Rp5443
(g600
I1
(tg604
I00
S'\xcc\x97\xa2\x114\xbbf?'
p5444
tp5445
bag3
(g4
(I0
tp5446
g6
tp5447
Rp5448
(g613
I1
(tg617
I00
S'\x9a\xc1N/\xfaAm?'
p5449
tp5450
bag3
(g4
(I0
tp5451
g6
tp5452
Rp5453
(g626
I1
(tg630
I00
S'\xfft\xe2\xda\xb9z\x95?'
p5454
tp5455
bag3
(g4
(I0
tp5456
g6
tp5457
Rp5458
(g639
I1
(tg643
I00
S'\x8a\xa1\xd4\x84irA?'
p5459
tp5460
bag3
(g4
(I0
tp5461
g6
tp5462
Rp5463
(g652
I1
(tg656
I00
S'l\xe5W\xfc%\xc8\x88?'
p5464
tp5465
bag3
(g4
(I0
tp5466
g6
tp5467
Rp5468
(g665
I1
(tg669
I00
S'V\xd9\xcc\x17L\x957?'
p5469
tp5470
bag3
(g4
(I0
tp5471
g6
tp5472
Rp5473
(g678
I1
(tg682
I00
S'\x81f\x98\xbc]\xe55?'
p5474
tp5475
bag3
(g4
(I0
tp5476
g6
tp5477
Rp5478
(g691
I1
(tg695
I00
S'\x0e\xe4\x845\xb3\xbe\x1e?'
p5479
tp5480
bag3
(g4
(I0
tp5481
g6
tp5482
Rp5483
(g704
I1
(tg708
I00
S'\xa6\xe3\x94\xd7Z\xd7??'
p5484
tp5485
bag3
(g4
(I0
tp5486
g6
tp5487
Rp5488
(g717
I1
(tg721
I00
S'\x9d\xfd\xcek\xb9\xd6C?'
p5489
tp5490
bag3
(g4
(I0
tp5491
g6
tp5492
Rp5493
(g730
I1
(tg734
I00
S'e\xee\x91\xf5h#p?'
p5494
tp5495
bag3
(g4
(I0
tp5496
g6
tp5497
Rp5498
(g743
I1
(tg747
I00
S'\x18j\n\x1c\x02\x0bG?'
p5499
tp5500
bag3
(g4
(I0
tp5501
g6
tp5502
Rp5503
(g756
I1
(tg760
I00
S'@Pl\xb0b\xff)?'
p5504
tp5505
bag3
(g4
(I0
tp5506
g6
tp5507
Rp5508
(g769
I1
(tg773
I00
S'\xf6\x7fm"qVI?'
p5509
tp5510
bag3
(g4
(I0
tp5511
g6
tp5512
Rp5513
(g782
I1
(tg786
I00
S'\x99Z\xe1\xd0\xc4\xfb\x8b?'
p5514
tp5515
bag3
(g4
(I0
tp5516
g6
tp5517
Rp5518
(g795
I1
(tg799
I00
S'~\xc7)$S\xb3F?'
p5519
tp5520
bag3
(g4
(I0
tp5521
g6
tp5522
Rp5523
(g808
I1
(tg812
I00
S'y\x9a\x9c\x80\xe9\xb2\x1a?'
p5524
tp5525
bag3
(g4
(I0
tp5526
g6
tp5527
Rp5528
(g821
I1
(tg825
I00
S'7[\xbe\x82\xa1\xf8\x88?'
p5529
tp5530
bag3
(g4
(I0
tp5531
g6
tp5532
Rp5533
(g834
I1
(tg838
I00
S'M\xf4\x06~\xc3\x01s?'
p5534
tp5535
bag3
(g4
(I0
tp5536
g6
tp5537
Rp5538
(g847
I1
(tg851
I00
S'\x8e\xa9/Hwl1?'
p5539
tp5540
bag3
(g4
(I0
tp5541
g6
tp5542
Rp5543
(g860
I1
(tg864
I00
S'\x1cy\x85L\x83\xad\x91?'
p5544
tp5545
bag3
(g4
(I0
tp5546
g6
tp5547
Rp5548
(g873
I1
(tg877
I00
S'\xabZ\xea~A\xb5g?'
p5549
tp5550
bag3
(g4
(I0
tp5551
g6
tp5552
Rp5553
(g886
I1
(tg890
I00
S'@\xc1\xe6\xd4B\xf0,?'
p5554
tp5555
bag3
(g4
(I0
tp5556
g6
tp5557
Rp5558
(g899
I1
(tg903
I00
S'\xe4\xc3\x82h/(v?'
p5559
tp5560
bag3
(g4
(I0
tp5561
g6
tp5562
Rp5563
(g912
I1
(tg916
I00
S'\xec`\xc0\xa6t\x0e\x92?'
p5564
tp5565
bag3
(g4
(I0
tp5566
g6
tp5567
Rp5568
(g925
I1
(tg929
I00
S'm%\xf3\xc7\x7fz\x97?'
p5569
tp5570
bag3
(g4
(I0
tp5571
g6
tp5572
Rp5573
(g938
I1
(tg942
I00
S'l\xca\x82\xbb\xe5A\x90?'
p5574
tp5575
bag3
(g4
(I0
tp5576
g6
tp5577
Rp5578
(g951
I1
(tg955
I00
S'\n\x8f 3b\xa3\x98?'
p5579
tp5580
bag3
(g4
(I0
tp5581
g6
tp5582
Rp5583
(g964
I1
(tg968
I00
S'M\xacu\x9a4\xc3\x95?'
p5584
tp5585
bag3
(g4
(I0
tp5586
g6
tp5587
Rp5588
(g977
I1
(tg981
I00
S'@\x8e\xc15F\xf3T?'
p5589
tp5590
bag3
(g4
(I0
tp5591
g6
tp5592
Rp5593
(g990
I1
(tg994
I00
S'\x8b\x88-\xe9\x93\x98\x1b?'
p5594
tp5595
bag3
(g4
(I0
tp5596
g6
tp5597
Rp5598
(g1003
I1
(tg1007
I00
S'\xf9\xe2\xbb\xc3\x97\xb0I?'
p5599
tp5600
bag3
(g4
(I0
tp5601
g6
tp5602
Rp5603
(g1016
I1
(tg1020
I00
S'^\xe1\xe8j\x1c\x16\x1b?'
p5604
tp5605
bag3
(g4
(I0
tp5606
g6
tp5607
Rp5608
(g1029
I1
(tg1033
I00
S'6\x13\x9f\xb4o\xec!?'
p5609
tp5610
bag3
(g4
(I0
tp5611
g6
tp5612
Rp5613
(g1042
I1
(tg1046
I00
S'\x10\xe4\\\xea\x90\xc8$?'
p5614
tp5615
bag3
(g4
(I0
tp5616
g6
tp5617
Rp5618
(g1055
I1
(tg1059
I00
S'\xc0\x080uF\xa1.?'
p5619
tp5620
bag3
(g4
(I0
tp5621
g6
tp5622
Rp5623
(g1068
I1
(tg1072
I00
S'\x10\xc8o\xb0\xe4\x06\x1c?'
p5624
tp5625
bag3
(g4
(I0
tp5626
g6
tp5627
Rp5628
(g1081
I1
(tg1085
I00
S'\x10\xfbJ2|\x87\x8c?'
p5629
tp5630
bag3
(g4
(I0
tp5631
g6
tp5632
Rp5633
(g1094
I1
(tg1098
I00
S"\xa68es*'(?"
p5634
tp5635
bag3
(g4
(I0
tp5636
g6
tp5637
Rp5638
(g1107
I1
(tg1111
I00
S'$\xde\xb5\xc6\xc1&r?'
p5639
tp5640
bag3
(g4
(I0
tp5641
g6
tp5642
Rp5643
(g1120
I1
(tg1124
I00
S'\xe3\xf1\xa5\xf1\xcf\xe0\x83?'
p5644
tp5645
bag3
(g4
(I0
tp5646
g6
tp5647
Rp5648
(g1133
I1
(tg1137
I00
S'{\xdf\xb8\xa5\xbes+?'
p5649
tp5650
bag3
(g4
(I0
tp5651
g6
tp5652
Rp5653
(g1146
I1
(tg1150
I00
S'-C\x1c\xeb\xe26\x1a?'
p5654
tp5655
bag3
(g4
(I0
tp5656
g6
tp5657
Rp5658
(g1159
I1
(tg1163
I00
S'a\xb5p\x96\xbd\x94G?'
p5659
tp5660
bag3
(g4
(I0
tp5661
g6
tp5662
Rp5663
(g1172
I1
(tg1176
I00
S'M7\x05\xa0\xb6@J?'
p5664
tp5665
bag3
(g4
(I0
tp5666
g6
tp5667
Rp5668
(g1185
I1
(tg1189
I00
S'C\x14\x81\\\xed\xc4S?'
p5669
tp5670
bag3
(g4
(I0
tp5671
g6
tp5672
Rp5673
(g1198
I1
(tg1202
I00
S'\xf2\xc8\x99\t[\x0eS?'
p5674
tp5675
bag3
(g4
(I0
tp5676
g6
tp5677
Rp5678
(g1211
I1
(tg1215
I00
S'i\x87\x902Y\x04S?'
p5679
tp5680
bag3
(g4
(I0
tp5681
g6
tp5682
Rp5683
(g1224
I1
(tg1228
I00
S'\n\xa12\xc3\x02\x87\x83?'
p5684
tp5685
basS'zstar5'
p5686
(lp5687
g3
(g4
(I0
tp5688
g6
tp5689
Rp5690
(g13
I1
(tg19
I00
S'\xbb\xf5(\x06\xac\xf2N?'
p5691
tp5692
bag3
(g4
(I0
tp5693
g6
tp5694
Rp5695
(g28
I1
(tg32
I00
S'\x8d\x02P8n\xa1a?'
p5696
tp5697
bag3
(g4
(I0
tp5698
g6
tp5699
Rp5700
(g41
I1
(tg45
I00
S"\xd7U\xf8\xc7T\x93'?"
p5701
tp5702
bag3
(g4
(I0
tp5703
g6
tp5704
Rp5705
(g54
I1
(tg58
I00
S'S\x07##\x94_\x98?'
p5706
tp5707
bag3
(g4
(I0
tp5708
g6
tp5709
Rp5710
(g67
I1
(tg71
I00
S'\xa7\xca\x8cQ\xa0\xbb1?'
p5711
tp5712
bag3
(g4
(I0
tp5713
g6
tp5714
Rp5715
(g80
I1
(tg84
I00
S'\xd6\xfe\x87\xcf([(?'
p5716
tp5717
bag3
(g4
(I0
tp5718
g6
tp5719
Rp5720
(g93
I1
(tg97
I00
S'\x0f>8tq\x7fr?'
p5721
tp5722
bag3
(g4
(I0
tp5723
g6
tp5724
Rp5725
(g106
I1
(tg110
I00
S'&\xf2\x1b\xfd\xde\x014?'
p5726
tp5727
bag3
(g4
(I0
tp5728
g6
tp5729
Rp5730
(g119
I1
(tg123
I00
S'\xcd\x89LQAP6?'
p5731
tp5732
bag3
(g4
(I0
tp5733
g6
tp5734
Rp5735
(g132
I1
(tg136
I00
S'\xb4W\xe0\xf2/\xf70?'
p5736
tp5737
bag3
(g4
(I0
tp5738
g6
tp5739
Rp5740
(g145
I1
(tg149
I00
S'\xae-\xcds\xf0\x9bV?'
p5741
tp5742
bag3
(g4
(I0
tp5743
g6
tp5744
Rp5745
(g158
I1
(tg162
I00
S'\x17\xc4\xfc\x1a^\xa92?'
p5746
tp5747
bag3
(g4
(I0
tp5748
g6
tp5749
Rp5750
(g171
I1
(tg175
I00
S'\x0c-\xeb\x85wcX?'
p5751
tp5752
bag3
(g4
(I0
tp5753
g6
tp5754
Rp5755
(g184
I1
(tg188
I00
S'XP\\Xi\xeaW?'
p5756
tp5757
bag3
(g4
(I0
tp5758
g6
tp5759
Rp5760
(g197
I1
(tg201
I00
S'\xd8\x89\xf5\x19\x8dPD?'
p5761
tp5762
bag3
(g4
(I0
tp5763
g6
tp5764
Rp5765
(g210
I1
(tg214
I00
S'B|\xbd\xb2E\xcd\x94?'
p5766
tp5767
bag3
(g4
(I0
tp5768
g6
tp5769
Rp5770
(g223
I1
(tg227
I00
S'Y\xc9\xd5\x0e\x96\x184?'
p5771
tp5772
bag3
(g4
(I0
tp5773
g6
tp5774
Rp5775
(g236
I1
(tg240
I00
S'\xd2]p\xbb\xe2G.?'
p5776
tp5777
bag3
(g4
(I0
tp5778
g6
tp5779
Rp5780
(g249
I1
(tg253
I00
S'\xffo#\xab\xac%2?'
p5781
tp5782
bag3
(g4
(I0
tp5783
g6
tp5784
Rp5785
(g262
I1
(tg266
I00
S'\xa5\x06\xc5\x0c\xc8\xf01?'
p5786
tp5787
bag3
(g4
(I0
tp5788
g6
tp5789
Rp5790
(g275
I1
(tg279
I00
S'\xa7\xc2\xd8u\x95\x93\x99?'
p5791
tp5792
bag3
(g4
(I0
tp5793
g6
tp5794
Rp5795
(g288
I1
(tg292
I00
S'\xe4<\xac\xcf\xe2\x1b3?'
p5796
tp5797
bag3
(g4
(I0
tp5798
g6
tp5799
Rp5800
(g301
I1
(tg305
I00
S'\x07\xfd\x89\x17>\xaew?'
p5801
tp5802
bag3
(g4
(I0
tp5803
g6
tp5804
Rp5805
(g314
I1
(tg318
I00
S'#O\x06\xdb]\xde1?'
p5806
tp5807
bag3
(g4
(I0
tp5808
g6
tp5809
Rp5810
(g327
I1
(tg331
I00
S'\xd5\xd1\xf9\xf5\x0eHY?'
p5811
tp5812
bag3
(g4
(I0
tp5813
g6
tp5814
Rp5815
(g340
I1
(tg344
I00
S'k\xce\xdf\xd9%\xe64?'
p5816
tp5817
bag3
(g4
(I0
tp5818
g6
tp5819
Rp5820
(g353
I1
(tg357
I00
S']\x06\x80\xd3$@5?'
p5821
tp5822
bag3
(g4
(I0
tp5823
g6
tp5824
Rp5825
(g366
I1
(tg370
I00
S'\xca\x88\xcf\xe6\x87e0?'
p5826
tp5827
bag3
(g4
(I0
tp5828
g6
tp5829
Rp5830
(g379
I1
(tg383
I00
S'\xb9}\xfb\xafd\xf9q?'
p5831
tp5832
bag3
(g4
(I0
tp5833
g6
tp5834
Rp5835
(g392
I1
(tg396
I00
S'\xb8\xdd\x1f\x17\xa4\xa7o?'
p5836
tp5837
bag3
(g4
(I0
tp5838
g6
tp5839
Rp5840
(g405
I1
(tg409
I00
S'\x1c\xf3\xbd\x1f\xb5\x1a~?'
p5841
tp5842
bag3
(g4
(I0
tp5843
g6
tp5844
Rp5845
(g418
I1
(tg422
I00
S'\xd4\xbb*\x04\xd1\xcf`?'
p5846
tp5847
bag3
(g4
(I0
tp5848
g6
tp5849
Rp5850
(g431
I1
(tg435
I00
S'"\x9b6XC\xe4\x8e?'
p5851
tp5852
bag3
(g4
(I0
tp5853
g6
tp5854
Rp5855
(g444
I1
(tg448
I00
S'\x94\xd2\x84%\xd6\xe2B?'
p5856
tp5857
bag3
(g4
(I0
tp5858
g6
tp5859
Rp5860
(g457
I1
(tg461
I00
S'\xdc(YO9|3?'
p5861
tp5862
bag3
(g4
(I0
tp5863
g6
tp5864
Rp5865
(g470
I1
(tg474
I00
S'\xf0\xb9\\\x84\x18\x8b\x97?'
p5866
tp5867
bag3
(g4
(I0
tp5868
g6
tp5869
Rp5870
(g483
I1
(tg487
I00
S'mH?\xa9\x88k??'
p5871
tp5872
bag3
(g4
(I0
tp5873
g6
tp5874
Rp5875
(g496
I1
(tg500
I00
S'\x01(\xd5,\xd5\xe3;?'
p5876
tp5877
bag3
(g4
(I0
tp5878
g6
tp5879
Rp5880
(g509
I1
(tg513
I00
S'(\xa5@H9\xcbB?'
p5881
tp5882
bag3
(g4
(I0
tp5883
g6
tp5884
Rp5885
(g522
I1
(tg526
I00
S'\x01\xfc?%\xcc\x95|?'
p5886
tp5887
bag3
(g4
(I0
tp5888
g6
tp5889
Rp5890
(g535
I1
(tg539
I00
S'\xc8\xa5=\xb4\xef?>?'
p5891
tp5892
bag3
(g4
(I0
tp5893
g6
tp5894
Rp5895
(g548
I1
(tg552
I00
S'xEFX\xeb!j?'
p5896
tp5897
bag3
(g4
(I0
tp5898
g6
tp5899
Rp5900
(g561
I1
(tg565
I00
S'\xd4\x94b\xb1\xdf\xb5N?'
p5901
tp5902
bag3
(g4
(I0
tp5903
g6
tp5904
Rp5905
(g574
I1
(tg578
I00
S'O\x81`\xc9\x98u:?'
p5906
tp5907
bag3
(g4
(I0
tp5908
g6
tp5909
Rp5910
(g587
I1
(tg591
I00
S'7\x01{\xff\x9b\xc8p?'
p5911
tp5912
bag3
(g4
(I0
tp5913
g6
tp5914
Rp5915
(g600
I1
(tg604
I00
S'\xb8Q}RJL`?'
p5916
tp5917
bag3
(g4
(I0
tp5918
g6
tp5919
Rp5920
(g613
I1
(tg617
I00
S'a1\xb0\xb4\xed\x9cf?'
p5921
tp5922
bag3
(g4
(I0
tp5923
g6
tp5924
Rp5925
(g626
I1
(tg630
I00
S'F\xf9\xcb\x12\x81\xd2\x94?'
p5926
tp5927
bag3
(g4
(I0
tp5928
g6
tp5929
Rp5930
(g639
I1
(tg643
I00
S'>\xf8\x14\xa1\x1f\xf4@?'
p5931
tp5932
bag3
(g4
(I0
tp5933
g6
tp5934
Rp5935
(g652
I1
(tg656
I00
S'`?3i\xe0B\x84?'
p5936
tp5937
bag3
(g4
(I0
tp5938
g6
tp5939
Rp5940
(g665
I1
(tg669
I00
S'jv\xaaF\x96\xc76?'
p5941
tp5942
bag3
(g4
(I0
tp5943
g6
tp5944
Rp5945
(g678
I1
(tg682
I00
S'h \xf9}\x86\xa94?'
p5946
tp5947
bag3
(g4
(I0
tp5948
g6
tp5949
Rp5950
(g691
I1
(tg695
I00
S'\x0e\xe4\x845\xb3\xbe\x1e?'
p5951
tp5952
bag3
(g4
(I0
tp5953
g6
tp5954
Rp5955
(g704
I1
(tg708
I00
S'\xd9\xbc\xbd\x9f%\x86<?'
p5956
tp5957
bag3
(g4
(I0
tp5958
g6
tp5959
Rp5960
(g717
I1
(tg721
I00
S'\xacNq\x9fc\x16C?'
p5961
tp5962
bag3
(g4
(I0
tp5963
g6
tp5964
Rp5965
(g730
I1
(tg734
I00
S'<vd\x84\x18\x1fl?'
p5966
tp5967
bag3
(g4
(I0
tp5968
g6
tp5969
Rp5970
(g743
I1
(tg747
I00
S'\xcb\xee\x89H\x9e\xafC?'
p5971
tp5972
bag3
(g4
(I0
tp5973
g6
tp5974
Rp5975
(g756
I1
(tg760
I00
S'@Pl\xb0b\xff)?'
p5976
tp5977
bag3
(g4
(I0
tp5978
g6
tp5979
Rp5980
(g769
I1
(tg773
I00
S'p\xcc\x82\x1c\x85\x82F?'
p5981
tp5982
bag3
(g4
(I0
tp5983
g6
tp5984
Rp5985
(g782
I1
(tg786
I00
S'x\xd8\xe1\xf0{\x91\x88?'
p5986
tp5987
bag3
(g4
(I0
tp5988
g6
tp5989
Rp5990
(g795
I1
(tg799
I00
S'\x9c\xc9\xf0Q\xb1\xb0D?'
p5991
tp5992
bag3
(g4
(I0
tp5993
g6
tp5994
Rp5995
(g808
I1
(tg812
I00
S'\xa2=\xa8\xd5/\xb2\x1a?'
p5996
tp5997
bag3
(g4
(I0
tp5998
g6
tp5999
Rp6000
(g821
I1
(tg825
I00
S'\x98\x84\x1dh\xf9\x98\x86?'
p6001
tp6002
bag3
(g4
(I0
tp6003
g6
tp6004
Rp6005
(g834
I1
(tg838
I00
S'\x17tk\x04\xc9\xb3k?'
p6006
tp6007
bag3
(g4
(I0
tp6008
g6
tp6009
Rp6010
(g847
I1
(tg851
I00
S'\x10G\x0bU\xf2e1?'
p6011
tp6012
bag3
(g4
(I0
tp6013
g6
tp6014
Rp6015
(g860
I1
(tg864
I00
S'u\xa0\xcclE\xec\x90?'
p6016
tp6017
bag3
(g4
(I0
tp6018
g6
tp6019
Rp6020
(g873
I1
(tg877
I00
S'\xfbX"\xc0\x9e\xe0d?'
p6021
tp6022
bag3
(g4
(I0
tp6023
g6
tp6024
Rp6025
(g886
I1
(tg890
I00
S'@\xc1\xe6\xd4B\xf0,?'
p6026
tp6027
bag3
(g4
(I0
tp6028
g6
tp6029
Rp6030
(g899
I1
(tg903
I00
S'\xf69A\xee\xc23p?'
p6031
tp6032
bag3
(g4
(I0
tp6033
g6
tp6034
Rp6035
(g912
I1
(tg916
I00
S'\xd9j\xf3\xe7\xef\xf4\x8f?'
p6036
tp6037
bag3
(g4
(I0
tp6038
g6
tp6039
Rp6040
(g925
I1
(tg929
I00
S'\xcc\x0e$\xdb"#\x94?'
p6041
tp6042
bag3
(g4
(I0
tp6043
g6
tp6044
Rp6045
(g938
I1
(tg942
I00
S'\xdd\xb7\xc3y=?\x8c?'
p6046
tp6047
bag3
(g4
(I0
tp6048
g6
tp6049
Rp6050
(g951
I1
(tg955
I00
S'\xf0q\x06\xe7Y\x0f\x98?'
p6051
tp6052
bag3
(g4
(I0
tp6053
g6
tp6054
Rp6055
(g964
I1
(tg968
I00
S'\r\xee]\x86\xba\xc4\x94?'
p6056
tp6057
bag3
(g4
(I0
tp6058
g6
tp6059
Rp6060
(g977
I1
(tg981
I00
S'\xbe x\xd7\x00;S?'
p6061
tp6062
bag3
(g4
(I0
tp6063
g6
tp6064
Rp6065
(g990
I1
(tg994
I00
S'Qm!%\x9f\xcc\x1c?'
p6066
tp6067
bag3
(g4
(I0
tp6068
g6
tp6069
Rp6070
(g1003
I1
(tg1007
I00
S'B\x1c\x06\xf6\xfe\x19G?'
p6071
tp6072
bag3
(g4
(I0
tp6073
g6
tp6074
Rp6075
(g1016
I1
(tg1020
I00
S'O\x0cj\xe1d\x16\x1b?'
p6076
tp6077
bag3
(g4
(I0
tp6078
g6
tp6079
Rp6080
(g1029
I1
(tg1033
I00
S'\x7f\x14\xf6\xf9\xe0\xe3!?'
p6081
tp6082
bag3
(g4
(I0
tp6083
g6
tp6084
Rp6085
(g1042
I1
(tg1046
I00
S'\xb1\xe4U\xce#\xc2$?'
p6086
tp6087
bag3
(g4
(I0
tp6088
g6
tp6089
Rp6090
(g1055
I1
(tg1059
I00
S'[\xaeK\x84\xe7\x81.?'
p6091
tp6092
bag3
(g4
(I0
tp6093
g6
tp6094
Rp6095
(g1068
I1
(tg1072
I00
S'(\x1a\x01\xea\xe0\x12\x1c?'
p6096
tp6097
bag3
(g4
(I0
tp6098
g6
tp6099
Rp6100
(g1081
I1
(tg1085
I00
S'\xe9\xad\xbds\xc6\x04\x8c?'
p6101
tp6102
bag3
(g4
(I0
tp6103
g6
tp6104
Rp6105
(g1094
I1
(tg1098
I00
S"\x97\x1e'$S (?"
p6106
tp6107
bag3
(g4
(I0
tp6108
g6
tp6109
Rp6110
(g1107
I1
(tg1111
I00
S'fm\x9a\xde\xde2p?'
p6111
tp6112
bag3
(g4
(I0
tp6113
g6
tp6114
Rp6115
(g1120
I1
(tg1124
I00
S'\x94k\xcc\x94\xaf\x8e\x80?'
p6116
tp6117
bag3
(g4
(I0
tp6118
g6
tp6119
Rp6120
(g1133
I1
(tg1137
I00
S'(\x1e0\xf5\xa8s+?'
p6121
tp6122
bag3
(g4
(I0
tp6123
g6
tp6124
Rp6125
(g1146
I1
(tg1150
I00
S'-C\x1c\xeb\xe26\x1a?'
p6126
tp6127
bag3
(g4
(I0
tp6128
g6
tp6129
Rp6130
(g1159
I1
(tg1163
I00
S'\xfe\xc35\t,\xd9D?'
p6131
tp6132
bag3
(g4
(I0
tp6133
g6
tp6134
Rp6135
(g1172
I1
(tg1176
I00
S'\n>\x84\xc4\xc4iE?'
p6136
tp6137
bag3
(g4
(I0
tp6138
g6
tp6139
Rp6140
(g1185
I1
(tg1189
I00
S'o\x1e\xe7\x80\xe9\xaaQ?'
p6141
tp6142
bag3
(g4
(I0
tp6143
g6
tp6144
Rp6145
(g1198
I1
(tg1202
I00
S'\x9c\xe8d\x1d\r\xc9P?'
p6146
tp6147
bag3
(g4
(I0
tp6148
g6
tp6149
Rp6150
(g1211
I1
(tg1215
I00
S'\x08u\x0e\x8e@\xc2P?'
p6151
tp6152
bag3
(g4
(I0
tp6153
g6
tp6154
Rp6155
(g1224
I1
(tg1228
I00
S'\xf8\xe7\xe9-\xb8\xcf{?'
p6156
tp6157
basS'feh'
p6158
(lp6159
g3
(g4
(I0
tp6160
g6
tp6161
Rp6162
(g13
I1
(tg19
I00
S'\xa2\x02p\xb3\xf9\xad\xf8\xbf'
p6163
tp6164
bag3
(g4
(I0
tp6165
g6
tp6166
Rp6167
(g28
I1
(tg32
I00
S'\xb8\xb8\x96t\xc1\x86\xf4\xbf'
p6168
tp6169
bag3
(g4
(I0
tp6170
g6
tp6171
Rp6172
(g41
I1
(tg45
I00
S'\xb3^j\x18L\x80\x02\xc0'
p6173
tp6174
bag3
(g4
(I0
tp6175
g6
tp6176
Rp6177
(g54
I1
(tg58
I00
S'\x01\x87\x0e2\xfa\x0f\xbe\xbf'
p6178
tp6179
bag3
(g4
(I0
tp6180
g6
tp6181
Rp6182
(g67
I1
(tg71
I00
S'o\xf70t7\xc0\x00\xc0'
p6183
tp6184
bag3
(g4
(I0
tp6185
g6
tp6186
Rp6187
(g80
I1
(tg84
I00
S'\x8b\x9fr\xbe\xd9\xa7\x04\xc0'
p6188
tp6189
bag3
(g4
(I0
tp6190
g6
tp6191
Rp6192
(g93
I1
(tg97
I00
S'7\x0c\n"L\xb3\xef\xbf'
p6193
tp6194
bag3
(g4
(I0
tp6195
g6
tp6196
Rp6197
(g106
I1
(tg110
I00
S'\xd3\xa1\x01\x1c.H\x00\xc0'
p6198
tp6199
bag3
(g4
(I0
tp6200
g6
tp6201
Rp6202
(g119
I1
(tg123
I00
S'\xe5\xe6"\x84\xf7\x81\xfd\xbf'
p6203
tp6204
bag3
(g4
(I0
tp6205
g6
tp6206
Rp6207
(g132
I1
(tg136
I00
S'$`\xdf\xefaZ\xff\xbf'
p6208
tp6209
bag3
(g4
(I0
tp6210
g6
tp6211
Rp6212
(g145
I1
(tg149
I00
S'\xcb\xc5\xa4Q"E\xf7\xbf'
p6213
tp6214
bag3
(g4
(I0
tp6215
g6
tp6216
Rp6217
(g158
I1
(tg162
I00
S'z\n\xc7\xbbe\x9c\xff\xbf'
p6218
tp6219
bag3
(g4
(I0
tp6220
g6
tp6221
Rp6222
(g171
I1
(tg175
I00
S'K\xf7W\x8a\x87\xeb\xf5\xbf'
p6223
tp6224
bag3
(g4
(I0
tp6225
g6
tp6226
Rp6227
(g184
I1
(tg188
I00
S'\x04\xe9\xbf\xe8\xc2\xca\xf6\xbf'
p6228
tp6229
bag3
(g4
(I0
tp6230
g6
tp6231
Rp6232
(g197
I1
(tg201
I00
S',\xfd\x1c\xf3h\x1a\xfb\xbf'
p6233
tp6234
bag3
(g4
(I0
tp6235
g6
tp6236
Rp6237
(g210
I1
(tg214
I00
S'LXY\xf0\xa2\xfc\xd2\xbf'
p6238
tp6239
bag3
(g4
(I0
tp6240
g6
tp6241
Rp6242
(g223
I1
(tg227
I00
S'\xd3^hm\x8a\xd3\xfe\xbf'
p6243
tp6244
bag3
(g4
(I0
tp6245
g6
tp6246
Rp6247
(g236
I1
(tg240
I00
S'\xb32xVY\x8b\x00\xc0'
p6248
tp6249
bag3
(g4
(I0
tp6250
g6
tp6251
Rp6252
(g249
I1
(tg253
I00
S'8\x9b\xb1 \xa1\x16\xff\xbf'
p6253
tp6254
bag3
(g4
(I0
tp6255
g6
tp6256
Rp6257
(g262
I1
(tg266
I00
S'\x06\x1c(\x95\x07Q\x02\xc0'
p6258
tp6259
bag3
(g4
(I0
tp6260
g6
tp6261
Rp6262
(g275
I1
(tg279
I00
S"gL'T;\xae\xb3\xbf"
p6263
tp6264
bag3
(g4
(I0
tp6265
g6
tp6266
Rp6267
(g288
I1
(tg292
I00
S'\x84\xae\xde\xbe\x7f\xbb\xfe\xbf'
p6268
tp6269
bag3
(g4
(I0
tp6270
g6
tp6271
Rp6272
(g301
I1
(tg305
I00
S'\xbc\xdfS\x0c^i\xeb\xbf'
p6273
tp6274
bag3
(g4
(I0
tp6275
g6
tp6276
Rp6277
(g314
I1
(tg318
I00
S"\xc2'z\rV\xba\xff\xbf"
p6278
tp6279
bag3
(g4
(I0
tp6280
g6
tp6281
Rp6282
(g327
I1
(tg331
I00
S'\x12x~\xb2v\xce\xf5\xbf'
p6283
tp6284
bag3
(g4
(I0
tp6285
g6
tp6286
Rp6287
(g340
I1
(tg344
I00
S'\x0cwJ\x8c\xc0+\xfe\xbf'
p6288
tp6289
bag3
(g4
(I0
tp6290
g6
tp6291
Rp6292
(g353
I1
(tg357
I00
S'\xd8\x89\x13^\x8cb\xfd\xbf'
p6293
tp6294
bag3
(g4
(I0
tp6295
g6
tp6296
Rp6297
(g366
I1
(tg370
I00
S'\xc3\x05\x9c9D\xae\x00\xc0'
p6298
tp6299
bag3
(g4
(I0
tp6300
g6
tp6301
Rp6302
(g379
I1
(tg383
I00
S'm;\xeb\xf1\x10_\xef\xbf'
p6303
tp6304
bag3
(g4
(I0
tp6305
g6
tp6306
Rp6307
(g392
I1
(tg396
I00
S'\x7f\x1aO\x18\xdbK\xf0\xbf'
p6308
tp6309
bag3
(g4
(I0
tp6310
g6
tp6311
Rp6312
(g405
I1
(tg409
I00
S'\x08-\xc4\x04\xe0F\xe9\xbf'
p6313
tp6314
bag3
(g4
(I0
tp6315
g6
tp6316
Rp6317
(g418
I1
(tg422
I00
S'f\xceWi\xb1\xc8\xf3\xbf'
p6318
tp6319
bag3
(g4
(I0
tp6320
g6
tp6321
Rp6322
(g431
I1
(tg435
I00
S'b\x9b0gZ \xda\xbf'
p6323
tp6324
bag3
(g4
(I0
tp6325
g6
tp6326
Rp6327
(g444
I1
(tg448
I00
S'\xdf!\xe4\xd1\xcc\x87\xfc\xbf'
p6328
tp6329
bag3
(g4
(I0
tp6330
g6
tp6331
Rp6332
(g457
I1
(tg461
I00
S'\x16]pko\xa3\xfe\xbf'
p6333
tp6334
bag3
(g4
(I0
tp6335
g6
tp6336
Rp6337
(g470
I1
(tg474
I00
S'\x061\x95g\xa8\xd7\xc1\xbf'
p6338
tp6339
bag3
(g4
(I0
tp6340
g6
tp6341
Rp6342
(g483
I1
(tg487
I00
S'U\xbf\x91t\xd9I\xfc\xbf'
p6343
tp6344
bag3
(g4
(I0
tp6345
g6
tp6346
Rp6347
(g496
I1
(tg500
I00
S'a\x84\xf5\x18\xe4r\xfd\xbf'
p6348
tp6349
bag3
(g4
(I0
tp6350
g6
tp6351
Rp6352
(g509
I1
(tg513
I00
S'/|\x80}\xf5\xb5\xfb\xbf'
p6353
tp6354
bag3
(g4
(I0
tp6355
g6
tp6356
Rp6357
(g522
I1
(tg526
I00
S'\x80\x0cs\x8a\x87\x1a\xe9\xbf'
p6358
tp6359
bag3
(g4
(I0
tp6360
g6
tp6361
Rp6362
(g535
I1
(tg539
I00
S'C\xec\xec\x8d\x8f\x8a\xfd\xbf'
p6363
tp6364
bag3
(g4
(I0
tp6365
g6
tp6366
Rp6367
(g548
I1
(tg552
I00
S'H\xe1\x85\x9e\xb6\xe8\xf1\xbf'
p6368
tp6369
bag3
(g4
(I0
tp6370
g6
tp6371
Rp6372
(g561
I1
(tg565
I00
S'\x15D\xb9\xbaWq\xf8\xbf'
p6373
tp6374
bag3
(g4
(I0
tp6375
g6
tp6376
Rp6377
(g574
I1
(tg578
I00
S'\x91\xe0\x95\rY\xcb\xfd\xbf'
p6378
tp6379
bag3
(g4
(I0
tp6380
g6
tp6381
Rp6382
(g587
I1
(tg591
I00
S'w\xb8\xc0\xf2\x1e\x07\xef\xbf'
p6383
tp6384
bag3
(g4
(I0
tp6385
g6
tp6386
Rp6387
(g600
I1
(tg604
I00
S'\x8d\xad\xb0\xe0f\xa1\xf4\xbf'
p6388
tp6389
bag3
(g4
(I0
tp6390
g6
tp6391
Rp6392
(g613
I1
(tg617
I00
S'\xbb\ny{@\xa3\xf2\xbf'
p6393
tp6394
bag3
(g4
(I0
tp6395
g6
tp6396
Rp6397
(g626
I1
(tg630
I00
S'\x11\x99G\xd5d\x1e\xd1\xbf'
p6398
tp6399
bag3
(g4
(I0
tp6400
g6
tp6401
Rp6402
(g639
I1
(tg643
I00
S'\x93\xde\xb6\xb2\x86\x84\xfc\xbf'
p6403
tp6404
bag3
(g4
(I0
tp6405
g6
tp6406
Rp6407
(g652
I1
(tg656
I00
S"'i\xf0AU\xd1\xe5\xbf"
p6408
tp6409
bag3
(g4
(I0
tp6410
g6
tp6411
Rp6412
(g665
I1
(tg669
I00
S'\xc8\xe0\xedu\xf30\xfd\xbf'
p6413
tp6414
bag3
(g4
(I0
tp6415
g6
tp6416
Rp6417
(g678
I1
(tg682
I00
S'\xe7cD\xbf=8\x00\xc0'
p6418
tp6419
bag3
(g4
(I0
tp6420
g6
tp6421
Rp6422
(g691
I1
(tg695
I00
S'm\xee\x10\xb8\x19\xf7\x15\xc0'
p6423
tp6424
bag3
(g4
(I0
tp6425
g6
tp6426
Rp6427
(g704
I1
(tg708
I00
S'\xf1\xd5\x13\x05\t\x98\xfc\xbf'
p6428
tp6429
bag3
(g4
(I0
tp6430
g6
tp6431
Rp6432
(g717
I1
(tg721
I00
S'\x9e\x9b\x8cS\xc9\xf8\xfb\xbf'
p6433
tp6434
bag3
(g4
(I0
tp6435
g6
tp6436
Rp6437
(g730
I1
(tg734
I00
S'O\xb7\xba\x17\x92.\xf1\xbf'
p6438
tp6439
bag3
(g4
(I0
tp6440
g6
tp6441
Rp6442
(g743
I1
(tg747
I00
S'\x92\xaf\xca\xae\x8a\x01\xfb\xbf'
p6443
tp6444
bag3
(g4
(I0
tp6445
g6
tp6446
Rp6447
(g756
I1
(tg760
I00
S'\xfeU<96\xbb\x01\xc0'
p6448
tp6449
bag3
(g4
(I0
tp6450
g6
tp6451
Rp6452
(g769
I1
(tg773
I00
S'\x95 \x02|n\xd1\xf9\xbf'
p6453
tp6454
bag3
(g4
(I0
tp6455
g6
tp6456
Rp6457
(g782
I1
(tg786
I00
S'p\x07\xee\xbf\xf0\x8c\xe3\xbf'
p6458
tp6459
bag3
(g4
(I0
tp6460
g6
tp6461
Rp6462
(g795
I1
(tg799
I00
S'\xec:\x9f\xd6\x82$\xfb\xbf'
p6463
tp6464
bag3
(g4
(I0
tp6465
g6
tp6466
Rp6467
(g808
I1
(tg812
I00
S'\t\xfc\xad\xccIv\x07\xc0'
p6468
tp6469
bag3
(g4
(I0
tp6470
g6
tp6471
Rp6472
(g821
I1
(tg825
I00
S'&/\x8bn\x05\x88\xe5\xbf'
p6473
tp6474
bag3
(g4
(I0
tp6475
g6
tp6476
Rp6477
(g834
I1
(tg838
I00
S'\xdd\x9fU\xc4\xa1\xbc\xf1\xbf'
p6478
tp6479
bag3
(g4
(I0
tp6480
g6
tp6481
Rp6482
(g847
I1
(tg851
I00
S'.\xe3\x16\xe4Y%\x00\xc0'
p6483
tp6484
bag3
(g4
(I0
tp6485
g6
tp6486
Rp6487
(g860
I1
(tg864
I00
S'\xb8\xdb\xf2\xd0aQ\xdc\xbf'
p6488
tp6489
bag3
(g4
(I0
tp6490
g6
tp6491
Rp6492
(g873
I1
(tg877
I00
S'{\x97t\xd1\xa7\x10\xf3\xbf'
p6493
tp6494
bag3
(g4
(I0
tp6495
g6
tp6496
Rp6497
(g886
I1
(tg890
I00
S'^\x95\xf5\x0f\xf3E\x05\xc0'
p6498
tp6499
bag3
(g4
(I0
tp6500
g6
tp6501
Rp6502
(g899
I1
(tg903
I00
S'\x9a\xef\x14\xcd\xfd)\xf1\xbf'
p6503
tp6504
bag3
(g4
(I0
tp6505
g6
tp6506
Rp6507
(g912
I1
(tg916
I00
S'M\xd9\xa9\xf3\xd9e\xdd\xbf'
p6508
tp6509
bag3
(g4
(I0
tp6510
g6
tp6511
Rp6512
(g925
I1
(tg929
I00
S'\x9ff\\\x84\xf4\x92\xd3\xbf'
p6513
tp6514
bag3
(g4
(I0
tp6515
g6
tp6516
Rp6517
(g938
I1
(tg942
I00
S'\x8bvp\xd9d\xa4\xdf\xbf'
p6518
tp6519
bag3
(g4
(I0
tp6520
g6
tp6521
Rp6522
(g951
I1
(tg955
I00
S's\xa2\xab~\\\xa2\xc0\xbf'
p6523
tp6524
bag3
(g4
(I0
tp6525
g6
tp6526
Rp6527
(g964
I1
(tg968
I00
S'\x9c\x06\\\xffsw\xd2\xbf'
p6528
tp6529
bag3
(g4
(I0
tp6530
g6
tp6531
Rp6532
(g977
I1
(tg981
I00
S'\xc1\xf1\xc2\xc5\xa3\r\xf7\xbf'
p6533
tp6534
bag3
(g4
(I0
tp6535
g6
tp6536
Rp6537
(g990
I1
(tg994
I00
S'o|md9\xa8\x16\xc0'
p6538
tp6539
bag3
(g4
(I0
tp6540
g6
tp6541
Rp6542
(g1003
I1
(tg1007
I00
S'a\xb9\x9c\x86\x00"\xfa\xbf'
p6543
tp6544
bag3
(g4
(I0
tp6545
g6
tp6546
Rp6547
(g1016
I1
(tg1020
I00
S'\xcf\x86\x00\xa5SA\t\xc0'
p6548
tp6549
bag3
(g4
(I0
tp6550
g6
tp6551
Rp6552
(g1029
I1
(tg1033
I00
S'4b\xd4\xeez\x95\x05\xc0'
p6553
tp6554
bag3
(g4
(I0
tp6555
g6
tp6556
Rp6557
(g1042
I1
(tg1046
I00
S'\xbc\xc6\x02\xd10\xd7\x06\xc0'
p6558
tp6559
bag3
(g4
(I0
tp6560
g6
tp6561
Rp6562
(g1055
I1
(tg1059
I00
S'zs\xd5-\xad\xc6\x02\xc0'
p6563
tp6564
bag3
(g4
(I0
tp6565
g6
tp6566
Rp6567
(g1068
I1
(tg1072
I00
S'\x13\x96\xc5D\x1f\x8b\x07\xc0'
p6568
tp6569
bag3
(g4
(I0
tp6570
g6
tp6571
Rp6572
(g1081
I1
(tg1085
I00
S"\xea\xa4\xeb'\x9e\x9b\xe0\xbf"
p6573
tp6574
bag3
(g4
(I0
tp6575
g6
tp6576
Rp6577
(g1094
I1
(tg1098
I00
S'\r\xd6U\xba\x85\x95\x02\xc0'
p6578
tp6579
bag3
(g4
(I0
tp6580
g6
tp6581
Rp6582
(g1107
I1
(tg1111
I00
S'$\x90\xb0\xe3\\J\xf0\xbf'
p6583
tp6584
bag3
(g4
(I0
tp6585
g6
tp6586
Rp6587
(g1120
I1
(tg1124
I00
S'\x85Y\xb9\xe0\xe9\xe4\xe7\xbf'
p6588
tp6589
bag3
(g4
(I0
tp6590
g6
tp6591
Rp6592
(g1133
I1
(tg1137
I00
S'\xb6b\xd3\xcb\xf6\r\x02\xc0'
p6593
tp6594
bag3
(g4
(I0
tp6595
g6
tp6596
Rp6597
(g1146
I1
(tg1150
I00
S'\xcb\xe3r}\xb5\x19\x16\xc0'
p6598
tp6599
bag3
(g4
(I0
tp6600
g6
tp6601
Rp6602
(g1159
I1
(tg1163
I00
S'Z\xe3^\xe4\x85\x9a\xfb\xbf'
p6603
tp6604
bag3
(g4
(I0
tp6605
g6
tp6606
Rp6607
(g1172
I1
(tg1176
I00
S'\x840\x8aV\xabx\xfa\xbf'
p6608
tp6609
bag3
(g4
(I0
tp6610
g6
tp6611
Rp6612
(g1185
I1
(tg1189
I00
S'\x15X\x89\xc9@`\xf8\xbf'
p6613
tp6614
bag3
(g4
(I0
tp6615
g6
tp6616
Rp6617
(g1198
I1
(tg1202
I00
S'\xb4A\x12r\xbat\xf8\xbf'
p6618
tp6619
bag3
(g4
(I0
tp6620
g6
tp6621
Rp6622
(g1211
I1
(tg1215
I00
S'\xd7Yo\xf09\x19\xf8\xbf'
p6623
tp6624
bag3
(g4
(I0
tp6625
g6
tp6626
Rp6627
(g1224
I1
(tg1228
I00
S'\xb6\x8f\xee\x7f\xbb\x9b\xea\xbf'
p6628
tp6629
basS'zstar'
p6630
(lp6631
g3
(g4
(I0
tp6632
g6
tp6633
Rp6634
(g13
I1
(tg19
I00
S't\x0c$\x82\x8b|Q?'
p6635
tp6636
bag3
(g4
(I0
tp6637
g6
tp6638
Rp6639
(g28
I1
(tg32
I00
S'\xb2\r`\x87<\x99b?'
p6640
tp6641
bag3
(g4
(I0
tp6642
g6
tp6643
Rp6644
(g41
I1
(tg45
I00
S'fz\rvC\xb4)?'
p6645
tp6646
bag3
(g4
(I0
tp6647
g6
tp6648
Rp6649
(g54
I1
(tg58
I00
S'\x8d\xb9\x8d\x80=$\x9a?'
p6650
tp6651
bag3
(g4
(I0
tp6652
g6
tp6653
Rp6654
(g67
I1
(tg71
I00
S'"\x1b\xacz\xf2J4?'
p6655
tp6656
bag3
(g4
(I0
tp6657
g6
tp6658
Rp6659
(g80
I1
(tg84
I00
S'r\x1aCT\xa3\x9f1?'
p6660
tp6661
bag3
(g4
(I0
tp6662
g6
tp6663
Rp6664
(g93
I1
(tg97
I00
S'O\xe74\x86\xc0\x8ft?'
p6665
tp6666
bag3
(g4
(I0
tp6667
g6
tp6668
Rp6669
(g106
I1
(tg110
I00
S'7\x81\xe5\x9e\xda\x7f6?'
p6670
tp6671
bag3
(g4
(I0
tp6672
g6
tp6673
Rp6674
(g119
I1
(tg123
I00
S'\xfe\x11\xc9\xcc?\x16;?'
p6675
tp6676
bag3
(g4
(I0
tp6677
g6
tp6678
Rp6679
(g132
I1
(tg136
I00
S'\xa5p\xa5\xbc\xcd\x031?'
p6680
tp6681
bag3
(g4
(I0
tp6682
g6
tp6683
Rp6684
(g145
I1
(tg149
I00
S'(1\xcf0z\xccX?'
p6685
tp6686
bag3
(g4
(I0
tp6687
g6
tp6688
Rp6689
(g158
I1
(tg162
I00
S'\x8e2H\xa8\x83n7?'
p6690
tp6691
bag3
(g4
(I0
tp6692
g6
tp6693
Rp6694
(g171
I1
(tg175
I00
S'\x9d\xd9\r\xc3wn[?'
p6695
tp6696
bag3
(g4
(I0
tp6697
g6
tp6698
Rp6699
(g184
I1
(tg188
I00
S';\x07\xd8\xd7\xe9\xc6Y?'
p6700
tp6701
bag3
(g4
(I0
tp6702
g6
tp6703
Rp6704
(g197
I1
(tg201
I00
S'\xb2\xf7LDr\x01D?'
p6705
tp6706
bag3
(g4
(I0
tp6707
g6
tp6708
Rp6709
(g210
I1
(tg214
I00
S'}\x07\x00Y\xae\x01\x98?'
p6710
tp6711
bag3
(g4
(I0
tp6712
g6
tp6713
Rp6714
(g223
I1
(tg227
I00
S'kL\xed\xfc9Y4?'
p6715
tp6716
bag3
(g4
(I0
tp6717
g6
tp6718
Rp6719
(g236
I1
(tg240
I00
S'\xefJ\x02Uj+.?'
p6720
tp6721
bag3
(g4
(I0
tp6722
g6
tp6723
Rp6724
(g249
I1
(tg253
I00
S'\xa2x\xf14\x1e`3?'
p6725
tp6726
bag3
(g4
(I0
tp6727
g6
tp6728
Rp6729
(g262
I1
(tg266
I00
S':y\xea\xe1\xe8\x8d2?'
p6730
tp6731
bag3
(g4
(I0
tp6732
g6
tp6733
Rp6734
(g275
I1
(tg279
I00
S')\x81\xe9\x0e\xd5k\x9a?'
p6735
tp6736
bag3
(g4
(I0
tp6737
g6
tp6738
Rp6739
(g288
I1
(tg292
I00
S'\x1b_\xeaE\r\x973?'
p6740
tp6741
bag3
(g4
(I0
tp6742
g6
tp6743
Rp6744
(g301
I1
(tg305
I00
S'\xf4\x99J\xfb\x84\x17}?'
p6745
tp6746
bag3
(g4
(I0
tp6747
g6
tp6748
Rp6749
(g314
I1
(tg318
I00
S'J\x1c\xf5\xbe\x14\xe75?'
p6750
tp6751
bag3
(g4
(I0
tp6752
g6
tp6753
Rp6754
(g327
I1
(tg331
I00
S'8\xca\x0e\x8c\xc8\xdf^?'
p6755
tp6756
bag3
(g4
(I0
tp6757
g6
tp6758
Rp6759
(g340
I1
(tg344
I00
S'\xbbpQ \xa6\x046?'
p6760
tp6761
bag3
(g4
(I0
tp6762
g6
tp6763
Rp6764
(g353
I1
(tg357
I00
S'\xfc\x0f@\xa5\x86\xfd5?'
p6765
tp6766
bag3
(g4
(I0
tp6767
g6
tp6768
Rp6769
(g366
I1
(tg370
I00
S'N\xcc\x9f03/2?'
p6770
tp6771
bag3
(g4
(I0
tp6772
g6
tp6773
Rp6774
(g379
I1
(tg383
I00
S'\xb0^\x9f\xdcg?w?'
p6775
tp6776
bag3
(g4
(I0
tp6777
g6
tp6778
Rp6779
(g392
I1
(tg396
I00
S'?\xcb+\xbc\xb3\x15r?'
p6780
tp6781
bag3
(g4
(I0
tp6782
g6
tp6783
Rp6784
(g405
I1
(tg409
I00
S'0\x1b\x10D\xf7e\x80?'
p6785
tp6786
bag3
(g4
(I0
tp6787
g6
tp6788
Rp6789
(g418
I1
(tg422
I00
S'\xb3\xf7\xdb\xd7\xd9\\c?'
p6790
tp6791
bag3
(g4
(I0
tp6792
g6
tp6793
Rp6794
(g431
I1
(tg435
I00
S'\xce\x04\xcc\xea\x8dJ\x8f?'
p6795
tp6796
bag3
(g4
(I0
tp6797
g6
tp6798
Rp6799
(g444
I1
(tg448
I00
S'\xf9\xf3\\\xb9\x07bI?'
p6800
tp6801
bag3
(g4
(I0
tp6802
g6
tp6803
Rp6804
(g457
I1
(tg461
I00
S'\xa7W8e\x1c\xad4?'
p6805
tp6806
bag3
(g4
(I0
tp6807
g6
tp6808
Rp6809
(g470
I1
(tg474
I00
S'\x1e\r\x04\x90\xd6\x11\x9a?'
p6810
tp6811
bag3
(g4
(I0
tp6812
g6
tp6813
Rp6814
(g483
I1
(tg487
I00
S'|\xfd%\xe2\xbc\x9cB?'
p6815
tp6816
bag3
(g4
(I0
tp6817
g6
tp6818
Rp6819
(g496
I1
(tg500
I00
S'\xe0\rX4\xd6\xec??'
p6820
tp6821
bag3
(g4
(I0
tp6822
g6
tp6823
Rp6824
(g509
I1
(tg513
I00
S'\rd\x0e\xbe\xe9JH?'
p6825
tp6826
bag3
(g4
(I0
tp6827
g6
tp6828
Rp6829
(g522
I1
(tg526
I00
S'\xa9\x1a9A\x85R\x80?'
p6830
tp6831
bag3
(g4
(I0
tp6832
g6
tp6833
Rp6834
(g535
I1
(tg539
I00
S'\xf4X\x163`,D?'
p6835
tp6836
bag3
(g4
(I0
tp6837
g6
tp6838
Rp6839
(g548
I1
(tg552
I00
S'L`\x80Z\x1b\x07n?'
p6840
tp6841
bag3
(g4
(I0
tp6842
g6
tp6843
Rp6844
(g561
I1
(tg565
I00
S'\xafD\x87\x8fiVQ?'
p6845
tp6846
bag3
(g4
(I0
tp6847
g6
tp6848
Rp6849
(g574
I1
(tg578
I00
S'<\x97\x02\x8b\x1c3>?'
p6850
tp6851
bag3
(g4
(I0
tp6852
g6
tp6853
Rp6854
(g587
I1
(tg591
I00
S'B\xdf\xf0y\xab)r?'
p6855
tp6856
bag3
(g4
(I0
tp6857
g6
tp6858
Rp6859
(g600
I1
(tg604
I00
S'=l\xbdss_d?'
p6860
tp6861
bag3
(g4
(I0
tp6862
g6
tp6863
Rp6864
(g613
I1
(tg617
I00
S'\xd7\xbb?\x88~Pm?'
p6865
tp6866
bag3
(g4
(I0
tp6867
g6
tp6868
Rp6869
(g626
I1
(tg630
I00
S'\xd8A;\x10\xea]\x95?'
p6870
tp6871
bag3
(g4
(I0
tp6872
g6
tp6873
Rp6874
(g639
I1
(tg643
I00
S'\x10\xc0\xf3\xd6_\x1dD?'
p6875
tp6876
bag3
(g4
(I0
tp6877
g6
tp6878
Rp6879
(g652
I1
(tg656
I00
S'\xae\xc8\x8a5\xbf[\x89?'
p6880
tp6881
bag3
(g4
(I0
tp6882
g6
tp6883
Rp6884
(g665
I1
(tg669
I00
S't\xb7=\xde\x99e8?'
p6885
tp6886
bag3
(g4
(I0
tp6887
g6
tp6888
Rp6889
(g678
I1
(tg682
I00
S'\x91 \x87\x165T5?'
p6890
tp6891
bag3
(g4
(I0
tp6892
g6
tp6893
Rp6894
(g691
I1
(tg695
I00
S'.C\x1c\xeb\xe26\x1a?'
p6895
tp6896
bag3
(g4
(I0
tp6897
g6
tp6898
Rp6899
(g704
I1
(tg708
I00
S'\xc1 \xf1\xfd\xaf\xfa??'
p6900
tp6901
bag3
(g4
(I0
tp6902
g6
tp6903
Rp6904
(g717
I1
(tg721
I00
S'\xfbs\xd5p\xcc,D?'
p6905
tp6906
bag3
(g4
(I0
tp6907
g6
tp6908
Rp6909
(g730
I1
(tg734
I00
S'\x98\xccAdr\xceo?'
p6910
tp6911
bag3
(g4
(I0
tp6912
g6
tp6913
Rp6914
(g743
I1
(tg747
I00
S'\xfd\x8cp 7\x95J?'
p6915
tp6916
bag3
(g4
(I0
tp6917
g6
tp6918
Rp6919
(g756
I1
(tg760
I00
S'a\xf1\xdaj\xc3e/?'
p6920
tp6921
bag3
(g4
(I0
tp6922
g6
tp6923
Rp6924
(g769
I1
(tg773
I00
S'(\x06}\xf0\xc4\xcdK?'
p6925
tp6926
bag3
(g4
(I0
tp6927
g6
tp6928
Rp6929
(g782
I1
(tg786
I00
S'\xb3\xa7\x05\xa3\x82\x08\x8c?'
p6930
tp6931
bag3
(g4
(I0
tp6932
g6
tp6933
Rp6934
(g795
I1
(tg799
I00
S'M\xf1\xbb\x11\xfc\xdbJ?'
p6935
tp6936
bag3
(g4
(I0
tp6937
g6
tp6938
Rp6939
(g808
I1
(tg812
I00
S'\x98\x08-.\x0e\xe5\x1a?'
p6940
tp6941
bag3
(g4
(I0
tp6942
g6
tp6943
Rp6944
(g821
I1
(tg825
I00
S':\xe5\x05\x97?\xfe\x88?'
p6945
tp6946
bag3
(g4
(I0
tp6947
g6
tp6948
Rp6949
(g834
I1
(tg838
I00
S'\x97&\x13\x1a&;r?'
p6950
tp6951
bag3
(g4
(I0
tp6952
g6
tp6953
Rp6954
(g847
I1
(tg851
I00
S'\xf3e>\xce\xea-2?'
p6955
tp6956
bag3
(g4
(I0
tp6957
g6
tp6958
Rp6959
(g860
I1
(tg864
I00
S'C@Eg \xd0\x91?'
p6960
tp6961
bag3
(g4
(I0
tp6962
g6
tp6963
Rp6964
(g873
I1
(tg877
I00
S'\x8ev\xda\x89\xbd\x85h?'
p6965
tp6966
bag3
(g4
(I0
tp6967
g6
tp6968
Rp6969
(g886
I1
(tg890
I00
S'\x95\x123\x0e\xb9\xdc3?'
p6970
tp6971
bag3
(g4
(I0
tp6972
g6
tp6973
Rp6974
(g899
I1
(tg903
I00
S'\xd6\xfe\xd3\x11\xd2kt?'
p6975
tp6976
bag3
(g4
(I0
tp6977
g6
tp6978
Rp6979
(g912
I1
(tg916
I00
S'\xea}\x03\x91\x8b\x17\x92?'
p6980
tp6981
bag3
(g4
(I0
tp6982
g6
tp6983
Rp6984
(g925
I1
(tg929
I00
S'&\xe2$^\x982\x98?'
p6985
tp6986
bag3
(g4
(I0
tp6987
g6
tp6988
Rp6989
(g938
I1
(tg942
I00
S'\xb5\xeb\xd8\x15\xdaf\x91?'
p6990
tp6991
bag3
(g4
(I0
tp6992
g6
tp6993
Rp6994
(g951
I1
(tg955
I00
S'\xe6M\x0f\xcf\xb3\xd0\x98?'
p6995
tp6996
bag3
(g4
(I0
tp6997
g6
tp6998
Rp6999
(g964
I1
(tg968
I00
S'Q\xe4\xdd{\xd3\x7f\x95?'
p7000
tp7001
bag3
(g4
(I0
tp7002
g6
tp7003
Rp7004
(g977
I1
(tg981
I00
S'\x94\xb5U\xc0\x81\x12V?'
p7005
tp7006
bag3
(g4
(I0
tp7007
g6
tp7008
Rp7009
(g990
I1
(tg994
I00
S'2iU\x88\x81.\x1c?'
p7010
tp7011
bag3
(g4
(I0
tp7012
g6
tp7013
Rp7014
(g1003
I1
(tg1007
I00
S'\xa7H\xb8f\x16\x83I?'
p7015
tp7016
bag3
(g4
(I0
tp7017
g6
tp7018
Rp7019
(g1016
I1
(tg1020
I00
S'\x95\x8ezv\x07]\x1b?'
p7020
tp7021
bag3
(g4
(I0
tp7022
g6
tp7023
Rp7024
(g1029
I1
(tg1033
I00
S'l\xf9\xcc.!\x0c&?'
p7025
tp7026
bag3
(g4
(I0
tp7027
g6
tp7028
Rp7029
(g1042
I1
(tg1046
I00
S'\xca\xdd\xe8\x7f\x06\xc4$?'
p7030
tp7031
bag3
(g4
(I0
tp7032
g6
tp7033
Rp7034
(g1055
I1
(tg1059
I00
S'\x83\x89\x85O\x8b\xd41?'
p7035
tp7036
bag3
(g4
(I0
tp7037
g6
tp7038
Rp7039
(g1068
I1
(tg1072
I00
S"O'\x15Y:\xa4\x1b?"
p7040
tp7041
bag3
(g4
(I0
tp7042
g6
tp7043
Rp7044
(g1081
I1
(tg1085
I00
S'\xc3d\x1f\xb1|\x83\x8c?'
p7045
tp7046
bag3
(g4
(I0
tp7047
g6
tp7048
Rp7049
(g1094
I1
(tg1098
I00
S'\xbe\xf0 ;\xcd\xfb/?'
p7050
tp7051
bag3
(g4
(I0
tp7052
g6
tp7053
Rp7054
(g1107
I1
(tg1111
I00
S"\xc4\x1e\x1a\x9d'\xe8q?"
p7055
tp7056
bag3
(g4
(I0
tp7057
g6
tp7058
Rp7059
(g1120
I1
(tg1124
I00
S's\x94\xfev\x08e\x84?'
p7060
tp7061
bag3
(g4
(I0
tp7062
g6
tp7063
Rp7064
(g1133
I1
(tg1137
I00
S'\x9b\xe0bW  1?'
p7065
tp7066
bag3
(g4
(I0
tp7067
g6
tp7068
Rp7069
(g1146
I1
(tg1150
I00
S',C\x1c\xeb\xe26\x1a?'
p7070
tp7071
bag3
(g4
(I0
tp7072
g6
tp7073
Rp7074
(g1159
I1
(tg1163
I00
S'\xb5@\x93\xd0MKK?'
p7075
tp7076
bag3
(g4
(I0
tp7077
g6
tp7078
Rp7079
(g1172
I1
(tg1176
I00
S'\x8f@\xfd.\x83\xbcJ?'
p7080
tp7081
bag3
(g4
(I0
tp7082
g6
tp7083
Rp7084
(g1185
I1
(tg1189
I00
S'\x17\r\xf8\xfb\x0b(T?'
p7085
tp7086
bag3
(g4
(I0
tp7087
g6
tp7088
Rp7089
(g1198
I1
(tg1202
I00
S'\xe575\xa4\xadZU?'
p7090
tp7091
bag3
(g4
(I0
tp7092
g6
tp7093
Rp7094
(g1211
I1
(tg1215
I00
S'\x08\xc5\xc3\xb6\xbe\xc6S?'
p7095
tp7096
bag3
(g4
(I0
tp7097
g6
tp7098
Rp7099
(g1224
I1
(tg1228
I00
S'\x12\n\xa2\x12\n\t\x83?'
p7100
tp7101
basS'mgas'
p7102
(lp7103
g3
(g4
(I0
tp7104
g6
tp7105
Rp7106
(g3600
I1
(tg19
I00
S'/q\xbf\x1f\x8a&\xdcA'
p7107
tp7108
bag3
(g4
(I0
tp7109
g6
tp7110
Rp7111
(g3630
I1
(tg32
I00
S'\xf7\xd5\xc2\x00\xe0-\xddA'
p7112
tp7113
bag3
(g4
(I0
tp7114
g6
tp7115
Rp7116
(g3642
I1
(tg45
I00
S'\xa9\xa7\x03\x16\xb5\x94\xa4A'
p7117
tp7118
bag3
(g4
(I0
tp7119
g6
tp7120
Rp7121
(g3654
I1
(tg58
I00
S'\xfa\xc9\x8a,<\x89\xf2A'
p7122
tp7123
bag3
(g4
(I0
tp7124
g6
tp7125
Rp7126
(g3666
I1
(tg71
I00
S'&\x19^0{\xb7nA'
p7127
tp7128
bag3
(g4
(I0
tp7129
g6
tp7130
Rp7131
(g3678
I1
(tg84
I00
S'\xbe6\xf3\xd4W&aA'
p7132
tp7133
bag3
(g4
(I0
tp7134
g6
tp7135
Rp7136
(g3690
I1
(tg97
I00
S'\x05\xbf\xe1\x87\x0e\xda\xd5A'
p7137
tp7138
bag3
(g4
(I0
tp7139
g6
tp7140
Rp7141
(g3702
I1
(tg110
I00
S'\x0e\xde\xf5\x19\xdc\x7f\x84A'
p7142
tp7143
bag3
(g4
(I0
tp7144
g6
tp7145
Rp7146
(g3714
I1
(tg123
I00
S'P\xa96X\xa6DKA'
p7147
tp7148
bag3
(g4
(I0
tp7149
g6
tp7150
Rp7151
(g3726
I1
(tg136
I00
S'\x00\x00\x00\x00\x00\x00\x00\x00'
p7152
tp7153
bag3
(g4
(I0
tp7154
g6
tp7155
Rp7156
(g3738
I1
(tg149
I00
S'|:\xf2\x06\xd9\x86\xedA'
p7157
tp7158
bag3
(g4
(I0
tp7159
g6
tp7160
Rp7161
(g3750
I1
(tg162
I00
S'J\xdb\xe4\x10\xc8SdA'
p7162
tp7163
bag3
(g4
(I0
tp7164
g6
tp7165
Rp7166
(g3762
I1
(tg175
I00
S'\xb7\x97N\xf4\xad\x85\xeaA'
p7167
tp7168
bag3
(g4
(I0
tp7169
g6
tp7170
Rp7171
(g3774
I1
(tg188
I00
S'P,\x8bdmz\xe3A'
p7172
tp7173
bag3
(g4
(I0
tp7174
g6
tp7175
Rp7176
(g3786
I1
(tg201
I00
S'\xfaS\x91\xeb\xac\xfa\xf1A'
p7177
tp7178
bag3
(g4
(I0
tp7179
g6
tp7180
Rp7181
(g3798
I1
(tg214
I00
S'\xbeNq(Md\x0cB'
p7182
tp7183
bag3
(g4
(I0
tp7184
g6
tp7185
Rp7186
(g3810
I1
(tg227
I00
S'Pe(\x91\xcb!xA'
p7187
tp7188
bag3
(g4
(I0
tp7189
g6
tp7190
Rp7191
(g3822
I1
(tg240
I00
S"]\xe2'\xd1\xe0P\x99A"
p7192
tp7193
bag3
(g4
(I0
tp7194
g6
tp7195
Rp7196
(g3834
I1
(tg253
I00
S'\xda\xa9M`\xf1\xf6\x94A'
p7197
tp7198
bag3
(g4
(I0
tp7199
g6
tp7200
Rp7201
(g3846
I1
(tg266
I00
S'\xba\x8c\xed!f\xa1iA'
p7202
tp7203
bag3
(g4
(I0
tp7204
g6
tp7205
Rp7206
(g3858
I1
(tg279
I00
S'ZX\x87\xd4\xd4G\xfbA'
p7207
tp7208
bag3
(g4
(I0
tp7209
g6
tp7210
Rp7211
(g3870
I1
(tg292
I00
S'\x12\xb0te\x01\xc4sA'
p7212
tp7213
bag3
(g4
(I0
tp7214
g6
tp7215
Rp7216
(g3882
I1
(tg305
I00
S'\x0e\xc1\xcd\xacK\xa4\xe1A'
p7217
tp7218
bag3
(g4
(I0
tp7219
g6
tp7220
Rp7221
(g3894
I1
(tg318
I00
S'\xe2Om\xd5\x90tqA'
p7222
tp7223
bag3
(g4
(I0
tp7224
g6
tp7225
Rp7226
(g3906
I1
(tg331
I00
S'\xfe\xdb\xb0\xa0\x18\xc6\xddA'
p7227
tp7228
bag3
(g4
(I0
tp7229
g6
tp7230
Rp7231
(g3918
I1
(tg344
I00
S'\x98\xe4\xefg\xa6pwA'
p7232
tp7233
bag3
(g4
(I0
tp7234
g6
tp7235
Rp7236
(g3930
I1
(tg357
I00
S'\x7f\xdb\xc0j\xeb\xdc~A'
p7237
tp7238
bag3
(g4
(I0
tp7239
g6
tp7240
Rp7241
(g3942
I1
(tg370
I00
S"\xd3\xc3\xf3\x02\\'\x84A"
p7242
tp7243
bag3
(g4
(I0
tp7244
g6
tp7245
Rp7246
(g3954
I1
(tg383
I00
S'V\x9b\xa9i\xe9\xcb\xe7A'
p7247
tp7248
bag3
(g4
(I0
tp7249
g6
tp7250
Rp7251
(g3966
I1
(tg396
I00
S'(\xad\xde\xfa\xdeV\xebA'
p7252
tp7253
bag3
(g4
(I0
tp7254
g6
tp7255
Rp7256
(g3978
I1
(tg409
I00
S'\xf0\xa9\xbf\xfd\x94e\xeaA'
p7257
tp7258
bag3
(g4
(I0
tp7259
g6
tp7260
Rp7261
(g3990
I1
(tg422
I00
S'\x8e1\xef\x16)\xe7\xe6A'
p7262
tp7263
bag3
(g4
(I0
tp7264
g6
tp7265
Rp7266
(g4002
I1
(tg435
I00
S'\xf6\x1e\xf5\xa1\xbc3\xe3A'
p7267
tp7268
bag3
(g4
(I0
tp7269
g6
tp7270
Rp7271
(g4014
I1
(tg448
I00
S'\x84\xa935\x06\x92\x83A'
p7272
tp7273
bag3
(g4
(I0
tp7274
g6
tp7275
Rp7276
(g4026
I1
(tg461
I00
S'S\xfdX\xcd\xed.\xafA'
p7277
tp7278
bag3
(g4
(I0
tp7279
g6
tp7280
Rp7281
(g4038
I1
(tg474
I00
S'\xf7$su_\xd4\xfdA'
p7282
tp7283
bag3
(g4
(I0
tp7284
g6
tp7285
Rp7286
(g4050
I1
(tg487
I00
S'F\x18|d\xea$\xa0A'
p7287
tp7288
bag3
(g4
(I0
tp7289
g6
tp7290
Rp7291
(g4062
I1
(tg500
I00
S'\xc2"\x02\xf8\xc5\xe9RA'
p7292
tp7293
bag3
(g4
(I0
tp7294
g6
tp7295
Rp7296
(g4074
I1
(tg513
I00
S'\xc2\xfa\xd3NU*\x8cA'
p7297
tp7298
bag3
(g4
(I0
tp7299
g6
tp7300
Rp7301
(g4086
I1
(tg526
I00
S'[\x0c\x0c&\x99\xce\xf0A'
p7302
tp7303
bag3
(g4
(I0
tp7304
g6
tp7305
Rp7306
(g4098
I1
(tg539
I00
S"\x03\xe3\x06'x\xb4\x9aA"
p7307
tp7308
bag3
(g4
(I0
tp7309
g6
tp7310
Rp7311
(g4110
I1
(tg552
I00
S'\x98p\xa3H2\xc0\xf2A'
p7312
tp7313
bag3
(g4
(I0
tp7314
g6
tp7315
Rp7316
(g4122
I1
(tg565
I00
S'L\xc2\x7f\x15.\xba\xdaA'
p7317
tp7318
bag3
(g4
(I0
tp7319
g6
tp7320
Rp7321
(g4134
I1
(tg578
I00
S'(t6\xf5\x1bV\xaeA'
p7322
tp7323
bag3
(g4
(I0
tp7324
g6
tp7325
Rp7326
(g4146
I1
(tg591
I00
S'\x86X\x83M\x84\xf7\xf6A'
p7327
tp7328
bag3
(g4
(I0
tp7329
g6
tp7330
Rp7331
(g4158
I1
(tg604
I00
S'\x9e\xe6RH\x9d\xda\x02B'
p7332
tp7333
bag3
(g4
(I0
tp7334
g6
tp7335
Rp7336
(g4170
I1
(tg617
I00
S'\xfc\t\xe5\xd4X\x00\xf0A'
p7337
tp7338
bag3
(g4
(I0
tp7339
g6
tp7340
Rp7341
(g4182
I1
(tg630
I00
S'\xce\n4\xa2\x05\xb9\xd7A'
p7342
tp7343
bag3
(g4
(I0
tp7344
g6
tp7345
Rp7346
(g4194
I1
(tg643
I00
S'\x8c\xf6\xc9\xd9\xb6\x1d\x94A'
p7347
tp7348
bag3
(g4
(I0
tp7349
g6
tp7350
Rp7351
(g4206
I1
(tg656
I00
S'\xf0\xcb\xc4\xdc\xff\xfd\xf1A'
p7352
tp7353
bag3
(g4
(I0
tp7354
g6
tp7355
Rp7356
(g4218
I1
(tg669
I00
S'\xb0w\xb7\xfb\xcf\xac\xabA'
p7357
tp7358
bag3
(g4
(I0
tp7359
g6
tp7360
Rp7361
(g4230
I1
(tg682
I00
S'\xec\xed\xd7=\xe9\xec\xd2A'
p7362
tp7363
bag3
(g4
(I0
tp7364
g6
tp7365
Rp7366
(g4242
I1
(tg695
I00
S'G\xd6\x98N\xdex#A'
p7367
tp7368
bag3
(g4
(I0
tp7369
g6
tp7370
Rp7371
(g4254
I1
(tg708
I00
S'\x91|E\x13\xe0\xdf\xc4A'
p7372
tp7373
bag3
(g4
(I0
tp7374
g6
tp7375
Rp7376
(g4266
I1
(tg721
I00
S'!\xcb\xe2\r\xbe\xaf\xc4A'
p7377
tp7378
bag3
(g4
(I0
tp7379
g6
tp7380
Rp7381
(g4278
I1
(tg734
I00
S'Adu^L\xd4\xf2A'
p7382
tp7383
bag3
(g4
(I0
tp7384
g6
tp7385
Rp7386
(g4290
I1
(tg747
I00
S'X_\x1cU\x19\x89\xa1A'
p7387
tp7388
bag3
(g4
(I0
tp7389
g6
tp7390
Rp7391
(g4302
I1
(tg760
I00
S'!cl.\xe66KA'
p7392
tp7393
bag3
(g4
(I0
tp7394
g6
tp7395
Rp7396
(g4314
I1
(tg773
I00
S'U \xae\xf5\xd4M\x95A'
p7397
tp7398
bag3
(g4
(I0
tp7399
g6
tp7400
Rp7401
(g4326
I1
(tg786
I00
S'L\x01\xc0\x93\xcd\x8c\xf4A'
p7402
tp7403
bag3
(g4
(I0
tp7404
g6
tp7405
Rp7406
(g4338
I1
(tg799
I00
S'\x0c)P\x80K\x11\x94A'
p7407
tp7408
bag3
(g4
(I0
tp7409
g6
tp7410
Rp7411
(g4350
I1
(tg812
I00
S'\xcb\xd1M{\xf8b A'
p7412
tp7413
bag3
(g4
(I0
tp7414
g6
tp7415
Rp7416
(g4362
I1
(tg825
I00
S'A\x8f\x1b\xde\xe5\r\xf8A'
p7417
tp7418
bag3
(g4
(I0
tp7419
g6
tp7420
Rp7421
(g4374
I1
(tg838
I00
S"[\x88|'Cj\x1dB"
p7422
tp7423
bag3
(g4
(I0
tp7424
g6
tp7425
Rp7426
(g4386
I1
(tg851
I00
S'f\xdd\xa3\x06=\xc0yA'
p7427
tp7428
bag3
(g4
(I0
tp7429
g6
tp7430
Rp7431
(g4398
I1
(tg864
I00
S'l\x8eZ\xcd\xffK\xe7A'
p7432
tp7433
bag3
(g4
(I0
tp7434
g6
tp7435
Rp7436
(g4410
I1
(tg877
I00
S'j\xf3\x8d\xea\x1c\x18\xceA'
p7437
tp7438
bag3
(g4
(I0
tp7439
g6
tp7440
Rp7441
(g4422
I1
(tg890
I00
S'f:t@ \xd8\x17A'
p7442
tp7443
bag3
(g4
(I0
tp7444
g6
tp7445
Rp7446
(g4434
I1
(tg903
I00
S'\x81pU\x19\x19\xa6\xf9A'
p7447
tp7448
bag3
(g4
(I0
tp7449
g6
tp7450
Rp7451
(g4446
I1
(tg916
I00
S'\xcf\t\xd0\xaf\x86\x0c\x00B'
p7452
tp7453
bag3
(g4
(I0
tp7454
g6
tp7455
Rp7456
(g4458
I1
(tg929
I00
S'h\xde\xcb\xc2\x1a\x9f\xf5A'
p7457
tp7458
bag3
(g4
(I0
tp7459
g6
tp7460
Rp7461
(g4470
I1
(tg942
I00
S'\xfc\x08\xe0\x9do\x17\xfeA'
p7462
tp7463
bag3
(g4
(I0
tp7464
g6
tp7465
Rp7466
(g4482
I1
(tg955
I00
S'!\x8c\xc7\x81\xe0?\xe8A'
p7467
tp7468
bag3
(g4
(I0
tp7469
g6
tp7470
Rp7471
(g4494
I1
(tg968
I00
S'v\xc0\x99\xb0\xcc:\xf4A'
p7472
tp7473
bag3
(g4
(I0
tp7474
g6
tp7475
Rp7476
(g4506
I1
(tg981
I00
S"\xb5;bI\xdf'\xc5A"
p7477
tp7478
bag3
(g4
(I0
tp7479
g6
tp7480
Rp7481
(g4518
I1
(tg994
I00
S'`\xd2}F\xf5\xd0PA'
p7482
tp7483
bag3
(g4
(I0
tp7484
g6
tp7485
Rp7486
(g4530
I1
(tg1007
I00
S'\x0e!\xfeC\x14\x04\xdeA'
p7487
tp7488
bag3
(g4
(I0
tp7489
g6
tp7490
Rp7491
(g4542
I1
(tg1020
I00
S'\x8fD\xe3\xbf\xb5\xf7\xa0@'
p7492
tp7493
bag3
(g4
(I0
tp7494
g6
tp7495
Rp7496
(g4554
I1
(tg1033
I00
S'\xb0D\xb2\xc9\xe2jBA'
p7497
tp7498
bag3
(g4
(I0
tp7499
g6
tp7500
Rp7501
(g4566
I1
(tg1046
I00
S'\x90\x17v\xd0\xe4#oA'
p7502
tp7503
bag3
(g4
(I0
tp7504
g6
tp7505
Rp7506
(g4578
I1
(tg1059
I00
S'\ng\xed\xeat\xc0TA'
p7507
tp7508
bag3
(g4
(I0
tp7509
g6
tp7510
Rp7511
(g4590
I1
(tg1072
I00
S'\xb7\xe8E\xd4(\xfe(A'
p7512
tp7513
bag3
(g4
(I0
tp7514
g6
tp7515
Rp7516
(g4602
I1
(tg1085
I00
S'\xfc\xaae}\xaa\x18\xf7A'
p7517
tp7518
bag3
(g4
(I0
tp7519
g6
tp7520
Rp7521
(g4614
I1
(tg1098
I00
S'fP\x94\x9f\x92-RA'
p7522
tp7523
bag3
(g4
(I0
tp7524
g6
tp7525
Rp7526
(g4626
I1
(tg1111
I00
S'2\xc9WB\x07}\xf6A'
p7527
tp7528
bag3
(g4
(I0
tp7529
g6
tp7530
Rp7531
(g4638
I1
(tg1124
I00
S'\xaa\xf1\xcf\xee\xb1\xba\xfaA'
p7532
tp7533
bag3
(g4
(I0
tp7534
g6
tp7535
Rp7536
(g4650
I1
(tg1137
I00
S'\xecU\x80Z\n\xce`A'
p7537
tp7538
bag3
(g4
(I0
tp7539
g6
tp7540
Rp7541
(g4662
I1
(tg1150
I00
S'T#p\x99\xe6\xeeEA'
p7542
tp7543
bag3
(g4
(I0
tp7544
g6
tp7545
Rp7546
(g4674
I1
(tg1163
I00
S'\x82\x86\xfe\xd3-\xc3\xb2A'
p7547
tp7548
bag3
(g4
(I0
tp7549
g6
tp7550
Rp7551
(g4686
I1
(tg1176
I00
S'\xa44\xd9H%-\xc9A'
p7552
tp7553
bag3
(g4
(I0
tp7554
g6
tp7555
Rp7556
(g4698
I1
(tg1189
I00
S'\xe3\x08\xe8\xa5\xe9\xb8\xceA'
p7557
tp7558
bag3
(g4
(I0
tp7559
g6
tp7560
Rp7561
(g4710
I1
(tg1202
I00
S'ROx\xc4R\xe6\xa6A'
p7562
tp7563
bag3
(g4
(I0
tp7564
g6
tp7565
Rp7566
(g4722
I1
(tg1215
I00
S'\x1cE\x9bG\xf3\xac\xc5A'
p7567
tp7568
bag3
(g4
(I0
tp7569
g6
tp7570
Rp7571
(g4734
I1
(tg1228
I00
S'\xe5\x94\x1b\xff\x96`\x11B'
p7572
tp7573
basS'oh_gas4'
p7574
(lp7575
g3
(g4
(I0
tp7576
g6
tp7577
Rp7578
(g13
I1
(tg19
I00
S'\xd4Z\xc8\xbe|C\x1f@'
p7579
tp7580
bag3
(g4
(I0
tp7581
g6
tp7582
Rp7583
(g28
I1
(tg32
I00
S'\x0f\xe0\x12\xa0DU @'
p7584
tp7585
bag3
(g4
(I0
tp7586
g6
tp7587
Rp7588
(g41
I1
(tg45
I00
S'$\x01\n\xcd\x86\xaa\x1b@'
p7589
tp7590
bag3
(g4
(I0
tp7591
g6
tp7592
Rp7593
(g54
I1
(tg58
I00
S'\x83\x18\xe2\xc3\xa8\x97"@'
p7594
tp7595
bag3
(g4
(I0
tp7596
g6
tp7597
Rp7598
(g67
I1
(tg71
I00
S'\xbbQ\xed\xf71\xed\x1c@'
p7599
tp7600
bag3
(g4
(I0
tp7601
g6
tp7602
Rp7603
(g80
I1
(tg84
I00
S'\x0c-\x14u\xe3\xde\x1c@'
p7604
tp7605
bag3
(g4
(I0
tp7606
g6
tp7607
Rp7608
(g93
I1
(tg97
I00
S'"\xc3\xe5\x02(#!@'
p7609
tp7610
bag3
(g4
(I0
tp7611
g6
tp7612
Rp7613
(g106
I1
(tg110
I00
S'\xd3%t5\xc03\x1c@'
p7614
tp7615
bag3
(g4
(I0
tp7616
g6
tp7617
Rp7618
(g119
I1
(tg123
I00
S'*\x80_\xe4?v\x1d@'
p7619
tp7620
bag3
(g4
(I0
tp7621
g6
tp7622
Rp7623
(g132
I1
(tg136
I00
S'\xd5e\xa1\x8c\x97(\x1b@'
p7624
tp7625
bag3
(g4
(I0
tp7626
g6
tp7627
Rp7628
(g145
I1
(tg149
I00
S'u\x07Bn\xa4\x1f @'
p7629
tp7630
bag3
(g4
(I0
tp7631
g6
tp7632
Rp7633
(g158
I1
(tg162
I00
S'\xf9\x11\xd6\x1d\x1e\xa1\x1d@'
p7634
tp7635
bag3
(g4
(I0
tp7636
g6
tp7637
Rp7638
(g171
I1
(tg175
I00
S'F6\x81!Y$ @'
p7639
tp7640
bag3
(g4
(I0
tp7641
g6
tp7642
Rp7643
(g184
I1
(tg188
I00
S'\x94\xc2I\xecC\x1d @'
p7644
tp7645
bag3
(g4
(I0
tp7646
g6
tp7647
Rp7648
(g197
I1
(tg201
I00
S'\x9a\xff\x8c\x1a]\x98\x1e@'
p7649
tp7650
bag3
(g4
(I0
tp7651
g6
tp7652
Rp7653
(g210
I1
(tg214
I00
S'\x0e\xd8\xc5\x06\xc4\x9f"@'
p7654
tp7655
bag3
(g4
(I0
tp7656
g6
tp7657
Rp7658
(g223
I1
(tg227
I00
S'\x86\x9b\xafi\xc1\xef\x1c@'
p7659
tp7660
bag3
(g4
(I0
tp7661
g6
tp7662
Rp7663
(g236
I1
(tg240
I00
S'\x16@n\xe9\x96\x01\x1c@'
p7664
tp7665
bag3
(g4
(I0
tp7666
g6
tp7667
Rp7668
(g249
I1
(tg253
I00
S'![&\xd1,n\x1c@'
p7669
tp7670
bag3
(g4
(I0
tp7671
g6
tp7672
Rp7673
(g262
I1
(tg266
I00
S'\xcez\xbb\xb0\xccc\x1c@'
p7674
tp7675
bag3
(g4
(I0
tp7676
g6
tp7677
Rp7678
(g275
I1
(tg279
I00
S'2\x05z\xdc\xdc\x95"@'
p7679
tp7680
bag3
(g4
(I0
tp7681
g6
tp7682
Rp7683
(g288
I1
(tg292
I00
S'\x97N\xd1}\xd5\xae\x1c@'
p7684
tp7685
bag3
(g4
(I0
tp7686
g6
tp7687
Rp7688
(g301
I1
(tg305
I00
S'\xf0*+\xe0f[!@'
p7689
tp7690
bag3
(g4
(I0
tp7691
g6
tp7692
Rp7693
(g314
I1
(tg318
I00
S'I4U\xd4\xb6j\x1d@'
p7694
tp7695
bag3
(g4
(I0
tp7696
g6
tp7697
Rp7698
(g327
I1
(tg331
I00
S'\xa0\x13\xa5\xa9\x06\x08 @'
p7699
tp7700
bag3
(g4
(I0
tp7701
g6
tp7702
Rp7703
(g340
I1
(tg344
I00
S'\x87M@)\xc95\x1d@'
p7704
tp7705
bag3
(g4
(I0
tp7706
g6
tp7707
Rp7708
(g353
I1
(tg357
I00
S'\xd1\x01A\xbb\xe0\x12\x1d@'
p7709
tp7710
bag3
(g4
(I0
tp7711
g6
tp7712
Rp7713
(g366
I1
(tg370
I00
S'\x9fF\xd8\xb8{\xe0\x1c@'
p7714
tp7715
bag3
(g4
(I0
tp7716
g6
tp7717
Rp7718
(g379
I1
(tg383
I00
S"\x8b\xcd\xa6\xcf\xbf'!@"
p7719
tp7720
bag3
(g4
(I0
tp7721
g6
tp7722
Rp7723
(g392
I1
(tg396
I00
S'khjd|\xe4 @'
p7724
tp7725
bag3
(g4
(I0
tp7726
g6
tp7727
Rp7728
(g405
I1
(tg409
I00
S'Xr\x0c8\xf0\xab!@'
p7729
tp7730
bag3
(g4
(I0
tp7731
g6
tp7732
Rp7733
(g418
I1
(tg422
I00
S'\x118A\x83CS @'
p7734
tp7735
bag3
(g4
(I0
tp7736
g6
tp7737
Rp7738
(g431
I1
(tg435
I00
S'\xdac\x01\xb0j\x10"@'
p7739
tp7740
bag3
(g4
(I0
tp7741
g6
tp7742
Rp7743
(g444
I1
(tg448
I00
S'\xdbk\xf5\xe4\xfd\xe4\x1e@'
p7744
tp7745
bag3
(g4
(I0
tp7746
g6
tp7747
Rp7748
(g457
I1
(tg461
I00
S'\x9cDW\xd3\n\x04\x1d@'
p7749
tp7750
bag3
(g4
(I0
tp7751
g6
tp7752
Rp7753
(g470
I1
(tg474
I00
S'\t\xb5\xb1\x0f\x0e\xbd"@'
p7754
tp7755
bag3
(g4
(I0
tp7756
g6
tp7757
Rp7758
(g483
I1
(tg487
I00
S'-4\xdfm*\xcc\x1d@'
p7759
tp7760
bag3
(g4
(I0
tp7761
g6
tp7762
Rp7763
(g496
I1
(tg500
I00
S'Y1\xe5\xb8\xdd\xe8\x1d@'
p7764
tp7765
bag3
(g4
(I0
tp7766
g6
tp7767
Rp7768
(g509
I1
(tg513
I00
S'\xa6\xea\x91t\x1f\xc0\x1e@'
p7769
tp7770
bag3
(g4
(I0
tp7771
g6
tp7772
Rp7773
(g522
I1
(tg526
I00
S'6\x8c6\x8e\x89\x90!@'
p7774
tp7775
bag3
(g4
(I0
tp7776
g6
tp7777
Rp7778
(g535
I1
(tg539
I00
S'\x84\xe0\xb2\xd66F\x1e@'
p7779
tp7780
bag3
(g4
(I0
tp7781
g6
tp7782
Rp7783
(g548
I1
(tg552
I00
S'\x86w\xed\xea\x1b\xd0 @'
p7784
tp7785
bag3
(g4
(I0
tp7786
g6
tp7787
Rp7788
(g561
I1
(tg565
I00
S'E&,Cn&\x1f@'
p7789
tp7790
bag3
(g4
(I0
tp7791
g6
tp7792
Rp7793
(g574
I1
(tg578
I00
S')(z\x95br\x1d@'
p7794
tp7795
bag3
(g4
(I0
tp7796
g6
tp7797
Rp7798
(g587
I1
(tg591
I00
S'/\x8c\xaa\xc1\xbe\xde @'
p7799
tp7800
bag3
(g4
(I0
tp7801
g6
tp7802
Rp7803
(g600
I1
(tg604
I00
S'\x86\x81s\x81\xc8U @'
p7804
tp7805
bag3
(g4
(I0
tp7806
g6
tp7807
Rp7808
(g613
I1
(tg617
I00
S"`\xecy\xe8'\xa2 @"
p7809
tp7810
bag3
(g4
(I0
tp7811
g6
tp7812
Rp7813
(g626
I1
(tg630
I00
S'\x14\xfa\x1d?+y"@'
p7814
tp7815
bag3
(g4
(I0
tp7816
g6
tp7817
Rp7818
(g639
I1
(tg643
I00
S'\xe1N\xba\xe4\x81\xc9\x1e@'
p7819
tp7820
bag3
(g4
(I0
tp7821
g6
tp7822
Rp7823
(g652
I1
(tg656
I00
S'\x9c\x8e\x99\xd2\xc4\xd8!@'
p7824
tp7825
bag3
(g4
(I0
tp7826
g6
tp7827
Rp7828
(g665
I1
(tg669
I00
S'\x1bl\xaa\x0e\xae9\x1d@'
p7829
tp7830
bag3
(g4
(I0
tp7831
g6
tp7832
Rp7833
(g678
I1
(tg682
I00
S'\xdb\xdeE\x0e;#\x1d@'
p7834
tp7835
bag3
(g4
(I0
tp7836
g6
tp7837
Rp7838
(g691
I1
(tg695
I00
S'\xd4\x02\xe7\xd6\x19.\x17@'
p7839
tp7840
bag3
(g4
(I0
tp7841
g6
tp7842
Rp7843
(g704
I1
(tg708
I00
S'\xd3\xd3cu\x0b\xdc\x1d@'
p7844
tp7845
bag3
(g4
(I0
tp7846
g6
tp7847
Rp7848
(g717
I1
(tg721
I00
S'\tE\xcfr\x14!\x1e@'
p7849
tp7850
bag3
(g4
(I0
tp7851
g6
tp7852
Rp7853
(g730
I1
(tg734
I00
S'r\t\\Ta\xce @'
p7854
tp7855
bag3
(g4
(I0
tp7856
g6
tp7857
Rp7858
(g743
I1
(tg747
I00
S'\x05\xb1\x908\x17\xcf\x1e@'
p7859
tp7860
bag3
(g4
(I0
tp7861
g6
tp7862
Rp7863
(g756
I1
(tg760
I00
S'\x93U.d\x125\x1c@'
p7864
tp7865
bag3
(g4
(I0
tp7866
g6
tp7867
Rp7868
(g769
I1
(tg773
I00
S'\x01\x07+\xcdz\xc5\x1e@'
p7869
tp7870
bag3
(g4
(I0
tp7871
g6
tp7872
Rp7873
(g782
I1
(tg786
I00
S'J\xcec\x143\x18"@'
p7874
tp7875
bag3
(g4
(I0
tp7876
g6
tp7877
Rp7878
(g795
I1
(tg799
I00
S'\xea[\x91\xe3\x8b+\x1f@'
p7879
tp7880
bag3
(g4
(I0
tp7881
g6
tp7882
Rp7883
(g808
I1
(tg812
I00
S'\xc5rw\xcea\xdd\x19@'
p7884
tp7885
bag3
(g4
(I0
tp7886
g6
tp7887
Rp7888
(g821
I1
(tg825
I00
S'\x928>)\xfc\xf7!@'
p7889
tp7890
bag3
(g4
(I0
tp7891
g6
tp7892
Rp7893
(g834
I1
(tg838
I00
S'fh\xd7ck\xff @'
p7894
tp7895
bag3
(g4
(I0
tp7896
g6
tp7897
Rp7898
(g847
I1
(tg851
I00
S'\xfby\x8e\xb7\xa9\x9d\x1c@'
p7899
tp7900
bag3
(g4
(I0
tp7901
g6
tp7902
Rp7903
(g860
I1
(tg864
I00
S'\x96\x9ee\x1d\x1d/"@'
p7904
tp7905
bag3
(g4
(I0
tp7906
g6
tp7907
Rp7908
(g873
I1
(tg877
I00
S'Psk\xc8\xacq @'
p7909
tp7910
bag3
(g4
(I0
tp7911
g6
tp7912
Rp7913
(g886
I1
(tg890
I00
S'\x96\xd65Ug/\x1c@'
p7914
tp7915
bag3
(g4
(I0
tp7916
g6
tp7917
Rp7918
(g899
I1
(tg903
I00
S'\x92{1Ip\xf3 @'
p7919
tp7920
bag3
(g4
(I0
tp7921
g6
tp7922
Rp7923
(g912
I1
(tg916
I00
S'\xfai\x95Q\x80\'"@'
p7924
tp7925
bag3
(g4
(I0
tp7926
g6
tp7927
Rp7928
(g925
I1
(tg929
I00
S'\xde\x14X\xf8\x0f\xb0"@'
p7929
tp7930
bag3
(g4
(I0
tp7931
g6
tp7932
Rp7933
(g938
I1
(tg942
I00
S'M\xb2x\xee\x8e\x1c"@'
p7934
tp7935
bag3
(g4
(I0
tp7936
g6
tp7937
Rp7938
(g951
I1
(tg955
I00
S'\xa1c&\xe3#\xb7"@'
p7939
tp7940
bag3
(g4
(I0
tp7941
g6
tp7942
Rp7943
(g964
I1
(tg968
I00
S'\x1e\xb5\xae\xee\xd1o"@'
p7944
tp7945
bag3
(g4
(I0
tp7946
g6
tp7947
Rp7948
(g977
I1
(tg981
I00
S'\t\xd3\xad#%\x94\x1f@'
p7949
tp7950
bag3
(g4
(I0
tp7951
g6
tp7952
Rp7953
(g990
I1
(tg994
I00
S'\xf4\xd2&C\xfd\xfc\x18@'
p7954
tp7955
bag3
(g4
(I0
tp7956
g6
tp7957
Rp7958
(g1003
I1
(tg1007
I00
S'\x0f6\x0bgQ|\x1e@'
p7959
tp7960
bag3
(g4
(I0
tp7961
g6
tp7962
Rp7963
(g1016
I1
(tg1020
I00
S'\x12\x0c7D\x04\x89\x19@'
p7964
tp7965
bag3
(g4
(I0
tp7966
g6
tp7967
Rp7968
(g1029
I1
(tg1033
I00
S'\x91\xc0\xf7\xdeh\x8f\x1c@'
p7969
tp7970
bag3
(g4
(I0
tp7971
g6
tp7972
Rp7973
(g1042
I1
(tg1046
I00
S'\xd6\xf3\x9ew\xf1\x91\x1c@'
p7974
tp7975
bag3
(g4
(I0
tp7976
g6
tp7977
Rp7978
(g1055
I1
(tg1059
I00
S',\x06\xf7\x15\x80H\x1d@'
p7979
tp7980
bag3
(g4
(I0
tp7981
g6
tp7982
Rp7983
(g1068
I1
(tg1072
I00
S')Q\xbd\x9a\xec&\x1b@'
p7984
tp7985
bag3
(g4
(I0
tp7986
g6
tp7987
Rp7988
(g1081
I1
(tg1085
I00
S'k\xb1d\xe1\xfe\x0c"@'
p7989
tp7990
bag3
(g4
(I0
tp7991
g6
tp7992
Rp7993
(g1094
I1
(tg1098
I00
S'Sw\x9b\xbf\x85\x19\x1d@'
p7994
tp7995
bag3
(g4
(I0
tp7996
g6
tp7997
Rp7998
(g1107
I1
(tg1111
I00
S'\xe9\xe7\xf7x\xd2\xe5 @'
p7999
tp8000
bag3
(g4
(I0
tp8001
g6
tp8002
Rp8003
(g1120
I1
(tg1124
I00
S'\xc0$%\x82\x82\xb7!@'
p8004
tp8005
bag3
(g4
(I0
tp8006
g6
tp8007
Rp8008
(g1133
I1
(tg1137
I00
S'\x86\xd6o\xcdQ/\x1d@'
p8009
tp8010
bag3
(g4
(I0
tp8011
g6
tp8012
Rp8013
(g1146
I1
(tg1150
I00
S"\xafe\x8a'\xd4\x84\x14@"
p8014
tp8015
bag3
(g4
(I0
tp8016
g6
tp8017
Rp8018
(g1159
I1
(tg1163
I00
S'\x11q\xe7\xc3\xea\x96\x1e@'
p8019
tp8020
bag3
(g4
(I0
tp8021
g6
tp8022
Rp8023
(g1172
I1
(tg1176
I00
S'\x04\xd0\xed*\xfb`\x1e@'
p8024
tp8025
bag3
(g4
(I0
tp8026
g6
tp8027
Rp8028
(g1185
I1
(tg1189
I00
S'v\x97\x927\x97\x8f\x1f@'
p8029
tp8030
bag3
(g4
(I0
tp8031
g6
tp8032
Rp8033
(g1198
I1
(tg1202
I00
S'\xe3V#`E\xa0\x1f@'
p8034
tp8035
bag3
(g4
(I0
tp8036
g6
tp8037
Rp8038
(g1211
I1
(tg1215
I00
S'.K7^H\x95\x1f@'
p8039
tp8040
bag3
(g4
(I0
tp8041
g6
tp8042
Rp8043
(g1224
I1
(tg1228
I00
S'\xfc\x7f\xbf\xf5j\x96!@'
p8044
tp8045
basS'time'
p8046
(lp8047
F10.374171969283916
aF10.374171969283916
aF10.374176033994898
aF10.374171969283916
aF10.374176033994898
aF10.374176033994898
aF10.374171969283916
aF10.374176033994898
aF10.374176033994898
aF10.374176033994898
aF10.374171969283916
aF10.374176033994898
aF10.374171969283916
aF10.374171969283916
aF10.374171969283916
aF10.374171969283916
aF10.374176033994898
aF10.374176033994898
aF10.374176033994898
aF10.374176033994898
aF10.374171969283916
aF10.374176033994898
aF10.374171969283916
aF10.374176033994898
aF10.374171969283916
aF10.374176033994898
aF10.374176033994898
aF10.374176033994898
aF10.374171969283916
aF10.374171969283916
aF10.374171969283916
aF10.374171969283916
aF10.374171969283916
aF10.374171969283916
aF10.374176033994898
aF10.374171969283916
aF10.374171969283916
aF10.374171969283916
aF10.374176033994898
aF10.374171969283916
aF10.374171969283916
aF10.374171969283916
aF10.374171969283916
aF10.374171969283916
aF10.374171969283916
aF10.374171969283916
aF10.374171969283916
aF10.374171969283916
aF10.374171969283916
aF10.374171969283916
aF10.374171969283916
aF10.374171969283916
aF10.374176033994898
aF10.374171969283916
aF10.374171969283916
aF10.374171969283916
aF10.374171969283916
aF10.374176033994898
aF10.374171969283916
aF10.374171969283916
aF10.374171969283916
aF10.374176033994898
aF10.374171969283916
aF10.374171969283916
aF10.374176033994898
aF10.374171969283916
aF10.374171969283916
aF10.37417313058964
aF10.374171969283916
aF10.374171969283916
aF10.374171969283916
aF10.374171969283916
aF10.374171969283916
aF10.374171969283916
aF10.374171969283916
aF10.37417313058964
aF10.374171969283916
aF10.374169493517925
aF10.374169493517925
aF10.374169493518012
aF10.374169493517925
aF10.374169493517925
aF10.374171969283916
aF10.37417313058964
aF10.374171969283916
aF10.374171969283916
aF10.374176033994898
aF10.37417313058964
aF10.374171969283916
aF10.374171969283916
aF10.374171969283916
aF10.374171969283916
aF10.374171969283916
aF10.374171969283916
asS'mstar_tot'
p8048
(lp8049
g3
(g4
(I0
tp8050
g6
tp8051
Rp8052
(g3600
I1
(tg19
I00
S'\xbc\xdf\xb7Hs\xf9\xb8A'
p8053
tp8054
bag3
(g4
(I0
tp8055
g6
tp8056
Rp8057
(g3630
I1
(tg32
I00
S'5\x10\xf6\xbfY\xc7\xc7A'
p8058
tp8059
bag3
(g4
(I0
tp8060
g6
tp8061
Rp8062
(g3642
I1
(tg45
I00
S"L\x98\x8a\x8f\xcd'SA"
p8063
tp8064
bag3
(g4
(I0
tp8065
g6
tp8066
Rp8067
(g3654
I1
(tg58
I00
S'Gp\xe0\x01\xb4\xe5.B'
p8068
tp8069
bag3
(g4
(I0
tp8070
g6
tp8071
Rp8072
(g3666
I1
(tg71
I00
S'i&#\x96q\xb6GA'
p8073
tp8074
bag3
(g4
(I0
tp8075
g6
tp8076
Rp8077
(g3678
I1
(tg84
I00
S'\xeaH\x91p\x9f*6A'
p8078
tp8079
bag3
(g4
(I0
tp8080
g6
tp8081
Rp8082
(g3690
I1
(tg97
I00
S'>\x8c#~\xc5\xe9\xd9A'
p8083
tp8084
bag3
(g4
(I0
tp8085
g6
tp8086
Rp8087
(g3702
I1
(tg110
I00
S'\x16\xf1\x18y\x81wUA'
p8088
tp8089
bag3
(g4
(I0
tp8090
g6
tp8091
Rp8092
(g3714
I1
(tg123
I00
S'\x9al\x19\xda<^`A'
p8093
tp8094
bag3
(g4
(I0
tp8095
g6
tp8096
Rp8097
(g3726
I1
(tg136
I00
S't\xb2\xa1\xa5\xc3\xa2JA'
p8098
tp8099
bag3
(g4
(I0
tp8100
g6
tp8101
Rp8102
(g3738
I1
(tg149
I00
S'\x83\xfa[/h\x19\xc7A'
p8103
tp8104
bag3
(g4
(I0
tp8105
g6
tp8106
Rp8107
(g3750
I1
(tg162
I00
S'\xbc C\xd3l\xaa`A'
p8108
tp8109
bag3
(g4
(I0
tp8110
g6
tp8111
Rp8112
(g3762
I1
(tg175
I00
S'\t\x1f\x93:\x997\xc9A'
p8113
tp8114
bag3
(g4
(I0
tp8115
g6
tp8116
Rp8117
(g3774
I1
(tg188
I00
S"\x95'?\xc0?\xd7\xc2A"
p8118
tp8119
bag3
(g4
(I0
tp8120
g6
tp8121
Rp8122
(g3786
I1
(tg201
I00
S'\xfc\xe8\xd0\x15\xf3\\\xb3A'
p8123
tp8124
bag3
(g4
(I0
tp8125
g6
tp8126
Rp8127
(g3798
I1
(tg214
I00
S'\xe1\xd9\x14\xb6Q\xf68B'
p8128
tp8129
bag3
(g4
(I0
tp8130
g6
tp8131
Rp8132
(g3810
I1
(tg227
I00
S'\xa8g"D\x9b\xe0nA'
p8133
tp8134
bag3
(g4
(I0
tp8135
g6
tp8136
Rp8137
(g3822
I1
(tg240
I00
S'\x84\x8a8\xac\x889YA'
p8138
tp8139
bag3
(g4
(I0
tp8140
g6
tp8141
Rp8142
(g3834
I1
(tg253
I00
S'\xa8\xd7\x15I\xd4\xd9bA'
p8143
tp8144
bag3
(g4
(I0
tp8145
g6
tp8146
Rp8147
(g3846
I1
(tg266
I00
S'\x0e\xd5\xc8\xdb\x0e\xadMA'
p8148
tp8149
bag3
(g4
(I0
tp8150
g6
tp8151
Rp8152
(g3858
I1
(tg279
I00
S'a\x02\xd2\x13!\x0e@B'
p8153
tp8154
bag3
(g4
(I0
tp8155
g6
tp8156
Rp8157
(g3870
I1
(tg292
I00
S'\xb7\xa0\x90\xb3)\xd9IA'
p8158
tp8159
bag3
(g4
(I0
tp8160
g6
tp8161
Rp8162
(g3882
I1
(tg305
I00
S'\xa4X\xde\x19\tk\xe8A'
p8163
tp8164
bag3
(g4
(I0
tp8165
g6
tp8166
Rp8167
(g3894
I1
(tg318
I00
S'\n\xd1\x0e\xa3;,^A'
p8168
tp8169
bag3
(g4
(I0
tp8170
g6
tp8171
Rp8172
(g3906
I1
(tg331
I00
S'\x14\xdc\xd2%\x0c\x0b\xc3A'
p8173
tp8174
bag3
(g4
(I0
tp8175
g6
tp8176
Rp8177
(g3918
I1
(tg344
I00
S'\x12\x132\xc5\xe8ogA'
p8178
tp8179
bag3
(g4
(I0
tp8180
g6
tp8181
Rp8182
(g3930
I1
(tg357
I00
S'D\x12\x8d\xe4i\xc5_A'
p8183
tp8184
bag3
(g4
(I0
tp8185
g6
tp8186
Rp8187
(g3942
I1
(tg370
I00
S'\xe8\xe9\x01\x90aATA'
p8188
tp8189
bag3
(g4
(I0
tp8190
g6
tp8191
Rp8192
(g3954
I1
(tg383
I00
S'q\x8b\xa5\x99wz\xe9A'
p8193
tp8194
bag3
(g4
(I0
tp8195
g6
tp8196
Rp8197
(g3966
I1
(tg396
I00
S'W\xdf\xfc\x9b\xdaw\xe4A'
p8198
tp8199
bag3
(g4
(I0
tp8200
g6
tp8201
Rp8202
(g3978
I1
(tg409
I00
S'jA\xfc\xe2\x08\xfb\xf1A'
p8203
tp8204
bag3
(g4
(I0
tp8205
g6
tp8206
Rp8207
(g3990
I1
(tg422
I00
S'\xcf` \xf5\x0b`\xdbA'
p8208
tp8209
bag3
(g4
(I0
tp8210
g6
tp8211
Rp8212
(g4002
I1
(tg435
I00
S'\xb6\xdd\xac\xc6d\xc2\x01B'
p8213
tp8214
bag3
(g4
(I0
tp8215
g6
tp8216
Rp8217
(g4014
I1
(tg448
I00
S'\x11\xceV\xd6\x88\xc2\x83A'
p8218
tp8219
bag3
(g4
(I0
tp8220
g6
tp8221
Rp8222
(g4026
I1
(tg461
I00
S'hF\x1bn\xde\xe0|A'
p8223
tp8224
bag3
(g4
(I0
tp8225
g6
tp8226
Rp8227
(g4038
I1
(tg474
I00
S'\r\xd6\xd9a\xa8ZDB'
p8228
tp8229
bag3
(g4
(I0
tp8230
g6
tp8231
Rp8232
(g4050
I1
(tg487
I00
S'Y\x85\x9a\xea\xccH~A'
p8233
tp8234
bag3
(g4
(I0
tp8235
g6
tp8236
Rp8237
(g4062
I1
(tg500
I00
S'\x8f\xfd\x9a\xbd4\xba}A'
p8238
tp8239
bag3
(g4
(I0
tp8240
g6
tp8241
Rp8242
(g4074
I1
(tg513
I00
S'\xa4\xc3\x04\x83\x8b\t\x8bA'
p8243
tp8244
bag3
(g4
(I0
tp8245
g6
tp8246
Rp8247
(g4086
I1
(tg526
I00
S'aT\xf4\x91]_\xf3A'
p8248
tp8249
bag3
(g4
(I0
tp8250
g6
tp8251
Rp8252
(g4098
I1
(tg539
I00
S'=0\xd7=\xcek\x81A'
p8253
tp8254
bag3
(g4
(I0
tp8255
g6
tp8256
Rp8257
(g4110
I1
(tg552
I00
S'\x1f#\xa0\xe65h\xe2A'
p8258
tp8259
bag3
(g4
(I0
tp8260
g6
tp8261
Rp8262
(g4122
I1
(tg565
I00
S'\xaf\x8c\xba\xadr.\xafA'
p8263
tp8264
bag3
(g4
(I0
tp8265
g6
tp8266
Rp8267
(g4134
I1
(tg578
I00
S'\xa3\x9cD(~\x1f\x88A'
p8268
tp8269
bag3
(g4
(I0
tp8270
g6
tp8271
Rp8272
(g4146
I1
(tg591
I00
S'\xbanN\xcbV^\xe7A'
p8273
tp8274
bag3
(g4
(I0
tp8275
g6
tp8276
Rp8277
(g4158
I1
(tg604
I00
S"\xeeo\x15\x1b*'\xe1A"
p8278
tp8279
bag3
(g4
(I0
tp8280
g6
tp8281
Rp8282
(g4170
I1
(tg617
I00
S'V\xd3B\xba/\xd0\xe2A'
p8283
tp8284
bag3
(g4
(I0
tp8285
g6
tp8286
Rp8287
(g4182
I1
(tg630
I00
S'-\xc9 }\xaa\xd5\x12B'
p8288
tp8289
bag3
(g4
(I0
tp8290
g6
tp8291
Rp8292
(g4194
I1
(tg643
I00
S'Z\xda\x89\xd3\xa4~\x89A'
p8293
tp8294
bag3
(g4
(I0
tp8295
g6
tp8296
Rp8297
(g4206
I1
(tg656
I00
S'\xe65\x1d\xa9$\xa0\x00B'
p8298
tp8299
bag3
(g4
(I0
tp8300
g6
tp8301
Rp8302
(g4218
I1
(tg669
I00
S'\x1a\x94)\xa8\x1d\xee\x7fA'
p8303
tp8304
bag3
(g4
(I0
tp8305
g6
tp8306
Rp8307
(g4230
I1
(tg682
I00
S'\x9e\xf1\x8b\xdc\xfeM\x81A'
p8308
tp8309
bag3
(g4
(I0
tp8310
g6
tp8311
Rp8312
(g4242
I1
(tg695
I00
S'z\xc2v\xfdP\x18\xe0@'
p8313
tp8314
bag3
(g4
(I0
tp8315
g6
tp8316
Rp8317
(g4254
I1
(tg708
I00
S')\xf1A\xe1\x1a\xc7\x97A'
p8318
tp8319
bag3
(g4
(I0
tp8320
g6
tp8321
Rp8322
(g4266
I1
(tg721
I00
S'\x16|\x17\x8a\xeaW\x9dA'
p8323
tp8324
bag3
(g4
(I0
tp8325
g6
tp8326
Rp8327
(g4278
I1
(tg734
I00
S'Y\xd3\xab\x85iv\xe3A'
p8328
tp8329
bag3
(g4
(I0
tp8330
g6
tp8331
Rp8332
(g4290
I1
(tg747
I00
S'\xb2\x89$\xce\xe1Y\x97A'
p8333
tp8334
bag3
(g4
(I0
tp8335
g6
tp8336
Rp8337
(g4302
I1
(tg760
I00
S'\xd2\x80\xa7\xdb\x9e\x9a\x12A'
p8338
tp8339
bag3
(g4
(I0
tp8340
g6
tp8341
Rp8342
(g4314
I1
(tg773
I00
S'\xc1F,\x0ef\xbd\x9aA'
p8343
tp8344
bag3
(g4
(I0
tp8345
g6
tp8346
Rp8347
(g4326
I1
(tg786
I00
S'\x0e!\xf9\xcd\xd4\xad\x07B'
p8348
tp8349
bag3
(g4
(I0
tp8350
g6
tp8351
Rp8352
(g4338
I1
(tg799
I00
S'>\xaf\\\xbeR\xe4\x95A'
p8353
tp8354
bag3
(g4
(I0
tp8355
g6
tp8356
Rp8357
(g4350
I1
(tg812
I00
S'G{\xd1;Z\x96\xfc@'
p8358
tp8359
bag3
(g4
(I0
tp8360
g6
tp8361
Rp8362
(g4362
I1
(tg825
I00
S'z\rh%W\xcf\x05B'
p8363
tp8364
bag3
(g4
(I0
tp8365
g6
tp8366
Rp8367
(g4374
I1
(tg838
I00
S'\xa8\xf0\x13\xa7a\xe3\xf3A'
p8368
tp8369
bag3
(g4
(I0
tp8370
g6
tp8371
Rp8372
(g4386
I1
(tg851
I00
S'6{<\xdb\x839=A'
p8373
tp8374
bag3
(g4
(I0
tp8375
g6
tp8376
Rp8377
(g4398
I1
(tg864
I00
S'\xcb\xd0\x12\xc6\x046\x17B'
p8378
tp8379
bag3
(g4
(I0
tp8380
g6
tp8381
Rp8382
(g4410
I1
(tg877
I00
S'\x14Lv\xc8\xd8\xf5\xbaA'
p8383
tp8384
bag3
(g4
(I0
tp8385
g6
tp8386
Rp8387
(g4422
I1
(tg890
I00
S'\x0e\x85`\x9f\xf2\xec\x14A'
p8388
tp8389
bag3
(g4
(I0
tp8390
g6
tp8391
Rp8392
(g4434
I1
(tg903
I00
S'\xfci\xb2\xfap\x86\xf6A'
p8393
tp8394
bag3
(g4
(I0
tp8395
g6
tp8396
Rp8397
(g4446
I1
(tg916
I00
S'\n\x86\xbc\xce\xa4\x08\x18B'
p8398
tp8399
bag3
(g4
(I0
tp8400
g6
tp8401
Rp8402
(g4458
I1
(tg929
I00
S"2\xfe\xcdD\x9eH'B"
p8403
tp8404
bag3
(g4
(I0
tp8405
g6
tp8406
Rp8407
(g4470
I1
(tg942
I00
S'\x1d\x9d\x92\xc3\xc5W\x15B'
p8408
tp8409
bag3
(g4
(I0
tp8410
g6
tp8411
Rp8412
(g4482
I1
(tg955
I00
S'Zs\xd2\xbfR\x81+B'
p8413
tp8414
bag3
(g4
(I0
tp8415
g6
tp8416
Rp8417
(g4494
I1
(tg968
I00
S'.\x07\x0e\r\x11*$B'
p8418
tp8419
bag3
(g4
(I0
tp8420
g6
tp8421
Rp8422
(g4506
I1
(tg981
I00
S'i}\x1d\xb2\t\xef\xb3A'
p8423
tp8424
bag3
(g4
(I0
tp8425
g6
tp8426
Rp8427
(g4518
I1
(tg994
I00
S'\xfc#gusg\xea@'
p8428
tp8429
bag3
(g4
(I0
tp8430
g6
tp8431
Rp8432
(g4530
I1
(tg1007
I00
S'+}\n\xef\xf0\x10\xa8A'
p8433
tp8434
bag3
(g4
(I0
tp8435
g6
tp8436
Rp8437
(g4542
I1
(tg1020
I00
S'\xba\xec\xbf\xc5d\xd3\xf6@'
p8438
tp8439
bag3
(g4
(I0
tp8440
g6
tp8441
Rp8442
(g4554
I1
(tg1033
I00
S'PM\x99\xaf\xc6\xbe#A'
p8443
tp8444
bag3
(g4
(I0
tp8445
g6
tp8446
Rp8447
(g4566
I1
(tg1046
I00
S'\xa2\xb4\xe9\x85\xd1\x0f\x15A'
p8448
tp8449
bag3
(g4
(I0
tp8450
g6
tp8451
Rp8452
(g4578
I1
(tg1059
I00
S'H@\xdf\xa2\x0ba6A'
p8453
tp8454
bag3
(g4
(I0
tp8455
g6
tp8456
Rp8457
(g4590
I1
(tg1072
I00
S'\x88\x1e\x82!\xda \x18A'
p8458
tp8459
bag3
(g4
(I0
tp8460
g6
tp8461
Rp8462
(g4602
I1
(tg1085
I00
S'\xd0dN\x9a\xf5\x92\x0eB'
p8463
tp8464
bag3
(g4
(I0
tp8465
g6
tp8466
Rp8467
(g4614
I1
(tg1098
I00
S'\xec\xf0{N\xee\xd41A'
p8468
tp8469
bag3
(g4
(I0
tp8470
g6
tp8471
Rp8472
(g4626
I1
(tg1111
I00
S'\xb3\xd7\x0c<A\xd2\xe5A'
p8473
tp8474
bag3
(g4
(I0
tp8475
g6
tp8476
Rp8477
(g4638
I1
(tg1124
I00
S'Wz\xccX5\xfa\x03B'
p8478
tp8479
bag3
(g4
(I0
tp8480
g6
tp8481
Rp8482
(g4650
I1
(tg1137
I00
S'\xc36\xe8\x14m@9A'
p8483
tp8484
bag3
(g4
(I0
tp8485
g6
tp8486
Rp8487
(g4662
I1
(tg1150
I00
S'\xef@\x9d\x0f\xe4\xc4\xeb@'
p8488
tp8489
bag3
(g4
(I0
tp8490
g6
tp8491
Rp8492
(g4674
I1
(tg1163
I00
S'\xf6\xf7\xed\xde\x96\xd2\x91A'
p8493
tp8494
bag3
(g4
(I0
tp8495
g6
tp8496
Rp8497
(g4686
I1
(tg1176
I00
S'\x8e\x9bY\x08\xeeN\xa5A'
p8498
tp8499
bag3
(g4
(I0
tp8500
g6
tp8501
Rp8502
(g4698
I1
(tg1189
I00
S'a\x07{\x14}p\xb5A'
p8503
tp8504
bag3
(g4
(I0
tp8505
g6
tp8506
Rp8507
(g4710
I1
(tg1202
I00
S'\xc9\xd5\x9fJ8^\xacA'
p8508
tp8509
bag3
(g4
(I0
tp8510
g6
tp8511
Rp8512
(g4722
I1
(tg1215
I00
S'\x9c\x9fG^\x11\x1d\xb3A'
p8513
tp8514
bag3
(g4
(I0
tp8515
g6
tp8516
Rp8517
(g4734
I1
(tg1228
I00
S'7\xae\x00\xd6\x8a\x9a\x0cB'
p8518
tp8519
basS'oh_gas'
p8520
(lp8521
g3
(g4
(I0
tp8522
g6
tp8523
Rp8524
(g13
I1
(tg19
I00
S'\xe8\x916\x8bqB\x1f@'
p8525
tp8526
bag3
(g4
(I0
tp8527
g6
tp8528
Rp8529
(g28
I1
(tg32
I00
S'ZMx\x1c\xeeT @'
p8530
tp8531
bag3
(g4
(I0
tp8532
g6
tp8533
Rp8534
(g41
I1
(tg45
I00
S'\x8a?=\xfa9"\x1c@'
p8535
tp8536
bag3
(g4
(I0
tp8537
g6
tp8538
Rp8539
(g54
I1
(tg58
I00
S'\x96\x10\xf4v\x03\xaf"@'
p8540
tp8541
bag3
(g4
(I0
tp8542
g6
tp8543
Rp8544
(g67
I1
(tg71
I00
S'\xf0\xcc\x1a\x17A\xee\x1c@'
p8545
tp8546
bag3
(g4
(I0
tp8547
g6
tp8548
Rp8549
(g80
I1
(tg84
I00
S'F\xa9\x90\xce,\xe9\x1c@'
p8550
tp8551
bag3
(g4
(I0
tp8552
g6
tp8553
Rp8554
(g93
I1
(tg97
I00
S'@g\xa9\xf1\x9b&!@'
p8555
tp8556
bag3
(g4
(I0
tp8557
g6
tp8558
Rp8559
(g106
I1
(tg110
I00
S'\x12=\x0c\xa7\x7f\xd0\x1c@'
p8560
tp8561
bag3
(g4
(I0
tp8562
g6
tp8563
Rp8564
(g119
I1
(tg123
I00
S'B\xba\xb9\x9fB{\x1d@'
p8565
tp8566
bag3
(g4
(I0
tp8567
g6
tp8568
Rp8569
(g132
I1
(tg136
I00
S'\x00\x00\x00\x00\x00\x00\xf8\xff'
p8570
tp8571
bag3
(g4
(I0
tp8572
g6
tp8573
Rp8574
(g145
I1
(tg149
I00
S"\xbd'\xc4\x7f^\x17 @"
p8575
tp8576
bag3
(g4
(I0
tp8577
g6
tp8578
Rp8579
(g158
I1
(tg162
I00
S'),\xaccT\x9d\x1d@'
p8580
tp8581
bag3
(g4
(I0
tp8582
g6
tp8583
Rp8584
(g171
I1
(tg175
I00
S'\xa4\xc5\xfd\xd1j# @'
p8585
tp8586
bag3
(g4
(I0
tp8587
g6
tp8588
Rp8589
(g184
I1
(tg188
I00
S'\xc7\xd2/@\x13\x16 @'
p8590
tp8591
bag3
(g4
(I0
tp8592
g6
tp8593
Rp8594
(g197
I1
(tg201
I00
S'q\x9a7:)\x7f\x1e@'
p8595
tp8596
bag3
(g4
(I0
tp8597
g6
tp8598
Rp8599
(g210
I1
(tg214
I00
S'4\xe2\xe0\xc0f\xad"@'
p8600
tp8601
bag3
(g4
(I0
tp8602
g6
tp8603
Rp8604
(g223
I1
(tg227
I00
S',C8"\x19A\x1d@'
p8605
tp8606
bag3
(g4
(I0
tp8607
g6
tp8608
Rp8609
(g236
I1
(tg240
I00
S'\xb9P?\xe1\x05\xe7\x1b@'
p8610
tp8611
bag3
(g4
(I0
tp8612
g6
tp8613
Rp8614
(g249
I1
(tg253
I00
S'uV4\xf1\x98\x89\x1c@'
p8615
tp8616
bag3
(g4
(I0
tp8617
g6
tp8618
Rp8619
(g262
I1
(tg266
I00
S'\xb1l\x05)]\xe9\x1c@'
p8620
tp8621
bag3
(g4
(I0
tp8622
g6
tp8623
Rp8624
(g275
I1
(tg279
I00
S'\x88ZSk\'\xb3"@'
p8625
tp8626
bag3
(g4
(I0
tp8627
g6
tp8628
Rp8629
(g288
I1
(tg292
I00
S'\xfe^\xa7d\xd0\xed\x1c@'
p8630
tp8631
bag3
(g4
(I0
tp8632
g6
tp8633
Rp8634
(g301
I1
(tg305
I00
S'\x1f\xa2-4\xcc_!@'
p8635
tp8636
bag3
(g4
(I0
tp8637
g6
tp8638
Rp8639
(g314
I1
(tg318
I00
S'K\xd08l\xffi\x1d@'
p8640
tp8641
bag3
(g4
(I0
tp8642
g6
tp8643
Rp8644
(g327
I1
(tg331
I00
S'\x0e %\x0e\x13\t @'
p8645
tp8646
bag3
(g4
(I0
tp8647
g6
tp8648
Rp8649
(g340
I1
(tg344
I00
S'|B\x86V\x88<\x1d@'
p8650
tp8651
bag3
(g4
(I0
tp8652
g6
tp8653
Rp8654
(g353
I1
(tg357
I00
S'c\x89\xc5ju\x16\x1d@'
p8655
tp8656
bag3
(g4
(I0
tp8657
g6
tp8658
Rp8659
(g366
I1
(tg370
I00
S"2'\xe8:\x02\xf8\x1c@"
p8660
tp8661
bag3
(g4
(I0
tp8662
g6
tp8663
Rp8664
(g379
I1
(tg383
I00
S'B\x13Lo\x90)!@'
p8665
tp8666
bag3
(g4
(I0
tp8667
g6
tp8668
Rp8669
(g392
I1
(tg396
I00
S'\x1a2\xab\x92\x86\xe4 @'
p8670
tp8671
bag3
(g4
(I0
tp8672
g6
tp8673
Rp8674
(g405
I1
(tg409
I00
S'\x82\xc6\xd0>\xfa\xaa!@'
p8675
tp8676
bag3
(g4
(I0
tp8677
g6
tp8678
Rp8679
(g418
I1
(tg422
I00
S'\xf3\xf4\xfa\xe7\xb8[ @'
p8680
tp8681
bag3
(g4
(I0
tp8682
g6
tp8683
Rp8684
(g431
I1
(tg435
I00
S'\xd5|\xd2y\xb4 "@'
p8685
tp8686
bag3
(g4
(I0
tp8687
g6
tp8688
Rp8689
(g444
I1
(tg448
I00
S'\x92\xefR^\xef\xea\x1e@'
p8690
tp8691
bag3
(g4
(I0
tp8692
g6
tp8693
Rp8694
(g457
I1
(tg461
I00
S'\x9e\\P\xf7 \x10\x1d@'
p8695
tp8696
bag3
(g4
(I0
tp8697
g6
tp8698
Rp8699
(g470
I1
(tg474
I00
S'\xd4v\x01\x84\x9d\xd4"@'
p8700
tp8701
bag3
(g4
(I0
tp8702
g6
tp8703
Rp8704
(g483
I1
(tg487
I00
S'W\x1b\xca\xddE\xd2\x1d@'
p8705
tp8706
bag3
(g4
(I0
tp8707
g6
tp8708
Rp8709
(g496
I1
(tg500
I00
S'\xc4\x84A\xbe\xe5\x06\x1e@'
p8710
tp8711
bag3
(g4
(I0
tp8712
g6
tp8713
Rp8714
(g509
I1
(tg513
I00
S'\xb5\xab\xbd\xab\x9d\xc0\x1e@'
p8715
tp8716
bag3
(g4
(I0
tp8717
g6
tp8718
Rp8719
(g522
I1
(tg526
I00
S'\xdc\xff\xff\xb6\xcf\x94!@'
p8720
tp8721
bag3
(g4
(I0
tp8722
g6
tp8723
Rp8724
(g535
I1
(tg539
I00
S'9\xec\x04\x10\nX\x1e@'
p8725
tp8726
bag3
(g4
(I0
tp8727
g6
tp8728
Rp8729
(g548
I1
(tg552
I00
S'\x87\xd3\x96,$\xcf @'
p8730
tp8731
bag3
(g4
(I0
tp8732
g6
tp8733
Rp8734
(g561
I1
(tg565
I00
S'\xafE\xf3\xf10+\x1f@'
p8735
tp8736
bag3
(g4
(I0
tp8737
g6
tp8738
Rp8739
(g574
I1
(tg578
I00
S'\x0bY^\xbe\xc9o\x1d@'
p8740
tp8741
bag3
(g4
(I0
tp8742
g6
tp8743
Rp8744
(g587
I1
(tg591
I00
S'9\xcf\xf1QN\xd6 @'
p8745
tp8746
bag3
(g4
(I0
tp8747
g6
tp8748
Rp8749
(g600
I1
(tg604
I00
S'X\xbe\xc5$\x9fO @'
p8750
tp8751
bag3
(g4
(I0
tp8752
g6
tp8753
Rp8754
(g613
I1
(tg617
I00
S'\xe1\xc3\xdc\xd9;\xa2 @'
p8755
tp8756
bag3
(g4
(I0
tp8757
g6
tp8758
Rp8759
(g626
I1
(tg630
I00
S'\x0e\r\x0b9\x9c\x8c"@'
p8760
tp8761
bag3
(g4
(I0
tp8762
g6
tp8763
Rp8764
(g639
I1
(tg643
I00
S'\x0c(7D6\xcd\x1e@'
p8765
tp8766
bag3
(g4
(I0
tp8767
g6
tp8768
Rp8769
(g652
I1
(tg656
I00
S'\xf2\x93\xeff\t\xdf!@'
p8770
tp8771
bag3
(g4
(I0
tp8772
g6
tp8773
Rp8774
(g665
I1
(tg669
I00
S'\xbd\xeay\xd3\x9dA\x1d@'
p8775
tp8776
bag3
(g4
(I0
tp8777
g6
tp8778
Rp8779
(g678
I1
(tg682
I00
S'8\x02\x8b\x9e{\xa6\x1c@'
p8780
tp8781
bag3
(g4
(I0
tp8782
g6
tp8783
Rp8784
(g691
I1
(tg695
I00
S'g\x80\xfb\xc9{\x82\x17@'
p8785
tp8786
bag3
(g4
(I0
tp8787
g6
tp8788
Rp8789
(g704
I1
(tg708
I00
S'\xb3r\xde&\xcf\xe2\x1d@'
p8790
tp8791
bag3
(g4
(I0
tp8792
g6
tp8793
Rp8794
(g717
I1
(tg721
I00
S'4\xd3\xb4tC-\x1e@'
p8795
tp8796
bag3
(g4
(I0
tp8797
g6
tp8798
Rp8799
(g730
I1
(tg734
I00
S'\xa6$\xe3\x83Y\xcb @'
p8800
tp8801
bag3
(g4
(I0
tp8802
g6
tp8803
Rp8804
(g743
I1
(tg747
I00
S'\x17\xb9\x9f\xcck\xdb\x1e@'
p8805
tp8806
bag3
(g4
(I0
tp8807
g6
tp8808
Rp8809
(g756
I1
(tg760
I00
S'[+\x11\x10\x8bl\x1c@'
p8810
tp8811
bag3
(g4
(I0
tp8812
g6
tp8813
Rp8814
(g769
I1
(tg773
I00
S'\xbd\xd7a&\xcc\xcc\x1e@'
p8815
tp8816
bag3
(g4
(I0
tp8817
g6
tp8818
Rp8819
(g782
I1
(tg786
I00
S'Y"\x16r\x85\x18"@'
p8820
tp8821
bag3
(g4
(I0
tp8822
g6
tp8823
Rp8824
(g795
I1
(tg799
I00
S'\xf4t2M.)\x1f@'
p8825
tp8826
bag3
(g4
(I0
tp8827
g6
tp8828
Rp8829
(g808
I1
(tg812
I00
S'#"#\xd5\x8a\xf7\x19@'
p8830
tp8831
bag3
(g4
(I0
tp8832
g6
tp8833
Rp8834
(g821
I1
(tg825
I00
S'\xe7\x82\xa10\xb5\xf8!@'
p8835
tp8836
bag3
(g4
(I0
tp8837
g6
tp8838
Rp8839
(g834
I1
(tg838
I00
S'xf\xd0\xda^\xa8 @'
p8840
tp8841
bag3
(g4
(I0
tp8842
g6
tp8843
Rp8844
(g847
I1
(tg851
I00
S'C\x96\xc9R\x83\xae\x1c@'
p8845
tp8846
bag3
(g4
(I0
tp8847
g6
tp8848
Rp8849
(g860
I1
(tg864
I00
S'\x99\xfc\x94\x1eh("@'
p8850
tp8851
bag3
(g4
(I0
tp8852
g6
tp8853
Rp8854
(g873
I1
(tg877
I00
S'M\xfb\xbek\x07w @'
p8855
tp8856
bag3
(g4
(I0
tp8857
g6
tp8858
Rp8859
(g886
I1
(tg890
I00
S'3\xc7\xcdq\xf0>\x1c@'
p8860
tp8861
bag3
(g4
(I0
tp8862
g6
tp8863
Rp8864
(g899
I1
(tg903
I00
S'\x02\x96\xea[L\xf0 @'
p8865
tp8866
bag3
(g4
(I0
tp8867
g6
tp8868
Rp8869
(g912
I1
(tg916
I00
S'\x9f\x1b\xd26\xd2("@'
p8870
tp8871
bag3
(g4
(I0
tp8872
g6
tp8873
Rp8874
(g925
I1
(tg929
I00
S'\xe6<\x12\xaa\xbf\xb8"@'
p8875
tp8876
bag3
(g4
(I0
tp8877
g6
tp8878
Rp8879
(g938
I1
(tg942
I00
S'\x1d\xea\x94(L!"@'
p8880
tp8881
bag3
(g4
(I0
tp8882
g6
tp8883
Rp8884
(g951
I1
(tg955
I00
S'r\xdc\xa3\xc9\xcc\xcc"@'
p8885
tp8886
bag3
(g4
(I0
tp8887
g6
tp8888
Rp8889
(g964
I1
(tg968
I00
S'\x07\xcbH\x90\x8e~"@'
p8890
tp8891
bag3
(g4
(I0
tp8892
g6
tp8893
Rp8894
(g977
I1
(tg981
I00
S'\x0e-\ne\t\x9c\x1f@'
p8895
tp8896
bag3
(g4
(I0
tp8897
g6
tp8898
Rp8899
(g990
I1
(tg994
I00
S'T*\xf8\xcf\xd6P\x19@'
p8900
tp8901
bag3
(g4
(I0
tp8902
g6
tp8903
Rp8904
(g1003
I1
(tg1007
I00
S'3\xc4\xf0Q\x01u\x1e@'
p8905
tp8906
bag3
(g4
(I0
tp8907
g6
tp8908
Rp8909
(g1016
I1
(tg1020
I00
S'I~>\tm:\x1a@'
p8910
tp8911
bag3
(g4
(I0
tp8912
g6
tp8913
Rp8914
(g1029
I1
(tg1033
I00
S'\xa9\x15nfP\x95\x1c@'
p8915
tp8916
bag3
(g4
(I0
tp8917
g6
tp8918
Rp8919
(g1042
I1
(tg1046
I00
S'\xf2l\xafL\x18]\x1c@'
p8920
tp8921
bag3
(g4
(I0
tp8922
g6
tp8923
Rp8924
(g1055
I1
(tg1059
I00
S'\x12]H\x87\x8eE\x1d@'
p8925
tp8926
bag3
(g4
(I0
tp8927
g6
tp8928
Rp8929
(g1068
I1
(tg1072
I00
S'bi&\t\x94q\x1b@'
p8930
tp8931
bag3
(g4
(I0
tp8932
g6
tp8933
Rp8934
(g1081
I1
(tg1085
I00
S'\xdb\xd4\x10\x94\xb5\n"@'
p8935
tp8936
bag3
(g4
(I0
tp8937
g6
tp8938
Rp8939
(g1094
I1
(tg1098
I00
S'\xe9\xd5\x07\x0c\xeb.\x1d@'
p8940
tp8941
bag3
(g4
(I0
tp8942
g6
tp8943
Rp8944
(g1107
I1
(tg1111
I00
S'\x99y\xbdu\x11\xe3 @'
p8945
tp8946
bag3
(g4
(I0
tp8947
g6
tp8948
Rp8949
(g1120
I1
(tg1124
I00
S'\x16\xdb\xe4\x1c\xfc\xb9!@'
p8950
tp8951
bag3
(g4
(I0
tp8952
g6
tp8953
Rp8954
(g1133
I1
(tg1137
I00
S'q\xc5"`\xcc.\x1d@'
p8955
tp8956
bag3
(g4
(I0
tp8957
g6
tp8958
Rp8959
(g1146
I1
(tg1150
I00
S'i\x9b[\xdb\xaaF\x15@'
p8960
tp8961
bag3
(g4
(I0
tp8962
g6
tp8963
Rp8964
(g1159
I1
(tg1163
I00
S'|\x83\xa6\xfe\xf7\xae\x1e@'
p8965
tp8966
bag3
(g4
(I0
tp8967
g6
tp8968
Rp8969
(g1172
I1
(tg1176
I00
S'G\xae\x05\xe8\xcdm\x1e@'
p8970
tp8971
bag3
(g4
(I0
tp8972
g6
tp8973
Rp8974
(g1185
I1
(tg1189
I00
S'\xe2)\xf9C-\x97\x1f@'
p8975
tp8976
bag3
(g4
(I0
tp8977
g6
tp8978
Rp8979
(g1198
I1
(tg1202
I00
S'i\xf79H2\xa8\x1f@'
p8980
tp8981
bag3
(g4
(I0
tp8982
g6
tp8983
Rp8984
(g1211
I1
(tg1215
I00
S'\xfb\xab\x9f\xc4\xba\x98\x1f@'
p8985
tp8986
bag3
(g4
(I0
tp8987
g6
tp8988
Rp8989
(g1224
I1
(tg1228
I00
S'\xaf\xb3\xca@\xaa\x92!@'
p8990
tp8991
basS'z'
p8992
(lp8993
F0.2895219817258434
aF0.2895219817258434
aF0.2895219817258434
aF0.2895219817258434
aF0.2895219817258434
aF0.2895219817258434
aF0.2895219817258434
aF0.2895219817258434
aF0.2895219817258434
aF0.2895219817258434
aF0.2895219817258434
aF0.2895219817258434
aF0.2895219817258434
aF0.2895219817258434
aF0.2895219817258434
aF0.2895219817258434
aF0.2895219817258434
aF0.2895219817258434
aF0.2895219817258434
aF0.2895219817258434
aF0.2895219817258434
aF0.2895219817258434
aF0.2895219817258434
aF0.2895219817258434
aF0.2895219817258434
aF0.2895219817258434
aF0.2895219817258434
aF0.2895219817258434
aF0.2895219817258434
aF0.2895219817258434
aF0.2895219817258434
aF0.2895219817258434
aF0.2895219817258434
aF0.2895219817258434
aF0.2895219817258434
aF0.2895219817258434
aF0.2895219817258434
aF0.2895219817258434
aF0.2895219817258434
aF0.2895219817258434
aF0.2895219817258434
aF0.2895219817258434
aF0.2895219817258434
aF0.2895219817258434
aF0.2895219817258434
aF0.2895219817258434
aF0.2895219817258434
aF0.2895219817258434
aF0.2895219817258434
aF0.2895219817258434
aF0.2895219817258434
aF0.2895219817258434
aF0.2895219817258434
aF0.2895219817258434
aF0.2895219817258434
aF0.2895219817258434
aF0.2895219817258434
aF0.2895219817258434
aF0.2895219817258434
aF0.2895219817258434
aF0.2895219817258434
aF0.2895219817258434
aF0.2895219817258434
aF0.2895219817258434
aF0.2895219817258434
aF0.2895219817258434
aF0.2895219817258434
aF0.2895219817258434
aF0.2895219817258434
aF0.2895219817258434
aF0.2895219817258434
aF0.2895219817258434
aF0.2895219817258434
aF0.2895219817258434
aF0.2895219817258434
aF0.2895219817258434
aF0.2895219817258434
aF0.2895219817258434
aF0.2895219817258434
aF0.28952198172583454
aF0.2895219817258434
aF0.2895219817258434
aF0.2895219817258434
aF0.2895219817258434
aF0.2895219817258434
aF0.2895219817258434
aF0.2895219817258434
aF0.2895219817258434
aF0.2895219817258434
aF0.2895219817258434
aF0.2895219817258434
aF0.2895219817258434
aF0.2895219817258434
aF0.2895219817258434
asS'mstar'
p8994
(lp8995
g3
(g4
(I0
tp8996
g6
tp8997
Rp8998
(g3600
I1
(tg19
I00
S'\x83\xa8\xc6y\xfew\xb2A'
p8999
tp9000
bag3
(g4
(I0
tp9001
g6
tp9002
Rp9003
(g3630
I1
(tg32
I00
S'\xe4\x03\xd5\x08\xf1\x8c\xc4A'
p9004
tp9005
bag3
(g4
(I0
tp9006
g6
tp9007
Rp9008
(g3642
I1
(tg45
I00
S'\x92\xf9\xb8qw\xdcLA'
p9009
tp9010
bag3
(g4
(I0
tp9011
g6
tp9012
Rp9013
(g3654
I1
(tg58
I00
S'\x01\xc9\x17m\x0f\x85*B'
p9014
tp9015
bag3
(g4
(I0
tp9016
g6
tp9017
Rp9018
(g3666
I1
(tg71
I00
S'b<,\xad5\xa9?A'
p9019
tp9020
bag3
(g4
(I0
tp9021
g6
tp9022
Rp9023
(g3678
I1
(tg84
I00
S'@\xa1\xdb\xadF-)A'
p9024
tp9025
bag3
(g4
(I0
tp9026
g6
tp9027
Rp9028
(g3690
I1
(tg97
I00
S'awm\xd2XO\xd4A'
p9029
tp9030
bag3
(g4
(I0
tp9031
g6
tp9032
Rp9033
(g3702
I1
(tg110
I00
S'\xbc[\xfd\xc4\x8b\xdbPA'
p9034
tp9035
bag3
(g4
(I0
tp9036
g6
tp9037
Rp9038
(g3714
I1
(tg123
I00
S'"\x0e)\xc2\x89aSA'
p9039
tp9040
bag3
(g4
(I0
tp9041
g6
tp9042
Rp9043
(g3726
I1
(tg136
I00
S'\xfbWL\xeapiDA'
p9044
tp9045
bag3
(g4
(I0
tp9046
g6
tp9047
Rp9048
(g3738
I1
(tg149
I00
S'p\xe8\x08FT\xee\xc2A'
p9049
tp9050
bag3
(g4
(I0
tp9051
g6
tp9052
Rp9053
(g3750
I1
(tg162
I00
S'Z\r67\xcc\xc8TA'
p9054
tp9055
bag3
(g4
(I0
tp9056
g6
tp9057
Rp9058
(g3762
I1
(tg175
I00
S'\xa7\x8a\x17\x05\x17\xd4\xc4A'
p9059
tp9060
bag3
(g4
(I0
tp9061
g6
tp9062
Rp9063
(g3774
I1
(tg188
I00
S'o\xf9\xe1\x0c\xacm\xc0A'
p9064
tp9065
bag3
(g4
(I0
tp9066
g6
tp9067
Rp9068
(g3786
I1
(tg201
I00
S'\xf0\xbe\xa5\xec4\xa4\xb1A'
p9069
tp9070
bag3
(g4
(I0
tp9071
g6
tp9072
Rp9073
(g3798
I1
(tg214
I00
S'\xa2\xfd\x91\xde\xb1\xbc1B'
p9074
tp9075
bag3
(g4
(I0
tp9076
g6
tp9077
Rp9078
(g3810
I1
(tg227
I00
S'\xa8\xf7\xb53\xabCkA'
p9079
tp9080
bag3
(g4
(I0
tp9081
g6
tp9082
Rp9083
(g3822
I1
(tg240
I00
S'\xec\xc0\xa8\xae`9TA'
p9084
tp9085
bag3
(g4
(I0
tp9086
g6
tp9087
Rp9088
(g3834
I1
(tg253
I00
S'\x1c\x07+\xb9M\xcaZA'
p9089
tp9090
bag3
(g4
(I0
tp9091
g6
tp9092
Rp9093
(g3846
I1
(tg266
I00
S'\x14\xf9c\x9f\xaf[CA'
p9094
tp9095
bag3
(g4
(I0
tp9096
g6
tp9097
Rp9098
(g3858
I1
(tg279
I00
S'Da5\x801m:B'
p9099
tp9100
bag3
(g4
(I0
tp9101
g6
tp9102
Rp9103
(g3870
I1
(tg292
I00
S"\xe07\x16<'\xe5EA"
p9104
tp9105
bag3
(g4
(I0
tp9106
g6
tp9107
Rp9108
(g3882
I1
(tg305
I00
S'\xb94\xbe\xb63c\xe1A'
p9109
tp9110
bag3
(g4
(I0
tp9111
g6
tp9112
Rp9113
(g3894
I1
(tg318
I00
S'7\xfa\x93|~`RA'
p9114
tp9115
bag3
(g4
(I0
tp9116
g6
tp9117
Rp9118
(g3906
I1
(tg331
I00
S'\x88\xdc\xbcq\xb3\xad\xbdA'
p9119
tp9120
bag3
(g4
(I0
tp9121
g6
tp9122
Rp9123
(g3918
I1
(tg344
I00
S'\xee\xa5\x8c\x07R\x84_A'
p9124
tp9125
bag3
(g4
(I0
tp9126
g6
tp9127
Rp9128
(g3930
I1
(tg357
I00
S'\xca\xc3\xa7\xa8\xb5\xaeXA'
p9129
tp9130
bag3
(g4
(I0
tp9131
g6
tp9132
Rp9133
(g3942
I1
(tg370
I00
S'\x94\xc1\x85f\xc1 MA'
p9134
tp9135
bag3
(g4
(I0
tp9136
g6
tp9137
Rp9138
(g3954
I1
(tg383
I00
S'\xc2\xdc,wV\xe3\xe0A'
p9139
tp9140
bag3
(g4
(I0
tp9141
g6
tp9142
Rp9143
(g3966
I1
(tg396
I00
S'R\xb2\xb8\xae\xf7f\xe0A'
p9144
tp9145
bag3
(g4
(I0
tp9146
g6
tp9147
Rp9148
(g3978
I1
(tg409
I00
S'\xc77\x9f!\xd5\x04\xefA'
p9149
tp9150
bag3
(g4
(I0
tp9151
g6
tp9152
Rp9153
(g3990
I1
(tg422
I00
S'\x87\xb4R\xb7\x1c\xf5\xd0A'
p9154
tp9155
bag3
(g4
(I0
tp9156
g6
tp9157
Rp9158
(g4002
I1
(tg435
I00
S'\x03\xef\xaf\xe3\xb1\xc4\xfeA'
p9159
tp9160
bag3
(g4
(I0
tp9161
g6
tp9162
Rp9163
(g4014
I1
(tg448
I00
S'%\x8d\x1d\x19\x90\r|A'
p9164
tp9165
bag3
(g4
(I0
tp9166
g6
tp9167
Rp9168
(g4026
I1
(tg461
I00
S'\xc8 2\x92\x07:vA'
p9169
tp9170
bag3
(g4
(I0
tp9171
g6
tp9172
Rp9173
(g4038
I1
(tg474
I00
S'\xc5\tH\xd1\x9f\xd9;B'
p9174
tp9175
bag3
(g4
(I0
tp9176
g6
tp9177
Rp9178
(g4050
I1
(tg487
I00
S'\x9f\xf5iE\xd4\xc8tA'
p9179
tp9180
bag3
(g4
(I0
tp9181
g6
tp9182
Rp9183
(g4062
I1
(tg500
I00
S'Km\xaeE\xbf\x8dwA'
p9184
tp9185
bag3
(g4
(I0
tp9186
g6
tp9187
Rp9188
(g4074
I1
(tg513
I00
S'c\x94\xc0\x06Ez\x81A'
p9189
tp9190
bag3
(g4
(I0
tp9191
g6
tp9192
Rp9193
(g4086
I1
(tg526
I00
S'j\xdb\xba\xda\x9f\xcb\xefA'
p9194
tp9195
bag3
(g4
(I0
tp9196
g6
tp9197
Rp9198
(g4098
I1
(tg539
I00
S'\xf4\xcf|,\x8e\xf5uA'
p9199
tp9200
bag3
(g4
(I0
tp9201
g6
tp9202
Rp9203
(g4110
I1
(tg552
I00
S'\xa7\x8c\xcbu\x186\xddA'
p9204
tp9205
bag3
(g4
(I0
tp9206
g6
tp9207
Rp9208
(g4122
I1
(tg565
I00
S"\x84\xda'@#`\xa8A"
p9209
tp9210
bag3
(g4
(I0
tp9211
g6
tp9212
Rp9213
(g4134
I1
(tg578
I00
S'y*\xa6iS\xd1\x81A'
p9214
tp9215
bag3
(g4
(I0
tp9216
g6
tp9217
Rp9218
(g4146
I1
(tg591
I00
S'\x84\xb36\xe3\xf3+\xe4A'
p9219
tp9220
bag3
(g4
(I0
tp9221
g6
tp9222
Rp9223
(g4158
I1
(tg604
I00
S'"y\xc1\xb5!5\xd4A'
p9224
tp9225
bag3
(g4
(I0
tp9226
g6
tp9227
Rp9228
(g4170
I1
(tg617
I00
S'\x19\xa9\x85\x12{1\xd9A'
p9229
tp9230
bag3
(g4
(I0
tp9231
g6
tp9232
Rp9233
(g4182
I1
(tg630
I00
S'\x8c\xed}\x9d\xe99\x10B'
p9234
tp9235
bag3
(g4
(I0
tp9236
g6
tp9237
Rp9238
(g4194
I1
(tg643
I00
S'\xa5\x91\xa2\xb1k\xe0\x84A'
p9239
tp9240
bag3
(g4
(I0
tp9241
g6
tp9242
Rp9243
(g4206
I1
(tg656
I00
S'\xaf@Z\x9b\xc6C\xf9A'
p9244
tp9245
bag3
(g4
(I0
tp9246
g6
tp9247
Rp9248
(g4218
I1
(tg669
I00
S'L\x84\xe5v\xf9GvA'
p9249
tp9250
bag3
(g4
(I0
tp9251
g6
tp9252
Rp9253
(g4230
I1
(tg682
I00
S'\x8a\x97\x08\xe2\xa7*zA'
p9254
tp9255
bag3
(g4
(I0
tp9256
g6
tp9257
Rp9258
(g4242
I1
(tg695
I00
S'\xd4\x88A\x01g\xdf\xd6@'
p9259
tp9260
bag3
(g4
(I0
tp9261
g6
tp9262
Rp9263
(g4254
I1
(tg708
I00
S'o\xe4\xaf\xab:"\x8fA'
p9264
tp9265
bag3
(g4
(I0
tp9266
g6
tp9267
Rp9268
(g4266
I1
(tg721
I00
S'>%\xe81\xef\x9d\x97A'
p9269
tp9270
bag3
(g4
(I0
tp9271
g6
tp9272
Rp9273
(g4278
I1
(tg734
I00
S'\x8d\x95\xd7@\xbf,\xe0A'
p9274
tp9275
bag3
(g4
(I0
tp9276
g6
tp9277
Rp9278
(g4290
I1
(tg747
I00
S'\xad`ur\x12\xa8\x8eA'
p9279
tp9280
bag3
(g4
(I0
tp9281
g6
tp9282
Rp9283
(g4302
I1
(tg760
I00
S'\xe0Z\xc3\xc0\xd2\xa0\x08A'
p9284
tp9285
bag3
(g4
(I0
tp9286
g6
tp9287
Rp9288
(g4314
I1
(tg773
I00
S'\xfd\xa1\xcc\xd7\x9a\x8f\x91A'
p9289
tp9290
bag3
(g4
(I0
tp9291
g6
tp9292
Rp9293
(g4326
I1
(tg786
I00
S'\x9f4$*\xc5\xdf\x03B'
p9294
tp9295
bag3
(g4
(I0
tp9296
g6
tp9297
Rp9298
(g4338
I1
(tg799
I00
S'\xf0^\x05\x88\xce<\x8fA'
p9299
tp9300
bag3
(g4
(I0
tp9301
g6
tp9302
Rp9303
(g4350
I1
(tg812
I00
S'! Q\x7f!;\xf5@'
p9304
tp9305
bag3
(g4
(I0
tp9306
g6
tp9307
Rp9308
(g4362
I1
(tg825
I00
S'30/\xa1\x1f\x1b\x02B'
p9309
tp9310
bag3
(g4
(I0
tp9311
g6
tp9312
Rp9313
(g4374
I1
(tg838
I00
S'\xb2\xa1\xf0\x8d\x03\x0f\xf0A'
p9314
tp9315
bag3
(g4
(I0
tp9316
g6
tp9317
Rp9318
(g4386
I1
(tg851
I00
S'5@7\xe7)t5A'
p9319
tp9320
bag3
(g4
(I0
tp9321
g6
tp9322
Rp9323
(g4398
I1
(tg864
I00
S'\x95\x14 h\xa8\x14\x14B'
p9324
tp9325
bag3
(g4
(I0
tp9326
g6
tp9327
Rp9328
(g4410
I1
(tg877
I00
S'\xf2\xb8\x9by\x06\xcc\xb5A'
p9329
tp9330
bag3
(g4
(I0
tp9331
g6
tp9332
Rp9333
(g4422
I1
(tg890
I00
S'\x81\xce\xa5\xb8\xc9i\x08A'
p9334
tp9335
bag3
(g4
(I0
tp9336
g6
tp9337
Rp9338
(g4434
I1
(tg903
I00
S'2\x8b\r\xf8\xbc\x84\xe8A'
p9339
tp9340
bag3
(g4
(I0
tp9341
g6
tp9342
Rp9343
(g4446
I1
(tg916
I00
S'\x1e\x08\xae)Ow\x13B'
p9344
tp9345
bag3
(g4
(I0
tp9346
g6
tp9347
Rp9348
(g4458
I1
(tg929
I00
S'u \xd7@\xdd\xfc B'
p9349
tp9350
bag3
(g4
(I0
tp9351
g6
tp9352
Rp9353
(g4470
I1
(tg942
I00
S'P\xf1\x05\xcfB2\x0eB'
p9354
tp9355
bag3
(g4
(I0
tp9356
g6
tp9357
Rp9358
(g4482
I1
(tg955
I00
S"\xc2\t\xa4C\xe9\x0e'B"
p9359
tp9360
bag3
(g4
(I0
tp9361
g6
tp9362
Rp9363
(g4494
I1
(tg968
I00
S"\x9b\r\xa0'\xdes\x1eB"
p9364
tp9365
bag3
(g4
(I0
tp9366
g6
tp9367
Rp9368
(g4506
I1
(tg981
I00
S'<OAV\xc3 \xafA'
p9369
tp9370
bag3
(g4
(I0
tp9371
g6
tp9372
Rp9373
(g4518
I1
(tg994
I00
S'\xd3\x98\xb5<\x0e\x01\xe5@'
p9374
tp9375
bag3
(g4
(I0
tp9376
g6
tp9377
Rp9378
(g4530
I1
(tg1007
I00
S'\xcdU\x1cv^\xd1\xa3A'
p9379
tp9380
bag3
(g4
(I0
tp9381
g6
tp9382
Rp9383
(g4542
I1
(tg1020
I00
S"L'\x9f\x06\x81\x89\xf0@"
p9384
tp9385
bag3
(g4
(I0
tp9386
g6
tp9387
Rp9388
(g4554
I1
(tg1033
I00
S'\xf3\x80c[\x1bb\x19A'
p9389
tp9390
bag3
(g4
(I0
tp9391
g6
tp9392
Rp9393
(g4566
I1
(tg1046
I00
S'\xa3\xffr\xa8\x85\x0e\x15A'
p9394
tp9395
bag3
(g4
(I0
tp9396
g6
tp9397
Rp9398
(g4578
I1
(tg1059
I00
S'#q\x19\x9ff\xd1-A'
p9399
tp9400
bag3
(g4
(I0
tp9401
g6
tp9402
Rp9403
(g4590
I1
(tg1072
I00
S'\x1d\x9bL\t%\xd2\x12A'
p9404
tp9405
bag3
(g4
(I0
tp9406
g6
tp9407
Rp9408
(g4602
I1
(tg1085
I00
S'\xc2\x06\xb9\xaf\xb2\x85\x0bB'
p9409
tp9410
bag3
(g4
(I0
tp9411
g6
tp9412
Rp9413
(g4614
I1
(tg1098
I00
S'*Q\xf5<\xaf0&A'
p9414
tp9415
bag3
(g4
(I0
tp9416
g6
tp9417
Rp9418
(g4626
I1
(tg1111
I00
S'\xa6jK!\xf2\xc2\xe2A'
p9419
tp9420
bag3
(g4
(I0
tp9421
g6
tp9422
Rp9423
(g4638
I1
(tg1124
I00
S'\xc5o\xe6\xa8|`\xfdA'
p9424
tp9425
bag3
(g4
(I0
tp9426
g6
tp9427
Rp9428
(g4650
I1
(tg1137
I00
S'M;\x0c\xb0\xaaS1A'
p9429
tp9430
bag3
(g4
(I0
tp9431
g6
tp9432
Rp9433
(g4662
I1
(tg1150
I00
S'*O\x9cc}\xbb\xe5@'
p9434
tp9435
bag3
(g4
(I0
tp9436
g6
tp9437
Rp9438
(g4674
I1
(tg1163
I00
S'\x03\xfckH<x\x8aA'
p9439
tp9440
bag3
(g4
(I0
tp9441
g6
tp9442
Rp9443
(g4686
I1
(tg1176
I00
S'^\xf8\t\xa3\x9c\xd3\x9eA'
p9444
tp9445
bag3
(g4
(I0
tp9446
g6
tp9447
Rp9448
(g4698
I1
(tg1189
I00
S'\x91\x99LEu\xc4\xb0A'
p9449
tp9450
bag3
(g4
(I0
tp9451
g6
tp9452
Rp9453
(g4710
I1
(tg1202
I00
S'g\xafj\x98\xef\xdd\xa4A'
p9454
tp9455
bag3
(g4
(I0
tp9456
g6
tp9457
Rp9458
(g4722
I1
(tg1215
I00
S'\xde\xa9\x9c\x088\x03\xaaA'
p9459
tp9460
bag3
(g4
(I0
tp9461
g6
tp9462
Rp9463
(g4734
I1
(tg1228
I00
S'\x83\xad\x92\xc6<\x12\x03B'
p9464
tp9465
basS'zstar2'
p9466
(lp9467
g3
(g4
(I0
tp9468
g6
tp9469
Rp9470
(g13
I1
(tg19
I00
S'D\xe2\x95\\Z\x81P?'
p9471
tp9472
bag3
(g4
(I0
tp9473
g6
tp9474
Rp9475
(g28
I1
(tg32
I00
S'\x1c\x88\x16\xda\xfd<b?'
p9476
tp9477
bag3
(g4
(I0
tp9478
g6
tp9479
Rp9480
(g41
I1
(tg45
I00
S'\x81>\xfc\xacSG(?'
p9481
tp9482
bag3
(g4
(I0
tp9483
g6
tp9484
Rp9485
(g54
I1
(tg58
I00
S'?!\xd1}mv\x99?'
p9486
tp9487
bag3
(g4
(I0
tp9488
g6
tp9489
Rp9490
(g67
I1
(tg71
I00
S'$\x83\xed\x1d\x95\xfa2?'
p9491
tp9492
bag3
(g4
(I0
tp9493
g6
tp9494
Rp9495
(g80
I1
(tg84
I00
S'\x85\xcfF\xcb\x9d--?'
p9496
tp9497
bag3
(g4
(I0
tp9498
g6
tp9499
Rp9500
(g93
I1
(tg97
I00
S'A7\xd1>bws?'
p9501
tp9502
bag3
(g4
(I0
tp9503
g6
tp9504
Rp9505
(g106
I1
(tg110
I00
S'\xd6g\x18\xdc\x95$5?'
p9506
tp9507
bag3
(g4
(I0
tp9508
g6
tp9509
Rp9510
(g119
I1
(tg123
I00
S'\xb7e=^\xd0?8?'
p9511
tp9512
bag3
(g4
(I0
tp9513
g6
tp9514
Rp9515
(g132
I1
(tg136
I00
S'<\xa6\xbe\x9e\xce\xd90?'
p9516
tp9517
bag3
(g4
(I0
tp9518
g6
tp9519
Rp9520
(g145
I1
(tg149
I00
S'\x01\x86\x07\x8f.\xdaX?'
p9521
tp9522
bag3
(g4
(I0
tp9523
g6
tp9524
Rp9525
(g158
I1
(tg162
I00
S'FT\xd9\x10\x17\xfc4?'
p9526
tp9527
bag3
(g4
(I0
tp9528
g6
tp9529
Rp9530
(g171
I1
(tg175
I00
S'1.\x06\xd0\xd6\x1dZ?'
p9531
tp9532
bag3
(g4
(I0
tp9533
g6
tp9534
Rp9535
(g184
I1
(tg188
I00
S"\xc3\xcc\xf2\xad{'Y?"
p9536
tp9537
bag3
(g4
(I0
tp9538
g6
tp9539
Rp9540
(g197
I1
(tg201
I00
S'\x1d\x0f6k\x08\xf9D?'
p9541
tp9542
bag3
(g4
(I0
tp9543
g6
tp9544
Rp9545
(g210
I1
(tg214
I00
S'\xc4\xa2\x07,:\xa1\x97?'
p9546
tp9547
bag3
(g4
(I0
tp9548
g6
tp9549
Rp9550
(g223
I1
(tg227
I00
S'd\xc6c"\x81\xf93?'
p9551
tp9552
bag3
(g4
(I0
tp9553
g6
tp9554
Rp9555
(g236
I1
(tg240
I00
S'?\x0f\x90\xeaG8.?'
p9556
tp9557
bag3
(g4
(I0
tp9558
g6
tp9559
Rp9560
(g249
I1
(tg253
I00
S'6\xe6\x94\xfer\x9e2?'
p9561
tp9562
bag3
(g4
(I0
tp9563
g6
tp9564
Rp9565
(g262
I1
(tg266
I00
S'\x9b\xa3]r#m2?'
p9566
tp9567
bag3
(g4
(I0
tp9568
g6
tp9569
Rp9570
(g275
I1
(tg279
I00
S'\x04\xafr\xab\xfd+\x9a?'
p9571
tp9572
bag3
(g4
(I0
tp9573
g6
tp9574
Rp9575
(g288
I1
(tg292
I00
S'\xc8\xb3 \x907\x933?'
p9576
tp9577
bag3
(g4
(I0
tp9578
g6
tp9579
Rp9580
(g301
I1
(tg305
I00
S'\xe4\xe3\x10\xf215z?'
p9581
tp9582
bag3
(g4
(I0
tp9583
g6
tp9584
Rp9585
(g314
I1
(tg318
I00
S'\xfdY&\xe2\xfd\xbf3?'
p9586
tp9587
bag3
(g4
(I0
tp9588
g6
tp9589
Rp9590
(g327
I1
(tg331
I00
S'\x0bCZ\x0c\xd5\x00\\?'
p9591
tp9592
bag3
(g4
(I0
tp9593
g6
tp9594
Rp9595
(g340
I1
(tg344
I00
S'I&q\xe9ap5?'
p9596
tp9597
bag3
(g4
(I0
tp9598
g6
tp9599
Rp9600
(g353
I1
(tg357
I00
S'.)\xf8\xb7\xc6U5?'
p9601
tp9602
bag3
(g4
(I0
tp9603
g6
tp9604
Rp9605
(g366
I1
(tg370
I00
S'\x80\xb4\xcd8QD1?'
p9606
tp9607
bag3
(g4
(I0
tp9608
g6
tp9609
Rp9610
(g379
I1
(tg383
I00
S'\xbf\x95B\xda\xb1\x04u?'
p9611
tp9612
bag3
(g4
(I0
tp9613
g6
tp9614
Rp9615
(g392
I1
(tg396
I00
S'\x97AOs\xda\x0eq?'
p9616
tp9617
bag3
(g4
(I0
tp9618
g6
tp9619
Rp9620
(g405
I1
(tg409
I00
S'\xaf\x1f~x\x7f\x05\x80?'
p9621
tp9622
bag3
(g4
(I0
tp9623
g6
tp9624
Rp9625
(g418
I1
(tg422
I00
S'\xcd;\x1d\xc8\x9d\xd4b?'
p9626
tp9627
bag3
(g4
(I0
tp9628
g6
tp9629
Rp9630
(g431
I1
(tg435
I00
S"\x970\xc9\x97'=\x8f?"
p9631
tp9632
bag3
(g4
(I0
tp9633
g6
tp9634
Rp9635
(g444
I1
(tg448
I00
S'IB\x85\x7f\xe0yE?'
p9636
tp9637
bag3
(g4
(I0
tp9638
g6
tp9639
Rp9640
(g457
I1
(tg461
I00
S'\xeb\xca\xb81\xd7\xdb3?'
p9641
tp9642
bag3
(g4
(I0
tp9643
g6
tp9644
Rp9645
(g470
I1
(tg474
I00
S'\x1e\xa6=\xa2\xe2.\x9a?'
p9646
tp9647
bag3
(g4
(I0
tp9648
g6
tp9649
Rp9650
(g483
I1
(tg487
I00
S'\xcb\x89]\xdb\xca\xf9@?'
p9651
tp9652
bag3
(g4
(I0
tp9653
g6
tp9654
Rp9655
(g496
I1
(tg500
I00
S'\xf5\xb4>H\xa8\x1d>?'
p9656
tp9657
bag3
(g4
(I0
tp9658
g6
tp9659
Rp9660
(g509
I1
(tg513
I00
S'\xb2\x0er$gdE?'
p9661
tp9662
bag3
(g4
(I0
tp9663
g6
tp9664
Rp9665
(g522
I1
(tg526
I00
S'\x00\xcc\x8c)\xa0\x07\x7f?'
p9666
tp9667
bag3
(g4
(I0
tp9668
g6
tp9669
Rp9670
(g535
I1
(tg539
I00
S'2\xb6\x83+\x0f\xbdA?'
p9671
tp9672
bag3
(g4
(I0
tp9673
g6
tp9674
Rp9675
(g548
I1
(tg552
I00
S'@U\xb5\x9a\x89Hl?'
p9676
tp9677
bag3
(g4
(I0
tp9678
g6
tp9679
Rp9680
(g561
I1
(tg565
I00
S'\xcax\xd3\xa6P\x8dP?'
p9681
tp9682
bag3
(g4
(I0
tp9683
g6
tp9684
Rp9685
(g574
I1
(tg578
I00
S'\xe5\xab#\xf7!G<?'
p9686
tp9687
bag3
(g4
(I0
tp9688
g6
tp9689
Rp9690
(g587
I1
(tg591
I00
S'\x0e\x1a\x04\x86\x1b\xd3q?'
p9691
tp9692
bag3
(g4
(I0
tp9693
g6
tp9694
Rp9695
(g600
I1
(tg604
I00
S'+\x95\xb8\xb5\x8a\xb2c?'
p9696
tp9697
bag3
(g4
(I0
tp9698
g6
tp9699
Rp9700
(g613
I1
(tg617
I00
S'\xbe\xf1\x1dv\xfc\x9fk?'
p9701
tp9702
bag3
(g4
(I0
tp9703
g6
tp9704
Rp9705
(g626
I1
(tg630
I00
S'\xbaG\x06q\x1f|\x95?'
p9706
tp9707
bag3
(g4
(I0
tp9708
g6
tp9709
Rp9710
(g639
I1
(tg643
I00
S'\x11Z\xd1#\x16\xf2A?'
p9711
tp9712
bag3
(g4
(I0
tp9713
g6
tp9714
Rp9715
(g652
I1
(tg656
I00
S'\x8e\xb5h\xc6\x17Y\x88?'
p9716
tp9717
bag3
(g4
(I0
tp9718
g6
tp9719
Rp9720
(g665
I1
(tg669
I00
S'$?\x86\xbe\xaf~7?'
p9721
tp9722
bag3
(g4
(I0
tp9723
g6
tp9724
Rp9725
(g678
I1
(tg682
I00
S'\xfd\xdb@\x1f\xe1\xb94?'
p9726
tp9727
bag3
(g4
(I0
tp9728
g6
tp9729
Rp9730
(g691
I1
(tg695
I00
S'-C\x1c\xeb\xe26\x1a?'
p9731
tp9732
bag3
(g4
(I0
tp9733
g6
tp9734
Rp9735
(g704
I1
(tg708
I00
S'Ic\x06/\x8a\x03??'
p9736
tp9737
bag3
(g4
(I0
tp9738
g6
tp9739
Rp9740
(g717
I1
(tg721
I00
S'\xa6D\xce\xeb[\x9eC?'
p9741
tp9742
bag3
(g4
(I0
tp9743
g6
tp9744
Rp9745
(g730
I1
(tg734
I00
S'\xdd\x99\x941\xaa\x91n?'
p9746
tp9747
bag3
(g4
(I0
tp9748
g6
tp9749
Rp9750
(g743
I1
(tg747
I00
S'g\xa8\xc5\xa3Z\xb0G?'
p9751
tp9752
bag3
(g4
(I0
tp9753
g6
tp9754
Rp9755
(g756
I1
(tg760
I00
S'\xb6\x06\xa67\xd7;+?'
p9756
tp9757
bag3
(g4
(I0
tp9758
g6
tp9759
Rp9760
(g769
I1
(tg773
I00
S'G\xe5\xcb\xebR\xd7I?'
p9761
tp9762
bag3
(g4
(I0
tp9763
g6
tp9764
Rp9765
(g782
I1
(tg786
I00
S'\xa7\xd6m\xf6\\\x81\x8a?'
p9766
tp9767
bag3
(g4
(I0
tp9768
g6
tp9769
Rp9770
(g795
I1
(tg799
I00
S';\x1d\xb4\xa2\xaf\xcdG?'
p9771
tp9772
bag3
(g4
(I0
tp9773
g6
tp9774
Rp9775
(g808
I1
(tg812
I00
S'T.\x93\xa6A\x9f\x1a?'
p9776
tp9777
bag3
(g4
(I0
tp9778
g6
tp9779
Rp9780
(g821
I1
(tg825
I00
S'R5d\xd2\xc7[\x88?'
p9781
tp9782
bag3
(g4
(I0
tp9783
g6
tp9784
Rp9785
(g834
I1
(tg838
I00
S'a\xe2>a\xf9\xdfm?'
p9786
tp9787
bag3
(g4
(I0
tp9788
g6
tp9789
Rp9790
(g847
I1
(tg851
I00
S'\xf9\xf9G\xf8\xf7\xd61?'
p9791
tp9792
bag3
(g4
(I0
tp9793
g6
tp9794
Rp9795
(g860
I1
(tg864
I00
S'\x1a\x7fy\xce\xee\x15\x92?'
p9796
tp9797
bag3
(g4
(I0
tp9798
g6
tp9799
Rp9800
(g873
I1
(tg877
I00
S'`\xfe\x10W\xc2{g?'
p9801
tp9802
bag3
(g4
(I0
tp9803
g6
tp9804
Rp9805
(g886
I1
(tg890
I00
S'\xb2\xca\x10hSO0?'
p9806
tp9807
bag3
(g4
(I0
tp9808
g6
tp9809
Rp9810
(g899
I1
(tg903
I00
S'\xd6X}\x18D\xf0s?'
p9811
tp9812
bag3
(g4
(I0
tp9813
g6
tp9814
Rp9815
(g912
I1
(tg916
I00
S't\xfb\xd5\x07\xea[\x91?'
p9816
tp9817
bag3
(g4
(I0
tp9818
g6
tp9819
Rp9820
(g925
I1
(tg929
I00
S'\x10\xb2K\xb8\xdb\xce\x97?'
p9821
tp9822
bag3
(g4
(I0
tp9823
g6
tp9824
Rp9825
(g938
I1
(tg942
I00
S'X\x13m\xca\xd2\x14\x90?'
p9826
tp9827
bag3
(g4
(I0
tp9828
g6
tp9829
Rp9830
(g951
I1
(tg955
I00
S'\xe2\xf4{\x1c-\xaa\x98?'
p9831
tp9832
bag3
(g4
(I0
tp9833
g6
tp9834
Rp9835
(g964
I1
(tg968
I00
S'\xdd\xe9\x90\xd7^\xdf\x95?'
p9836
tp9837
bag3
(g4
(I0
tp9838
g6
tp9839
Rp9840
(g977
I1
(tg981
I00
S'\xec[\xbc\x00q\xb2T?'
p9841
tp9842
bag3
(g4
(I0
tp9843
g6
tp9844
Rp9845
(g990
I1
(tg994
I00
S'\x8b\x88-\xe9\x93\x98\x1b?'
p9846
tp9847
bag3
(g4
(I0
tp9848
g6
tp9849
Rp9850
(g1003
I1
(tg1007
I00
S'\tM/\x1c\x06\x0bI?'
p9851
tp9852
bag3
(g4
(I0
tp9853
g6
tp9854
Rp9855
(g1016
I1
(tg1020
I00
S'B\xdez\xd7\x14\x0b\x1b?'
p9856
tp9857
bag3
(g4
(I0
tp9858
g6
tp9859
Rp9860
(g1029
I1
(tg1033
I00
S'\x84\xfb\xa7\xafg\xa1#?'
p9861
tp9862
bag3
(g4
(I0
tp9863
g6
tp9864
Rp9865
(g1042
I1
(tg1046
I00
S'\xa1\xddld\x9c\xc2$?'
p9866
tp9867
bag3
(g4
(I0
tp9868
g6
tp9869
Rp9870
(g1055
I1
(tg1059
I00
S'b\x98+\x9dm\x8c0?'
p9871
tp9872
bag3
(g4
(I0
tp9873
g6
tp9874
Rp9875
(g1068
I1
(tg1072
I00
S'\x06\x1b2i.\xaf\x1b?'
p9876
tp9877
bag3
(g4
(I0
tp9878
g6
tp9879
Rp9880
(g1081
I1
(tg1085
I00
S'\x1dl\t\xb1\x04\x85\x8c?'
p9881
tp9882
bag3
(g4
(I0
tp9883
g6
tp9884
Rp9885
(g1094
I1
(tg1098
I00
S'<\x1d\xa8\xb9\x97\xb4+?'
p9886
tp9887
bag3
(g4
(I0
tp9888
g6
tp9889
Rp9890
(g1107
I1
(tg1111
I00
S'p\xe2\xdf\xc7\xe0[q?'
p9891
tp9892
bag3
(g4
(I0
tp9893
g6
tp9894
Rp9895
(g1120
I1
(tg1124
I00
S'\xa7\xcdC"\x1d\xdd\x82?'
p9896
tp9897
bag3
(g4
(I0
tp9898
g6
tp9899
Rp9900
(g1133
I1
(tg1137
I00
S'\xb1\x1a\x85\xc0\x86\x89.?'
p9901
tp9902
bag3
(g4
(I0
tp9903
g6
tp9904
Rp9905
(g1146
I1
(tg1150
I00
S'-C\x1c\xeb\xe26\x1a?'
p9906
tp9907
bag3
(g4
(I0
tp9908
g6
tp9909
Rp9910
(g1159
I1
(tg1163
I00
S'm\xf3\x82\x8f\xa2\xdfG?'
p9911
tp9912
bag3
(g4
(I0
tp9913
g6
tp9914
Rp9915
(g1172
I1
(tg1176
I00
S'l>\xcd$ocH?'
p9916
tp9917
bag3
(g4
(I0
tp9918
g6
tp9919
Rp9920
(g1185
I1
(tg1189
I00
S'\x8e2\xfclA\x05S?'
p9921
tp9922
bag3
(g4
(I0
tp9923
g6
tp9924
Rp9925
(g1198
I1
(tg1202
I00
S'\x0e\xa6\x82\xf4\\\x11S?'
p9926
tp9927
bag3
(g4
(I0
tp9928
g6
tp9929
Rp9930
(g1211
I1
(tg1215
I00
S'B\xd2\x9a-M\x9cR?'
p9931
tp9932
bag3
(g4
(I0
tp9933
g6
tp9934
Rp9935
(g1224
I1
(tg1228
I00
S"\xad\xf31\xb4'I\x81?"
p9936
tp9937
basS'oh_gas6'
p9938
(lp9939
g3
(g4
(I0
tp9940
g6
tp9941
Rp9942
(g13
I1
(tg19
I00
S'\x0b\xb1\\@**\x1f@'
p9943
tp9944
bag3
(g4
(I0
tp9945
g6
tp9946
Rp9947
(g28
I1
(tg32
I00
S'c\xc4\xa5\xa6\xb0D @'
p9948
tp9949
bag3
(g4
(I0
tp9950
g6
tp9951
Rp9952
(g41
I1
(tg45
I00
S'2\xdds\x1ctw\x1b@'
p9953
tp9954
bag3
(g4
(I0
tp9955
g6
tp9956
Rp9957
(g54
I1
(tg58
I00
S'\x08\x18u\x1dl\x91"@'
p9958
tp9959
bag3
(g4
(I0
tp9960
g6
tp9961
Rp9962
(g67
I1
(tg71
I00
S'\xe3U%R\xba\xee\x1c@'
p9963
tp9964
bag3
(g4
(I0
tp9965
g6
tp9966
Rp9967
(g80
I1
(tg84
I00
S'6\x07C\x08\x9a\xe7\x1c@'
p9968
tp9969
bag3
(g4
(I0
tp9970
g6
tp9971
Rp9972
(g93
I1
(tg97
I00
S'\xcc3\x1f\xba\x12\x15!@'
p9973
tp9974
bag3
(g4
(I0
tp9975
g6
tp9976
Rp9977
(g106
I1
(tg110
I00
S'\xe6J\xfaTT1\x1c@'
p9978
tp9979
bag3
(g4
(I0
tp9980
g6
tp9981
Rp9982
(g119
I1
(tg123
I00
S'n+\x88\xa5Nw\x1d@'
p9983
tp9984
bag3
(g4
(I0
tp9985
g6
tp9986
Rp9987
(g132
I1
(tg136
I00
S'\xbbS\xc0\x00\x98!\x1b@'
p9988
tp9989
bag3
(g4
(I0
tp9990
g6
tp9991
Rp9992
(g145
I1
(tg149
I00
S'\x9e8\x8d\xef\xea\xf3\x1f@'
p9993
tp9994
bag3
(g4
(I0
tp9995
g6
tp9996
Rp9997
(g158
I1
(tg162
I00
S'w\xfd\xf0+\xe5\xa0\x1d@'
p9998
tp9999
bag3
(g4
(I0
tp10000
g6
tp10001
Rp10002
(g171
I1
(tg175
I00
S'\x02^\xf7R\xea\x13 @'
p10003
tp10004
bag3
(g4
(I0
tp10005
g6
tp10006
Rp10007
(g184
I1
(tg188
I00
S'\xd9:\xca\x8c\xed$\x1f@'
p10008
tp10009
bag3
(g4
(I0
tp10010
g6
tp10011
Rp10012
(g197
I1
(tg201
I00
S'f\x00\xfa\xd4\xa0\x1f\x1e@'
p10013
tp10014
bag3
(g4
(I0
tp10015
g6
tp10016
Rp10017
(g210
I1
(tg214
I00
S'Y\xc7\xab\xab\xc9{"@'
p10018
tp10019
bag3
(g4
(I0
tp10020
g6
tp10021
Rp10022
(g223
I1
(tg227
I00
S'\xb7\xd8nM\x1b\xea\x1c@'
p10023
tp10024
bag3
(g4
(I0
tp10025
g6
tp10026
Rp10027
(g236
I1
(tg240
I00
S'K\xbe\x90;C\x02\x1c@'
p10028
tp10029
bag3
(g4
(I0
tp10030
g6
tp10031
Rp10032
(g249
I1
(tg253
I00
S'@1\x91M\x8ff\x1c@'
p10033
tp10034
bag3
(g4
(I0
tp10035
g6
tp10036
Rp10037
(g262
I1
(tg266
I00
S'L\x7f\x99J\xf6q\x1c@'
p10038
tp10039
bag3
(g4
(I0
tp10040
g6
tp10041
Rp10042
(g275
I1
(tg279
I00
S'\xed<\x9d\x90%X"@'
p10043
tp10044
bag3
(g4
(I0
tp10045
g6
tp10046
Rp10047
(g288
I1
(tg292
I00
S'\x844\xb4\x01\x80\xb7\x1c@'
p10048
tp10049
bag3
(g4
(I0
tp10050
g6
tp10051
Rp10052
(g301
I1
(tg305
I00
S'X\x99\x93\xaejP!@'
p10053
tp10054
bag3
(g4
(I0
tp10055
g6
tp10056
Rp10057
(g314
I1
(tg318
I00
S'\x8e\x196\xda\xd2j\x1d@'
p10058
tp10059
bag3
(g4
(I0
tp10060
g6
tp10061
Rp10062
(g327
I1
(tg331
I00
S'8\x87\x06MB\xf6\x1f@'
p10063
tp10064
bag3
(g4
(I0
tp10065
g6
tp10066
Rp10067
(g340
I1
(tg344
I00
S' \xf4\xdb\x97J<\x1d@'
p10068
tp10069
bag3
(g4
(I0
tp10070
g6
tp10071
Rp10072
(g353
I1
(tg357
I00
S's\x10\tJ\xf7\x10\x1d@'
p10073
tp10074
bag3
(g4
(I0
tp10075
g6
tp10076
Rp10077
(g366
I1
(tg370
I00
S'\x0e\x85-\x881\xdf\x1c@'
p10078
tp10079
bag3
(g4
(I0
tp10080
g6
tp10081
Rp10082
(g379
I1
(tg383
I00
S'\xdaB@\xaa\xa1$!@'
p10083
tp10084
bag3
(g4
(I0
tp10085
g6
tp10086
Rp10087
(g392
I1
(tg396
I00
S'\x06\x99\x9c)o\xd8 @'
p10088
tp10089
bag3
(g4
(I0
tp10090
g6
tp10091
Rp10092
(g405
I1
(tg409
I00
S'\xc0yQ\x00\xf3\x9e!@'
p10093
tp10094
bag3
(g4
(I0
tp10095
g6
tp10096
Rp10097
(g418
I1
(tg422
I00
S'\x10"\xa2;\xabL @'
p10098
tp10099
bag3
(g4
(I0
tp10100
g6
tp10101
Rp10102
(g431
I1
(tg435
I00
S'\x92\xe4\t!\xc7\xe0!@'
p10103
tp10104
bag3
(g4
(I0
tp10105
g6
tp10106
Rp10107
(g444
I1
(tg448
I00
S'\xaa\x9a\xb8\xden\xe4\x1e@'
p10108
tp10109
bag3
(g4
(I0
tp10110
g6
tp10111
Rp10112
(g457
I1
(tg461
I00
S'\x8c\xf5kFN\xcd\x1c@'
p10113
tp10114
bag3
(g4
(I0
tp10115
g6
tp10116
Rp10117
(g470
I1
(tg474
I00
S'\xda\x8a<<v\x80"@'
p10118
tp10119
bag3
(g4
(I0
tp10120
g6
tp10121
Rp10122
(g483
I1
(tg487
I00
S'xn\xdb\xb7\xbf\xc9\x1d@'
p10123
tp10124
bag3
(g4
(I0
tp10125
g6
tp10126
Rp10127
(g496
I1
(tg500
I00
S'n\x0b\x83\xacr\x94\x1d@'
p10128
tp10129
bag3
(g4
(I0
tp10130
g6
tp10131
Rp10132
(g509
I1
(tg513
I00
S'\xbbqO\x95\x1d\xbf\x1e@'
p10133
tp10134
bag3
(g4
(I0
tp10135
g6
tp10136
Rp10137
(g522
I1
(tg526
I00
S'@\x8c\x9f\x8ayy!@'
p10138
tp10139
bag3
(g4
(I0
tp10140
g6
tp10141
Rp10142
(g535
I1
(tg539
I00
S'4Z\x17l\xe9/\x1e@'
p10143
tp10144
bag3
(g4
(I0
tp10145
g6
tp10146
Rp10147
(g548
I1
(tg552
I00
S'{3\xf93Y\xbb @'
p10148
tp10149
bag3
(g4
(I0
tp10150
g6
tp10151
Rp10152
(g561
I1
(tg565
I00
S'\xbd\xea:\xecu\x04\x1f@'
p10153
tp10154
bag3
(g4
(I0
tp10155
g6
tp10156
Rp10157
(g574
I1
(tg578
I00
S'LjLJ~S\x1d@'
p10158
tp10159
bag3
(g4
(I0
tp10160
g6
tp10161
Rp10162
(g587
I1
(tg591
I00
S'\xe9 \xa1-J\xa0 @'
p10163
tp10164
bag3
(g4
(I0
tp10165
g6
tp10166
Rp10167
(g600
I1
(tg604
I00
S'.\xc6\x9b\x9f\xdb\xce\x1f@'
p10168
tp10169
bag3
(g4
(I0
tp10170
g6
tp10171
Rp10172
(g613
I1
(tg617
I00
S',\xeb\xd0\x0e\x0c\x94 @'
p10173
tp10174
bag3
(g4
(I0
tp10175
g6
tp10176
Rp10177
(g626
I1
(tg630
I00
S'\xd4\x8b:^{B"@'
p10178
tp10179
bag3
(g4
(I0
tp10180
g6
tp10181
Rp10182
(g639
I1
(tg643
I00
S'\x06\xcd\xa15\x84\xc0\x1e@'
p10183
tp10184
bag3
(g4
(I0
tp10185
g6
tp10186
Rp10187
(g652
I1
(tg656
I00
S'7\x8c\x18\xbb\x12\xc8!@'
p10188
tp10189
bag3
(g4
(I0
tp10190
g6
tp10191
Rp10192
(g665
I1
(tg669
I00
S'b\xcf\xd9\xdb\xa2&\x1d@'
p10193
tp10194
bag3
(g4
(I0
tp10195
g6
tp10196
Rp10197
(g678
I1
(tg682
I00
S'/\xf8Zz\xf3\xc8\x1b@'
p10198
tp10199
bag3
(g4
(I0
tp10200
g6
tp10201
Rp10202
(g691
I1
(tg695
I00
S'*)\x04\x19lM\x17@'
p10203
tp10204
bag3
(g4
(I0
tp10205
g6
tp10206
Rp10207
(g704
I1
(tg708
I00
S'Ii\xcb\xdc\x13\xab\x1d@'
p10208
tp10209
bag3
(g4
(I0
tp10210
g6
tp10211
Rp10212
(g717
I1
(tg721
I00
S'\xaf\xb7\xf2\xa7\xa9\xf7\x1d@'
p10213
tp10214
bag3
(g4
(I0
tp10215
g6
tp10216
Rp10217
(g730
I1
(tg734
I00
S'\xc0\x9c\xca\xe4+\x8c @'
p10218
tp10219
bag3
(g4
(I0
tp10220
g6
tp10221
Rp10222
(g743
I1
(tg747
I00
S'\x1b2\x90\xb9\xf2\xc8\x1e@'
p10223
tp10224
bag3
(g4
(I0
tp10225
g6
tp10226
Rp10227
(g756
I1
(tg760
I00
S'\xda\x8bN<TJ\x1c@'
p10228
tp10229
bag3
(g4
(I0
tp10230
g6
tp10231
Rp10232
(g769
I1
(tg773
I00
S'\xd3\xcf\x9b\xac\xcc\xb9\x1e@'
p10233
tp10234
bag3
(g4
(I0
tp10235
g6
tp10236
Rp10237
(g782
I1
(tg786
I00
S'\xcaK\n\xfeP\xd7!@'
p10238
tp10239
bag3
(g4
(I0
tp10240
g6
tp10241
Rp10242
(g795
I1
(tg799
I00
S'\x83\x89\xc2\xb4n*\x1f@'
p10243
tp10244
bag3
(g4
(I0
tp10245
g6
tp10246
Rp10247
(g808
I1
(tg812
I00
S'\x7f\x08\xc9Iz\xf3\x19@'
p10248
tp10249
bag3
(g4
(I0
tp10250
g6
tp10251
Rp10252
(g821
I1
(tg825
I00
S'\x0e\x90\xec%g\xe0!@'
p10253
tp10254
bag3
(g4
(I0
tp10255
g6
tp10256
Rp10257
(g834
I1
(tg838
I00
S'W.\nD\x93\xd9\x1f@'
p10258
tp10259
bag3
(g4
(I0
tp10260
g6
tp10261
Rp10262
(g847
I1
(tg851
I00
S'\xf6u\x0f]\x0c\xa3\x1c@'
p10263
tp10264
bag3
(g4
(I0
tp10265
g6
tp10266
Rp10267
(g860
I1
(tg864
I00
S'\xbc\xb4\x92[:\x00"@'
p10268
tp10269
bag3
(g4
(I0
tp10270
g6
tp10271
Rp10272
(g873
I1
(tg877
I00
S'HCo\x01,h @'
p10273
tp10274
bag3
(g4
(I0
tp10275
g6
tp10276
Rp10277
(g886
I1
(tg890
I00
S';96\x19\x893\x1c@'
p10278
tp10279
bag3
(g4
(I0
tp10280
g6
tp10281
Rp10282
(g899
I1
(tg903
I00
S'\xf9\xef\x7f\xcb\xd8\x99 @'
p10283
tp10284
bag3
(g4
(I0
tp10285
g6
tp10286
Rp10287
(g912
I1
(tg916
I00
S'\xb6S_x\xb1\xcb!@'
p10288
tp10289
bag3
(g4
(I0
tp10290
g6
tp10291
Rp10292
(g925
I1
(tg929
I00
S' }4(\xa1\xab"@'
p10293
tp10294
bag3
(g4
(I0
tp10295
g6
tp10296
Rp10297
(g938
I1
(tg942
I00
S'W\xf6X <\x15"@'
p10298
tp10299
bag3
(g4
(I0
tp10300
g6
tp10301
Rp10302
(g951
I1
(tg955
I00
S'\x00O:A\x16\xa8"@'
p10303
tp10304
bag3
(g4
(I0
tp10305
g6
tp10306
Rp10307
(g964
I1
(tg968
I00
S'\xc9\xb9\x97\xedh6"@'
p10308
tp10309
bag3
(g4
(I0
tp10310
g6
tp10311
Rp10312
(g977
I1
(tg981
I00
S'\x83\x15\x18o\xcaM\x1f@'
p10313
tp10314
bag3
(g4
(I0
tp10315
g6
tp10316
Rp10317
(g990
I1
(tg994
I00
S'\xb0c\xf7\x83M\x7f\x18@'
p10318
tp10319
bag3
(g4
(I0
tp10320
g6
tp10321
Rp10322
(g1003
I1
(tg1007
I00
S'\xe9v \xde\xfb@\x1e@'
p10323
tp10324
bag3
(g4
(I0
tp10325
g6
tp10326
Rp10327
(g1016
I1
(tg1020
I00
S'P\xa4re4\xda\x19@'
p10328
tp10329
bag3
(g4
(I0
tp10330
g6
tp10331
Rp10332
(g1029
I1
(tg1033
I00
S'\x88\xb5T\x1e\x8e\x92\x1c@'
p10333
tp10334
bag3
(g4
(I0
tp10335
g6
tp10336
Rp10337
(g1042
I1
(tg1046
I00
S'=\xb76\xd2\xf7\x98\x1a@'
p10338
tp10339
bag3
(g4
(I0
tp10340
g6
tp10341
Rp10342
(g1055
I1
(tg1059
I00
S'/\x97\x14+JI\x1d@'
p10343
tp10344
bag3
(g4
(I0
tp10345
g6
tp10346
Rp10347
(g1068
I1
(tg1072
I00
S'B\x16}\x19jI\x1b@'
p10348
tp10349
bag3
(g4
(I0
tp10350
g6
tp10351
Rp10352
(g1081
I1
(tg1085
I00
S'\xbd4m"\xda\xdc!@'
p10353
tp10354
bag3
(g4
(I0
tp10355
g6
tp10356
Rp10357
(g1094
I1
(tg1098
I00
S'`\x1cc\xc9\xcb\x1f\x1d@'
p10358
tp10359
bag3
(g4
(I0
tp10360
g6
tp10361
Rp10362
(g1107
I1
(tg1111
I00
S'\xe7j\xbd\xea%\xb6 @'
p10363
tp10364
bag3
(g4
(I0
tp10365
g6
tp10366
Rp10367
(g1120
I1
(tg1124
I00
S'\xea\x90\x8emc\xa7!@'
p10368
tp10369
bag3
(g4
(I0
tp10370
g6
tp10371
Rp10372
(g1133
I1
(tg1137
I00
S'\xa1"Cw\xb0/\x1d@'
p10373
tp10374
bag3
(g4
(I0
tp10375
g6
tp10376
Rp10377
(g1146
I1
(tg1150
I00
S'\xd1j(\x83a\xcd\x14@'
p10378
tp10379
bag3
(g4
(I0
tp10380
g6
tp10381
Rp10382
(g1159
I1
(tg1163
I00
S'\xfd(\xa8lp[\x1e@'
p10383
tp10384
bag3
(g4
(I0
tp10385
g6
tp10386
Rp10387
(g1172
I1
(tg1176
I00
S'"\xc2\x1b\x8b\x99&\x1e@'
p10388
tp10389
bag3
(g4
(I0
tp10390
g6
tp10391
Rp10392
(g1185
I1
(tg1189
I00
S'|\x088!\x82q\x1f@'
p10393
tp10394
bag3
(g4
(I0
tp10395
g6
tp10396
Rp10397
(g1198
I1
(tg1202
I00
S"A'\x85\x81\x8c\x89\x1f@"
p10398
tp10399
bag3
(g4
(I0
tp10400
g6
tp10401
Rp10402
(g1211
I1
(tg1215
I00
S'\xc7\x82|U\xe2w\x1f@'
p10403
tp10404
bag3
(g4
(I0
tp10405
g6
tp10406
Rp10407
(g1224
I1
(tg1228
I00
S'h?\xd6\xb3Gj!@'
p10408
tp10409
bas.