(dp0
S'feh_rh'
p1
(lp2
cnumpy.core.multiarray
_reconstruct
p3
(cpynbody.array
SimArray
p4
(I0
tp5
S'b'
p6
tp7
Rp8
(ccopy_reg
_reconstructor
p9
(cpynbody.units
NoUnit
p10
c__builtin__
object
p11
Ntp12
Rp13
(dp14
S'_no_unit'
p15
I01
sbI1
(tcnumpy
dtype
p16
(S'f8'
p17
I0
I1
tp18
Rp19
(I3
S'<'
p20
NNNI-1
I-1
I0
tp21
bI00
S'\x02\xd4f\xea%J\xf2\xbf'
p22
tp23
bag3
(g4
(I0
tp24
g6
tp25
Rp26
(g9
(g10
g11
Ntp27
Rp28
(dp29
g15
I01
sbI1
(tg16
(S'f8'
p30
I0
I1
tp31
Rp32
(I3
S'<'
p33
NNNI-1
I-1
I0
tp34
bI00
S'.\x12\xb0-\xb9\xe2\xf0\xbf'
p35
tp36
bag3
(g4
(I0
tp37
g6
tp38
Rp39
(g9
(g10
g11
Ntp40
Rp41
(dp42
g15
I01
sbI1
(tg16
(S'f8'
p43
I0
I1
tp44
Rp45
(I3
S'<'
p46
NNNI-1
I-1
I0
tp47
bI00
S'\xa7\xa2\xfdE\xce\x9f\xc5?'
p48
tp49
bag3
(g4
(I0
tp50
g6
tp51
Rp52
(g9
(g10
g11
Ntp53
Rp54
(dp55
g15
I01
sbI1
(tg16
(S'f8'
p56
I0
I1
tp57
Rp58
(I3
S'<'
p59
NNNI-1
I-1
I0
tp60
bI00
S'p\xd8\x80\xfa\x91\x02\xfb\xbf'
p61
tp62
bag3
(g4
(I0
tp63
g6
tp64
Rp65
(g9
(g10
g11
Ntp66
Rp67
(dp68
g15
I01
sbI1
(tg16
(S'f8'
p69
I0
I1
tp70
Rp71
(I3
S'<'
p72
NNNI-1
I-1
I0
tp73
bI00
S'\xe0\x14\xf1\xdc\xd0>\xf7\xbf'
p74
tp75
bag3
(g4
(I0
tp76
g6
tp77
Rp78
(g9
(g10
g11
Ntp79
Rp80
(dp81
g15
I01
sbI1
(tg16
(S'f8'
p82
I0
I1
tp83
Rp84
(I3
S'<'
p85
NNNI-1
I-1
I0
tp86
bI00
S'[\xdd\x8f\xf8_\x00\xfd\xbf'
p87
tp88
bag3
(g4
(I0
tp89
g6
tp90
Rp91
(g9
(g10
g11
Ntp92
Rp93
(dp94
g15
I01
sbI1
(tg16
(S'f8'
p95
I0
I1
tp96
Rp97
(I3
S'<'
p98
NNNI-1
I-1
I0
tp99
bI00
S'\x13k\xde\xf5\x94 \xbc\xbf'
p100
tp101
basS'zstar_tot'
p102
(lp103
g3
(g4
(I0
tp104
g6
tp105
Rp106
(g13
I1
(tg19
I00
S'z[X\x1f\xe3\tW?'
p107
tp108
bag3
(g4
(I0
tp109
g6
tp110
Rp111
(g28
I1
(tg32
I00
S'\xce\xf9_\xc2\xdb\xbdW?'
p112
tp113
bag3
(g4
(I0
tp114
g6
tp115
Rp116
(g41
I1
(tg45
I00
S'\xab\x8b\xee\x15\xfe\xe1\x94?'
p117
tp118
bag3
(g4
(I0
tp119
g6
tp120
Rp121
(g54
I1
(tg58
I00
S'\xb2\xe0\x02\x96\xdd\x878?'
p122
tp123
bag3
(g4
(I0
tp124
g6
tp125
Rp126
(g67
I1
(tg71
I00
S'N\xeb~\xda\x8f\xdbB?'
p127
tp128
bag3
(g4
(I0
tp129
g6
tp130
Rp131
(g80
I1
(tg84
I00
S'\x9e31q\xc7"1?'
p132
tp133
bag3
(g4
(I0
tp134
g6
tp135
Rp136
(g93
I1
(tg97
I00
S'5\x82\xabkz\xf8\x8d?'
p137
tp138
basS'mgas2'
p139
(lp140
g3
(g4
(I0
tp141
g6
tp142
Rp143
(g9
(cpynbody.units
CompositeUnit
p144
g11
Ntp145
Rp146
(dp147
S'_powers'
p148
(lp149
cfractions
Fraction
p150
(S'1'
p151
tp152
Rp153
asS'_scale'
p154
I1
sS'_bases'
p155
(lp156
cpynbody.units
_resurrect_named_unit
p157
(S'Msol'
p158
S'M_{\\odot}'
p159
g9
(g144
g11
Ntp160
Rp161
(dp162
g148
(lp163
I1
asg154
F1.98892e+30
sg155
(lp164
g157
(S'kg'
p165
NNtp166
Rp167
asbtp168
Rp169
asbI1
(tg19
I00
S'\xd3\x1b"h\xa8\x1c\xe6A'
p170
tp171
bag3
(g4
(I0
tp172
g6
tp173
Rp174
(g9
(g144
g11
Ntp175
Rp176
(dp177
g148
(lp178
g150
(g151
tp179
Rp180
asg154
I1
sg155
(lp181
g169
asbI1
(tg32
I00
S'\xaay\r\xa8\x1fJ\xd9A'
p182
tp183
bag3
(g4
(I0
tp184
g6
tp185
Rp186
(g9
(g144
g11
Ntp187
Rp188
(dp189
g148
(lp190
g150
(g151
tp191
Rp192
asg154
I1
sg155
(lp193
g169
asbI1
(tg45
I00
S'\x0e5\xeb\xb7\xdah\x03B'
p194
tp195
bag3
(g4
(I0
tp196
g6
tp197
Rp198
(g9
(g144
g11
Ntp199
Rp200
(dp201
g148
(lp202
g150
(g151
tp203
Rp204
asg154
I1
sg155
(lp205
g169
asbI1
(tg58
I00
S'\xffJ\xe7\xb1v\xca\xa3A'
p206
tp207
bag3
(g4
(I0
tp208
g6
tp209
Rp210
(g9
(g144
g11
Ntp211
Rp212
(dp213
g148
(lp214
g150
(g151
tp215
Rp216
asg154
I1
sg155
(lp217
g169
asbI1
(tg71
I00
S'}\xc5\xadS$i\xb8A'
p218
tp219
bag3
(g4
(I0
tp220
g6
tp221
Rp222
(g9
(g144
g11
Ntp223
Rp224
(dp225
g148
(lp226
g150
(g151
tp227
Rp228
asg154
I1
sg155
(lp229
g169
asbI1
(tg84
I00
S"\x06'\xb0\xc8\x05\xbd[A"
p230
tp231
bag3
(g4
(I0
tp232
g6
tp233
Rp234
(g9
(g144
g11
Ntp235
Rp236
(dp237
g148
(lp238
g150
(g151
tp239
Rp240
asg154
I1
sg155
(lp241
g169
asbI1
(tg97
I00
S'\xb62\xcf\xc4\x9a\xe8\xf3A'
p242
tp243
basS'oh_gas2'
p244
(lp245
g3
(g4
(I0
tp246
g6
tp247
Rp248
(g13
I1
(tg19
I00
S'\t\xe4\xc9\x8c&\xfc\x1f@'
p249
tp250
bag3
(g4
(I0
tp251
g6
tp252
Rp253
(g28
I1
(tg32
I00
S'[0z\xfd8\xee\x1f@'
p254
tp255
bag3
(g4
(I0
tp256
g6
tp257
Rp258
(g41
I1
(tg45
I00
S'\x0b\xd7\xc4\x87\xd8f"@'
p259
tp260
bag3
(g4
(I0
tp261
g6
tp262
Rp263
(g54
I1
(tg58
I00
S'\x82z\xfeT\xffo\x1d@'
p264
tp265
bag3
(g4
(I0
tp266
g6
tp267
Rp268
(g67
I1
(tg71
I00
S'\xe7\xfc\xd4\xdc\xbc\x02\x1e@'
p269
tp270
bag3
(g4
(I0
tp271
g6
tp272
Rp273
(g80
I1
(tg84
I00
S'\xa1\x98\xdd\x08\xc3\xee\x1c@'
p274
tp275
bag3
(g4
(I0
tp276
g6
tp277
Rp278
(g93
I1
(tg97
I00
S'H\xa7\xa17\x15\xfe!@'
p279
tp280
basS'oh_gas3'
p281
(lp282
g3
(g4
(I0
tp283
g6
tp284
Rp285
(g13
I1
(tg19
I00
S'\t\xe4\xc9\x8c&\xfc\x1f@'
p286
tp287
bag3
(g4
(I0
tp288
g6
tp289
Rp290
(g28
I1
(tg32
I00
S'[0z\xfd8\xee\x1f@'
p291
tp292
bag3
(g4
(I0
tp293
g6
tp294
Rp295
(g41
I1
(tg45
I00
S'\x0b\xd7\xc4\x87\xd8f"@'
p296
tp297
bag3
(g4
(I0
tp298
g6
tp299
Rp300
(g54
I1
(tg58
I00
S'\x82z\xfeT\xffo\x1d@'
p301
tp302
bag3
(g4
(I0
tp303
g6
tp304
Rp305
(g67
I1
(tg71
I00
S'\xe7\xfc\xd4\xdc\xbc\x02\x1e@'
p306
tp307
bag3
(g4
(I0
tp308
g6
tp309
Rp310
(g80
I1
(tg84
I00
S'\xa1\x98\xdd\x08\xc3\xee\x1c@'
p311
tp312
bag3
(g4
(I0
tp313
g6
tp314
Rp315
(g93
I1
(tg97
I00
S'H\xa7\xa17\x15\xfe!@'
p316
tp317
basS'mstar_rh'
p318
(lp319
g3
(g4
(I0
tp320
g6
tp321
Rp322
(g146
I1
(tg19
I00
S'JeH\x8a\xe4\xb7\xb8A'
p323
tp324
bag3
(g4
(I0
tp325
g6
tp326
Rp327
(g176
I1
(tg32
I00
S'\xe2t\xa5f\x94\xfe\xa4A'
p328
tp329
bag3
(g4
(I0
tp330
g6
tp331
Rp332
(g188
I1
(tg45
I00
S'\x9d\xc3\x8e\x820\x016B'
p333
tp334
bag3
(g4
(I0
tp335
g6
tp336
Rp337
(g200
I1
(tg58
I00
S'\x13X\xaf\xd1\xb9OeA'
p338
tp339
bag3
(g4
(I0
tp340
g6
tp341
Rp342
(g212
I1
(tg71
I00
S'\x9b\x88A\xc9\xde\x9d\x81A'
p343
tp344
bag3
(g4
(I0
tp345
g6
tp346
Rp347
(g224
I1
(tg84
I00
S"^9QN\xbf\xba'A"
p348
tp349
bag3
(g4
(I0
tp350
g6
tp351
Rp352
(g236
I1
(tg97
I00
S'\x8e\xabrR\x16\xbf\x11B'
p353
tp354
basS'zstar3'
p355
(lp356
g3
(g4
(I0
tp357
g6
tp358
Rp359
(g13
I1
(tg19
I00
S'\xbe\xf6\xed\ns<X?'
p360
tp361
bag3
(g4
(I0
tp362
g6
tp363
Rp364
(g28
I1
(tg32
I00
S'\x9a\xff\xd6gy\xa9[?'
p365
tp366
bag3
(g4
(I0
tp367
g6
tp368
Rp369
(g41
I1
(tg45
I00
S'\xe7\x15[\xd5\x99\xd6\x97?'
p370
tp371
bag3
(g4
(I0
tp372
g6
tp373
Rp374
(g54
I1
(tg58
I00
S'\x99\xd5AM\xbd\xe6:?'
p375
tp376
bag3
(g4
(I0
tp377
g6
tp378
Rp379
(g67
I1
(tg71
I00
S'\xc4:K\x05\rlE?'
p380
tp381
bag3
(g4
(I0
tp382
g6
tp383
Rp384
(g80
I1
(tg84
I00
S'U\x1f\xdd\x80\xdd#2?'
p385
tp386
bag3
(g4
(I0
tp387
g6
tp388
Rp389
(g93
I1
(tg97
I00
S'\xf0<\xe7\xb35\xb9\x90?'
p390
tp391
basS'feh'
p392
(lp393
g3
(g4
(I0
tp394
g6
tp395
Rp396
(g13
I1
(tg19
I00
S'\x93R\xd99\xbe\x97\xf3\xbf'
p397
tp398
bag3
(g4
(I0
tp399
g6
tp400
Rp401
(g28
I1
(tg32
I00
S'\xc9_!\x9e\xc7\xa4\xf3\xbf'
p402
tp403
bag3
(g4
(I0
tp404
g6
tp405
Rp406
(g41
I1
(tg45
I00
S'\x80\xba\x05\x99\xab\xaf\x88?'
p407
tp408
bag3
(g4
(I0
tp409
g6
tp410
Rp411
(g54
I1
(tg58
I00
S'\xe0\xd7\rZ\xd9\xd5\xfd\xbf'
p412
tp413
bag3
(g4
(I0
tp414
g6
tp415
Rp416
(g67
I1
(tg71
I00
S'\xfb\x97\xc6\xd1@{\xf9\xbf'
p417
tp418
bag3
(g4
(I0
tp419
g6
tp420
Rp421
(g80
I1
(tg84
I00
S'\xddi\x99\xfbMI\xff\xbf'
p422
tp423
bag3
(g4
(I0
tp424
g6
tp425
Rp426
(g93
I1
(tg97
I00
S'\xe5J\x1f\xef\x00\x8c\xd0\xbf'
p427
tp428
basS'zstar'
p429
(lp430
g3
(g4
(I0
tp431
g6
tp432
Rp433
(g13
I1
(tg19
I00
S'\x04\xd6bO\\\xf5X?'
p434
tp435
bag3
(g4
(I0
tp436
g6
tp437
Rp438
(g28
I1
(tg32
I00
S'\xa1\xdb\x007\xce\x1e^?'
p439
tp440
bag3
(g4
(I0
tp441
g6
tp442
Rp443
(g41
I1
(tg45
I00
S'\xf6\xbe\xbc\x82\x99\x9a\x98?'
p444
tp445
bag3
(g4
(I0
tp446
g6
tp447
Rp448
(g54
I1
(tg58
I00
S"'EI\xfc\xbc_=?"
p449
tp450
bag3
(g4
(I0
tp451
g6
tp452
Rp453
(g67
I1
(tg71
I00
S'P\x9dk\x7f\xcf]G?'
p454
tp455
bag3
(g4
(I0
tp456
g6
tp457
Rp458
(g80
I1
(tg84
I00
S'\xd1\x8cxROy4?'
p459
tp460
bag3
(g4
(I0
tp461
g6
tp462
Rp463
(g93
I1
(tg97
I00
S'\x11\xbbo\x0f\x93\xf9\x90?'
p464
tp465
basS'mgas_tot'
p466
(lp467
g3
(g4
(I0
tp468
g6
tp469
Rp470
(g146
I1
(tg19
I00
S'\x8a\x90\x99\xbf\x01c\x04B'
p471
tp472
bag3
(g4
(I0
tp473
g6
tp474
Rp475
(g176
I1
(tg32
I00
S'\x85\x80\x06<H\x0b\x02B'
p476
tp477
bag3
(g4
(I0
tp478
g6
tp479
Rp480
(g188
I1
(tg45
I00
S'\xcf\xaeM(\xdb\x1aJB'
p481
tp482
bag3
(g4
(I0
tp483
g6
tp484
Rp485
(g200
I1
(tg58
I00
S'\x7fx\x9f3cG\xcdA'
p486
tp487
bag3
(g4
(I0
tp488
g6
tp489
Rp490
(g212
I1
(tg71
I00
S"}lXU'$\xe1A"
p491
tp492
bag3
(g4
(I0
tp493
g6
tp494
Rp495
(g224
I1
(tg84
I00
S'\xfa\x80!\xf1\xfcy\xa0A'
p496
tp497
bag3
(g4
(I0
tp498
g6
tp499
Rp500
(g236
I1
(tg97
I00
S'\xe3\xf3\x85\xed\nK-B'
p501
tp502
basS'rhalf'
p503
(lp504
g3
(g4
(I0
tp505
g6
tp506
Rp507
(g9
(g144
g11
Ntp508
Rp509
(dp510
g148
(lp511
g150
(g151
tp512
Rp513
asg154
F1.0
sg155
(lp514
g157
(S'kpc'
p515
Ng9
(g144
g11
Ntp516
Rp517
(dp518
g148
(lp519
I1
asg154
F1000.0
sg155
(lp520
g157
(S'pc'
p521
Ng9
(g144
g11
Ntp522
Rp523
(dp524
g148
(lp525
I1
asg154
F3.08568025e+16
sg155
(lp526
g157
(S'm'
p527
NNtp528
Rp529
asbtp530
Rp531
asbtp532
Rp533
asbI1
(tg19
I00
S'Ouq\x12\x8e\x9c\x11@'
p534
tp535
bag3
(g4
(I0
tp536
g6
tp537
Rp538
(g9
(g144
g11
Ntp539
Rp540
(dp541
g148
(lp542
g150
(g151
tp543
Rp544
asg154
F1.0
sg155
(lp545
g533
asbI1
(tg32
I00
S'\x941\xf1\x96\xdcK\x06@'
p546
tp547
bag3
(g4
(I0
tp548
g6
tp549
Rp550
(g9
(g144
g11
Ntp551
Rp552
(dp553
g148
(lp554
g150
(g151
tp555
Rp556
asg154
F1.0
sg155
(lp557
g533
asbI1
(tg45
I00
S'\xef\x8b\x86s\xcbu\x08@'
p558
tp559
bag3
(g4
(I0
tp560
g6
tp561
Rp562
(g9
(g144
g11
Ntp563
Rp564
(dp565
g148
(lp566
g150
(g151
tp567
Rp568
asg154
F1.0
sg155
(lp569
g533
asbI1
(tg58
I00
S'\xb68\xe5\xfb\x86$\xfa?'
p570
tp571
bag3
(g4
(I0
tp572
g6
tp573
Rp574
(g9
(g144
g11
Ntp575
Rp576
(dp577
g148
(lp578
g150
(g151
tp579
Rp580
asg154
F1.0
sg155
(lp581
g533
asbI1
(tg71
I00
S'D\x10\xbd\x80fX\x03@'
p582
tp583
bag3
(g4
(I0
tp584
g6
tp585
Rp586
(g9
(g144
g11
Ntp587
Rp588
(dp589
g148
(lp590
g150
(g151
tp591
Rp592
asg154
F1.0
sg155
(lp593
g533
asbI1
(tg84
I00
S'\xd7\x1e\x03\x85\xe5\x8d\xdd?'
p594
tp595
bag3
(g4
(I0
tp596
g6
tp597
Rp598
(g9
(g144
g11
Ntp599
Rp600
(dp601
g148
(lp602
g150
(g151
tp603
Rp604
asg154
F1.0
sg155
(lp605
g533
asbI1
(tg97
I00
S'\xa4\xe6\xa3\xf3\xe1/\x04@'
p606
tp607
basS'oh_gas_tot'
p608
(lp609
g3
(g4
(I0
tp610
g6
tp611
Rp612
(g13
I1
(tg19
I00
S'8!\x8a\xbb\x8ds\x1f@'
p613
tp614
bag3
(g4
(I0
tp615
g6
tp616
Rp617
(g28
I1
(tg32
I00
S'#\xd4&\xf2b\x0b\x1f@'
p618
tp619
bag3
(g4
(I0
tp620
g6
tp621
Rp622
(g41
I1
(tg45
I00
S'\xb8P\x0f\xb1\x83\xee @'
p623
tp624
bag3
(g4
(I0
tp625
g6
tp626
Rp627
(g54
I1
(tg58
I00
S'\xa0g\n\x99k!\x1c@'
p628
tp629
bag3
(g4
(I0
tp630
g6
tp631
Rp632
(g67
I1
(tg71
I00
S',h\xdaCAo\x1d@'
p633
tp634
bag3
(g4
(I0
tp635
g6
tp636
Rp637
(g80
I1
(tg84
I00
S'-\x7f\x85\x87\xc6]\x1b@'
p638
tp639
bag3
(g4
(I0
tp640
g6
tp641
Rp642
(g93
I1
(tg97
I00
S'w\xe9\x18]\x18\xf7 @'
p643
tp644
basS'time'
p645
(lp646
F12.316096674593146
aF12.316096674593146
aF12.316096674593146
aF12.316096674593146
aF12.316096674593146
aF12.316101500170898
aF12.316096674593146
asS'mstar_tot'
p647
(lp648
g3
(g4
(I0
tp649
g6
tp650
Rp651
(g146
I1
(tg19
I00
S'\xd5\xf4\xa6*\x1c\xd6\xcbA'
p652
tp653
bag3
(g4
(I0
tp654
g6
tp655
Rp656
(g176
I1
(tg32
I00
S'.\xf2\x99\x83q\xc2\xc3A'
p657
tp658
bag3
(g4
(I0
tp659
g6
tp660
Rp661
(g188
I1
(tg45
I00
S'\x0b\x0f~KF\xe4CB'
p662
tp663
bag3
(g4
(I0
tp664
g6
tp665
Rp666
(g200
I1
(tg58
I00
S'\x18_6\x07\x01qzA'
p667
tp668
bag3
(g4
(I0
tp669
g6
tp670
Rp671
(g212
I1
(tg71
I00
S'\x0e\xa4\xde\x1b\x9b\x03\x9bA'
p672
tp673
bag3
(g4
(I0
tp674
g6
tp675
Rp676
(g224
I1
(tg84
I00
S'\xa1O^#\xe0\xa1AA'
p677
tp678
bag3
(g4
(I0
tp679
g6
tp680
Rp681
(g236
I1
(tg97
I00
S'\x1c\x1d\xb3D\x888 B'
p682
tp683
basS'oh_gas'
p684
(lp685
g3
(g4
(I0
tp686
g6
tp687
Rp688
(g13
I1
(tg19
I00
S'\x1al\xe4\xca\xb6\x06 @'
p689
tp690
bag3
(g4
(I0
tp691
g6
tp692
Rp693
(g28
I1
(tg32
I00
S'\xa9\x8f\xcf\xdfk\xff\x1f@'
p694
tp695
bag3
(g4
(I0
tp696
g6
tp697
Rp698
(g41
I1
(tg45
I00
S'\xa8T\x1aU\x98\x81"@'
p699
tp700
bag3
(g4
(I0
tp701
g6
tp702
Rp703
(g54
I1
(tg58
I00
S'\xe071\xda\xdd\x82\x1d@'
p704
tp705
bag3
(g4
(I0
tp706
g6
tp707
Rp708
(g67
I1
(tg71
I00
S'\xdd\xb2\xdb\x12\xa2\x01\x1e@'
p709
tp710
bag3
(g4
(I0
tp711
g6
tp712
Rp713
(g80
I1
(tg84
I00
S'\xadm\xec\x95\xe3\xf0\x1c@'
p714
tp715
bag3
(g4
(I0
tp716
g6
tp717
Rp718
(g93
I1
(tg97
I00
S'/b\xcfw\xe7\x19"@'
p719
tp720
basS'z'
p721
(lp722
F0.11238109160837317
aF0.11238109160837317
aF0.11238109160837317
aF0.11238109160837317
aF0.11238109160837317
aF0.11238109160837317
aF0.11238109160837317
asS'zstar2'
p723
(lp724
g3
(g4
(I0
tp725
g6
tp726
Rp727
(g13
I1
(tg19
I00
S'\xbe\xf6\xed\ns<X?'
p728
tp729
bag3
(g4
(I0
tp730
g6
tp731
Rp732
(g28
I1
(tg32
I00
S'\x9a\xff\xd6gy\xa9[?'
p733
tp734
bag3
(g4
(I0
tp735
g6
tp736
Rp737
(g41
I1
(tg45
I00
S'\xe7\x15[\xd5\x99\xd6\x97?'
p738
tp739
bag3
(g4
(I0
tp740
g6
tp741
Rp742
(g54
I1
(tg58
I00
S'\x99\xd5AM\xbd\xe6:?'
p743
tp744
bag3
(g4
(I0
tp745
g6
tp746
Rp747
(g67
I1
(tg71
I00
S'\xc4:K\x05\rlE?'
p748
tp749
bag3
(g4
(I0
tp750
g6
tp751
Rp752
(g80
I1
(tg84
I00
S'U\x1f\xdd\x80\xdd#2?'
p753
tp754
bag3
(g4
(I0
tp755
g6
tp756
Rp757
(g93
I1
(tg97
I00
S'\xf0<\xe7\xb35\xb9\x90?'
p758
tp759
basS'mstar2'
p760
(lp761
g3
(g4
(I0
tp762
g6
tp763
Rp764
(g146
I1
(tg19
I00
S'\xd0\xc4Az\x88\xdb\xc6A'
p765
tp766
bag3
(g4
(I0
tp767
g6
tp768
Rp769
(g176
I1
(tg32
I00
S'>|j\x0eW\x86\xbaA'
p770
tp771
bag3
(g4
(I0
tp772
g6
tp773
Rp774
(g188
I1
(tg45
I00
S'\x81\xc2\xa5\x82\x96j:B'
p775
tp776
bag3
(g4
(I0
tp777
g6
tp778
Rp779
(g200
I1
(tg58
I00
S'?R\xc6g\xd2.uA'
p780
tp781
bag3
(g4
(I0
tp782
g6
tp783
Rp784
(g212
I1
(tg71
I00
S'\xd0?\\\xe7k\x9b\x91A'
p785
tp786
bag3
(g4
(I0
tp787
g6
tp788
Rp789
(g224
I1
(tg84
I00
S'\xa66\xaaJ \xc08A'
p790
tp791
bag3
(g4
(I0
tp792
g6
tp793
Rp794
(g236
I1
(tg97
I00
S'\x00\xa2\xfaX\xbf\xfc\x18B'
p795
tp796
bas.