(dp0
S'feh_rh'
p1
(lp2
cnumpy.core.multiarray
_reconstruct
p3
(cpynbody.array
SimArray
p4
(I0
tp5
S'b'
p6
tp7
Rp8
(ccopy_reg
_reconstructor
p9
(cpynbody.units
NoUnit
p10
c__builtin__
object
p11
Ntp12
Rp13
(dp14
S'_no_unit'
p15
I01
sbI1
(tcnumpy
dtype
p16
(S'f8'
p17
I0
I1
tp18
Rp19
(I3
S'<'
p20
NNNI-1
I-1
I0
tp21
bI00
S'"q\x04\x82@\x91\xf3\xbf'
p22
tp23
bag3
(g4
(I0
tp24
g6
tp25
Rp26
(g9
(g10
g11
Ntp27
Rp28
(dp29
g15
I01
sbI1
(tg16
(S'f8'
p30
I0
I1
tp31
Rp32
(I3
S'<'
p33
NNNI-1
I-1
I0
tp34
bI00
S'6\x9fg\x83\x8ef\xf2\xbf'
p35
tp36
bag3
(g4
(I0
tp37
g6
tp38
Rp39
(g9
(g10
g11
Ntp40
Rp41
(dp42
g15
I01
sbI1
(tg16
(S'f8'
p43
I0
I1
tp44
Rp45
(I3
S'<'
p46
NNNI-1
I-1
I0
tp47
bI00
S'X\x93\x854\xf0\xc1\xbc?'
p48
tp49
bag3
(g4
(I0
tp50
g6
tp51
Rp52
(g9
(g10
g11
Ntp53
Rp54
(dp55
g15
I01
sbI1
(tg16
(S'f8'
p56
I0
I1
tp57
Rp58
(I3
S'<'
p59
NNNI-1
I-1
I0
tp60
bI00
S'\xba\xb8\x88Y\r\xc6\xfa\xbf'
p61
tp62
bag3
(g4
(I0
tp63
g6
tp64
Rp65
(g9
(g10
g11
Ntp66
Rp67
(dp68
g15
I01
sbI1
(tg16
(S'f8'
p69
I0
I1
tp70
Rp71
(I3
S'<'
p72
NNNI-1
I-1
I0
tp73
bI00
S'\xe4}{\x98d\xe3\xf7\xbf'
p74
tp75
bag3
(g4
(I0
tp76
g6
tp77
Rp78
(g9
(g10
g11
Ntp79
Rp80
(dp81
g15
I01
sbI1
(tg16
(S'f8'
p82
I0
I1
tp83
Rp84
(I3
S'<'
p85
NNNI-1
I-1
I0
tp86
bI00
S'\xb2D@\xda\x0e\x11\xfe\xbf'
p87
tp88
bag3
(g4
(I0
tp89
g6
tp90
Rp91
(g9
(g10
g11
Ntp92
Rp93
(dp94
g15
I01
sbI1
(tg16
(S'f8'
p95
I0
I1
tp96
Rp97
(I3
S'<'
p98
NNNI-1
I-1
I0
tp99
bI00
S'\xbc\xf9^\x0c\x00[\xc4\xbf'
p100
tp101
bag3
(g4
(I0
tp102
g6
tp103
Rp104
(g9
(g10
g11
Ntp105
Rp106
(dp107
g15
I01
sbI1
(tg16
(S'f8'
p108
I0
I1
tp109
Rp110
(I3
S'<'
p111
NNNI-1
I-1
I0
tp112
bI00
S'\x00\xf6\x97\xc7\xe8"\xbc\xbf'
p113
tp114
basS'zstar_tot'
p115
(lp116
g3
(g4
(I0
tp117
g6
tp118
Rp119
(g13
I1
(tg19
I00
S'6\xfb\x97S\x02\xc3R?'
p120
tp121
bag3
(g4
(I0
tp122
g6
tp123
Rp124
(g28
I1
(tg32
I00
S'\x8a\xac\x13Ov\x0eS?'
p125
tp126
bag3
(g4
(I0
tp127
g6
tp128
Rp129
(g41
I1
(tg45
I00
S'\xc56\xd3\xe8s\xd9\x93?'
p130
tp131
bag3
(g4
(I0
tp132
g6
tp133
Rp134
(g54
I1
(tg58
I00
S'\x96\x9f\x02J\xa9\x9c7?'
p135
tp136
bag3
(g4
(I0
tp137
g6
tp138
Rp139
(g67
I1
(tg71
I00
S'1\xe4\xb8/h\x81A?'
p140
tp141
bag3
(g4
(I0
tp142
g6
tp143
Rp144
(g80
I1
(tg84
I00
S'\x1a\x1dQ\x00\xc3\t0?'
p145
tp146
bag3
(g4
(I0
tp147
g6
tp148
Rp149
(g93
I1
(tg97
I00
S'\x10\xda:p\xbb\xab\x8b?'
p150
tp151
bag3
(g4
(I0
tp152
g6
tp153
Rp154
(g106
I1
(tg110
I00
S'/@\x03\x94\xf7\\\x90?'
p155
tp156
basS'mgas2'
p157
(lp158
g3
(g4
(I0
tp159
g6
tp160
Rp161
(g9
(cpynbody.units
CompositeUnit
p162
g11
Ntp163
Rp164
(dp165
S'_powers'
p166
(lp167
cfractions
Fraction
p168
(S'1'
p169
tp170
Rp171
asS'_scale'
p172
I1
sS'_bases'
p173
(lp174
cpynbody.units
_resurrect_named_unit
p175
(S'Msol'
p176
S'M_{\\odot}'
p177
g9
(g162
g11
Ntp178
Rp179
(dp180
g166
(lp181
I1
asg172
F1.98892e+30
sg173
(lp182
g175
(S'kg'
p183
NNtp184
Rp185
asbtp186
Rp187
asbI1
(tg19
I00
S'c\xe7\xa9j^\xbd\xe1A'
p188
tp189
bag3
(g4
(I0
tp190
g6
tp191
Rp192
(g9
(g162
g11
Ntp193
Rp194
(dp195
g166
(lp196
g168
(g169
tp197
Rp198
asg172
I1
sg173
(lp199
g187
asbI1
(tg32
I00
S'\x1ed\x8d\x86 =\xcdA'
p200
tp201
bag3
(g4
(I0
tp202
g6
tp203
Rp204
(g9
(g162
g11
Ntp205
Rp206
(dp207
g166
(lp208
g168
(g169
tp209
Rp210
asg172
I1
sg173
(lp211
g187
asbI1
(tg45
I00
S'\x7f\x948\xdb\x08\xb5\rB'
p212
tp213
bag3
(g4
(I0
tp214
g6
tp215
Rp216
(g9
(g162
g11
Ntp217
Rp218
(dp219
g166
(lp220
g168
(g169
tp221
Rp222
asg172
I1
sg173
(lp223
g187
asbI1
(tg58
I00
S'\x8c`^/\xff\x8d\x9aA'
p224
tp225
bag3
(g4
(I0
tp226
g6
tp227
Rp228
(g9
(g162
g11
Ntp229
Rp230
(dp231
g166
(lp232
g168
(g169
tp233
Rp234
asg172
I1
sg173
(lp235
g187
asbI1
(tg71
I00
S'\x89\xd3\xad\x98\x16`\xa7A'
p236
tp237
bag3
(g4
(I0
tp238
g6
tp239
Rp240
(g9
(g162
g11
Ntp241
Rp242
(dp243
g166
(lp244
g168
(g169
tp245
Rp246
asg172
I1
sg173
(lp247
g187
asbI1
(tg84
I00
S'\r\x9a\xf6\xbe\xb0XcA'
p248
tp249
bag3
(g4
(I0
tp250
g6
tp251
Rp252
(g9
(g162
g11
Ntp253
Rp254
(dp255
g166
(lp256
g168
(g169
tp257
Rp258
asg172
I1
sg173
(lp259
g187
asbI1
(tg97
I00
S'\xc9y\xe8\x9f\xe6\x19\xf6A'
p260
tp261
bag3
(g4
(I0
tp262
g6
tp263
Rp264
(g9
(g162
g11
Ntp265
Rp266
(dp267
g166
(lp268
g168
(g169
tp269
Rp270
asg172
I1
sg173
(lp271
g187
asbI1
(tg110
I00
S'P\xb7\xa0\x1d\xcc\xb0\xf4A'
p272
tp273
basS'oh_gas2'
p274
(lp275
g3
(g4
(I0
tp276
g6
tp277
Rp278
(g13
I1
(tg19
I00
S'\xb4\xee\xbc\xba3\x8e\x1f@'
p279
tp280
bag3
(g4
(I0
tp281
g6
tp282
Rp283
(g28
I1
(tg32
I00
S'TDu\x19\xb8\x94\x1f@'
p284
tp285
bag3
(g4
(I0
tp286
g6
tp287
Rp288
(g41
I1
(tg45
I00
S',\xd9\x9c\x1bH;"@'
p289
tp290
bag3
(g4
(I0
tp291
g6
tp292
Rp293
(g54
I1
(tg58
I00
S'\x98!\r^\xd9v\x1d@'
p294
tp295
bag3
(g4
(I0
tp296
g6
tp297
Rp298
(g67
I1
(tg71
I00
S'\x81p\x83<\xcb\x16\x1e@'
p299
tp300
bag3
(g4
(I0
tp301
g6
tp302
Rp303
(g80
I1
(tg84
I00
S'3\x08\xa1j\xed\xa9\x1c@'
p304
tp305
bag3
(g4
(I0
tp306
g6
tp307
Rp308
(g93
I1
(tg97
I00
S'\xde\xfa^PG\x05"@'
p309
tp310
bag3
(g4
(I0
tp311
g6
tp312
Rp313
(g106
I1
(tg110
I00
S'*\xf2\x99\x94\x0f\x16"@'
p314
tp315
basS'oh_gas3'
p316
(lp317
g3
(g4
(I0
tp318
g6
tp319
Rp320
(g13
I1
(tg19
I00
S'\xb4\xee\xbc\xba3\x8e\x1f@'
p321
tp322
bag3
(g4
(I0
tp323
g6
tp324
Rp325
(g28
I1
(tg32
I00
S'TDu\x19\xb8\x94\x1f@'
p326
tp327
bag3
(g4
(I0
tp328
g6
tp329
Rp330
(g41
I1
(tg45
I00
S',\xd9\x9c\x1bH;"@'
p331
tp332
bag3
(g4
(I0
tp333
g6
tp334
Rp335
(g54
I1
(tg58
I00
S'\x98!\r^\xd9v\x1d@'
p336
tp337
bag3
(g4
(I0
tp338
g6
tp339
Rp340
(g67
I1
(tg71
I00
S'\x81p\x83<\xcb\x16\x1e@'
p341
tp342
bag3
(g4
(I0
tp343
g6
tp344
Rp345
(g80
I1
(tg84
I00
S'3\x08\xa1j\xed\xa9\x1c@'
p346
tp347
bag3
(g4
(I0
tp348
g6
tp349
Rp350
(g93
I1
(tg97
I00
S'\xde\xfa^PG\x05"@'
p351
tp352
bag3
(g4
(I0
tp353
g6
tp354
Rp355
(g106
I1
(tg110
I00
S'*\xf2\x99\x94\x0f\x16"@'
p356
tp357
basS'mstar_rh'
p358
(lp359
g3
(g4
(I0
tp360
g6
tp361
Rp362
(g164
I1
(tg19
I00
S'\xa5\xaf\xcc+\x0b0\xb5A'
p363
tp364
bag3
(g4
(I0
tp365
g6
tp366
Rp367
(g194
I1
(tg32
I00
S'f\xd5\xfe\x9e\xcb\xed\xa0A'
p368
tp369
bag3
(g4
(I0
tp370
g6
tp371
Rp372
(g206
I1
(tg45
I00
S'<H\xee\x0b\xb0\x854B'
p373
tp374
bag3
(g4
(I0
tp375
g6
tp376
Rp377
(g218
I1
(tg58
I00
S'\xb1$\xf9\x06\xbf\xa7bA'
p378
tp379
bag3
(g4
(I0
tp380
g6
tp381
Rp382
(g230
I1
(tg71
I00
S';\x19\xd3\xa6~\xbf\x80A'
p383
tp384
bag3
(g4
(I0
tp385
g6
tp386
Rp387
(g242
I1
(tg84
I00
S'>\x15rO,\xac#A'
p388
tp389
bag3
(g4
(I0
tp390
g6
tp391
Rp392
(g254
I1
(tg97
I00
S'\x02\x1b\x04\xb9$`\x10B'
p393
tp394
bag3
(g4
(I0
tp395
g6
tp396
Rp397
(g266
I1
(tg110
I00
S'\xf5\x81\xaf\x14H:\x11B'
p398
tp399
basS'zstar3'
p400
(lp401
g3
(g4
(I0
tp402
g6
tp403
Rp404
(g13
I1
(tg19
I00
S'!\xc4o\x19-\xdbS?'
p405
tp406
bag3
(g4
(I0
tp407
g6
tp408
Rp409
(g28
I1
(tg32
I00
S'"\xd2\xfb\xdd\x02\x92V?'
p410
tp411
bag3
(g4
(I0
tp412
g6
tp413
Rp414
(g41
I1
(tg45
I00
S'#\x92|\xa2q\xa6\x96?'
p415
tp416
bag3
(g4
(I0
tp417
g6
tp418
Rp419
(g54
I1
(tg58
I00
S'\x85\xb0k\x8e\xde\x9c:?'
p420
tp421
bag3
(g4
(I0
tp422
g6
tp423
Rp424
(g67
I1
(tg71
I00
S"\x01\x1a'{\xc5\xb1C?"
p425
tp426
bag3
(g4
(I0
tp427
g6
tp428
Rp429
(g80
I1
(tg84
I00
S'\xa3J\xfc4\xfe\x011?'
p430
tp431
bag3
(g4
(I0
tp432
g6
tp433
Rp434
(g93
I1
(tg97
I00
S'4.\x16\xf7\x9e%\x8f?'
p435
tp436
bag3
(g4
(I0
tp437
g6
tp438
Rp439
(g106
I1
(tg110
I00
S'\x02\x94\xe2\x8d\xe6~\x91?'
p440
tp441
basS'feh'
p442
(lp443
g3
(g4
(I0
tp444
g6
tp445
Rp446
(g13
I1
(tg19
I00
S'Q~\x80-\xdc\x04\xf5\xbf'
p447
tp448
bag3
(g4
(I0
tp449
g6
tp450
Rp451
(g28
I1
(tg32
I00
S'\xbc\xbeh\xfa\xd1Q\xf5\xbf'
p452
tp453
bag3
(g4
(I0
tp454
g6
tp455
Rp456
(g41
I1
(tg45
I00
S'\x8d\xd6\x9f\x00)\x12\xa6\xbf'
p457
tp458
bag3
(g4
(I0
tp459
g6
tp460
Rp461
(g54
I1
(tg58
I00
S'\xb1bi\xf5\xdc\xe2\xfd\xbf'
p462
tp463
bag3
(g4
(I0
tp464
g6
tp465
Rp466
(g67
I1
(tg71
I00
S'\xfe\xf7\xb0\x9a\xdd\x19\xfa\xbf'
p467
tp468
bag3
(g4
(I0
tp469
g6
tp470
Rp471
(g80
I1
(tg84
I00
S'\x8d\x0b\xe78\x87\xc7\xff\xbf'
p472
tp473
bag3
(g4
(I0
tp474
g6
tp475
Rp476
(g93
I1
(tg97
I00
S'\x0f\x16\x86\x9c\xa1\x0b\xd4\xbf'
p477
tp478
bag3
(g4
(I0
tp479
g6
tp480
Rp481
(g106
I1
(tg110
I00
S'\xa5\xf3yT\xc0~\xc7\xbf'
p482
tp483
basS'zstar'
p484
(lp485
g3
(g4
(I0
tp486
g6
tp487
Rp488
(g13
I1
(tg19
I00
S'\x9f\x91 \x9a-XT?'
p489
tp490
bag3
(g4
(I0
tp491
g6
tp492
Rp493
(g28
I1
(tg32
I00
S't~\xd4\xa7\x96\xbbX?'
p494
tp495
bag3
(g4
(I0
tp496
g6
tp497
Rp498
(g41
I1
(tg45
I00
S'$V\xcd\xb5\xffs\x97?'
p499
tp500
bag3
(g4
(I0
tp501
g6
tp502
Rp503
(g54
I1
(tg58
I00
S'\x8b\x15\xc1\x7f\x1b9=?'
p504
tp505
bag3
(g4
(I0
tp506
g6
tp507
Rp508
(g67
I1
(tg71
I00
S'\xa4\xdb[\xf1B\xd1E?'
p509
tp510
bag3
(g4
(I0
tp511
g6
tp512
Rp513
(g80
I1
(tg84
I00
S'\xec\xea\xcag\x1bV2?'
p514
tp515
bag3
(g4
(I0
tp516
g6
tp517
Rp518
(g93
I1
(tg97
I00
S'\x0b\x08J\xef\xb9/\x8f?'
p519
tp520
bag3
(g4
(I0
tp521
g6
tp522
Rp523
(g106
I1
(tg110
I00
S'\xbf\xbbQ\x7f\xfb\x89\x91?'
p524
tp525
basS'mgas_tot'
p526
(lp527
g3
(g4
(I0
tp528
g6
tp529
Rp530
(g164
I1
(tg19
I00
S'\x13\xa8 \xcfj\xf6\x07B'
p531
tp532
bag3
(g4
(I0
tp533
g6
tp534
Rp535
(g194
I1
(tg32
I00
S'*J\x01*P\xa3\x03B'
p536
tp537
bag3
(g4
(I0
tp538
g6
tp539
Rp540
(g206
I1
(tg45
I00
S'9qW\t\xaf\xf7NB'
p541
tp542
bag3
(g4
(I0
tp543
g6
tp544
Rp545
(g218
I1
(tg58
I00
S'\x8c6O\xdc\xa0\xa1\xcbA'
p546
tp547
bag3
(g4
(I0
tp548
g6
tp549
Rp550
(g230
I1
(tg71
I00
S'`vA2\xa1U\xe2A'
p551
tp552
bag3
(g4
(I0
tp553
g6
tp554
Rp555
(g242
I1
(tg84
I00
S'\x89Fk;O\x91\xa2A'
p556
tp557
bag3
(g4
(I0
tp558
g6
tp559
Rp560
(g254
I1
(tg97
I00
S'\x11P\x98\xc2\xd1\x14-B'
p561
tp562
bag3
(g4
(I0
tp563
g6
tp564
Rp565
(g266
I1
(tg110
I00
S'\x95\xa8e\xe7\x94\xf91B'
p566
tp567
basS'rhalf'
p568
(lp569
g3
(g4
(I0
tp570
g6
tp571
Rp572
(g9
(g162
g11
Ntp573
Rp574
(dp575
g166
(lp576
g168
(g169
tp577
Rp578
asg172
F1.0
sg173
(lp579
g175
(S'kpc'
p580
Ng9
(g162
g11
Ntp581
Rp582
(dp583
g166
(lp584
I1
asg172
F1000.0
sg173
(lp585
g175
(S'pc'
p586
Ng9
(g162
g11
Ntp587
Rp588
(dp589
g166
(lp590
I1
asg172
F3.08568025e+16
sg173
(lp591
g175
(S'm'
p592
NNtp593
Rp594
asbtp595
Rp596
asbtp597
Rp598
asbI1
(tg19
I00
S'\xa8\xf7\xb1p\x18\x0f\x0f@'
p599
tp600
bag3
(g4
(I0
tp601
g6
tp602
Rp603
(g9
(g162
g11
Ntp604
Rp605
(dp606
g166
(lp607
g168
(g169
tp608
Rp609
asg172
F1.0
sg173
(lp610
g598
asbI1
(tg32
I00
S'8\x83\x8b\xc4.\x1e\x04@'
p611
tp612
bag3
(g4
(I0
tp613
g6
tp614
Rp615
(g9
(g162
g11
Ntp616
Rp617
(dp618
g166
(lp619
g168
(g169
tp620
Rp621
asg172
F1.0
sg173
(lp622
g598
asbI1
(tg45
I00
S'h:\xdb\xa1\xef\xb2\x0c@'
p623
tp624
bag3
(g4
(I0
tp625
g6
tp626
Rp627
(g9
(g162
g11
Ntp628
Rp629
(dp630
g166
(lp631
g168
(g169
tp632
Rp633
asg172
F1.0
sg173
(lp634
g598
asbI1
(tg58
I00
S'\xdc\xb1]\x0e\xd2\x8a\xf4?'
p635
tp636
bag3
(g4
(I0
tp637
g6
tp638
Rp639
(g9
(g162
g11
Ntp640
Rp641
(dp642
g166
(lp643
g168
(g169
tp644
Rp645
asg172
F1.0
sg173
(lp646
g598
asbI1
(tg71
I00
S'\x1d(:\x07\xb0.\x04@'
p647
tp648
bag3
(g4
(I0
tp649
g6
tp650
Rp651
(g9
(g162
g11
Ntp652
Rp653
(dp654
g166
(lp655
g168
(g169
tp656
Rp657
asg172
F1.0
sg173
(lp658
g598
asbI1
(tg84
I00
S'\x10\xf8\xccw\xcf\xfe\xd7?'
p659
tp660
bag3
(g4
(I0
tp661
g6
tp662
Rp663
(g9
(g162
g11
Ntp664
Rp665
(dp666
g166
(lp667
g168
(g169
tp668
Rp669
asg172
F1.0
sg173
(lp670
g598
asbI1
(tg97
I00
S'p\xf5\xd1\x88L\xc8\x03@'
p671
tp672
bag3
(g4
(I0
tp673
g6
tp674
Rp675
(g9
(g162
g11
Ntp676
Rp677
(dp678
g166
(lp679
g168
(g169
tp680
Rp681
asg172
F1.0
sg173
(lp682
g598
asbI1
(tg110
I00
S'\xa6G\xaf2\xb7T\x06@'
p683
tp684
basS'oh_gas_tot'
p685
(lp686
g3
(g4
(I0
tp687
g6
tp688
Rp689
(g13
I1
(tg19
I00
S'2h\xdf\x98\xc4\xec\x1e@'
p690
tp691
bag3
(g4
(I0
tp692
g6
tp693
Rp694
(g28
I1
(tg32
I00
S'B\xe97]x\x89\x1e@'
p695
tp696
bag3
(g4
(I0
tp697
g6
tp698
Rp699
(g41
I1
(tg45
I00
S'\x9e\xcciR\xd5\xcc @'
p700
tp701
bag3
(g4
(I0
tp702
g6
tp703
Rp704
(g54
I1
(tg58
I00
S'h\x1f\x1fl\xdf8\x1c@'
p705
tp706
bag3
(g4
(I0
tp707
g6
tp708
Rp709
(g67
I1
(tg71
I00
S'\xbfrm>(:\x1d@'
p710
tp711
bag3
(g4
(I0
tp712
g6
tp713
Rp714
(g80
I1
(tg84
I00
S'J\x00\xf8\xce<2\x1b@'
p715
tp716
bag3
(g4
(I0
tp717
g6
tp718
Rp719
(g93
I1
(tg97
I00
S'\x16\xae;\xf0&\xf3 @'
p720
tp721
bag3
(g4
(I0
tp722
g6
tp723
Rp724
(g106
I1
(tg110
I00
S'W\x17D\xe7\x99\xf9 @'
p725
tp726
basS'time'
p727
(lp728
F10.374171969283916
aF10.374171969283916
aF10.374171969283916
aF10.374171969283916
aF10.374171969283916
aF10.374176033994896
aF10.374171969283916
aF10.374171969283916
asS'mstar_tot'
p729
(lp730
g3
(g4
(I0
tp731
g6
tp732
Rp733
(g164
I1
(tg19
I00
S'\x81\x9fD\xcf}!\xc7A'
p734
tp735
bag3
(g4
(I0
tp736
g6
tp737
Rp738
(g194
I1
(tg32
I00
S'@]:\x89W\xcd\xbfA'
p739
tp740
bag3
(g4
(I0
tp741
g6
tp742
Rp743
(g206
I1
(tg45
I00
S'u-P\t\xc6wAB'
p744
tp745
bag3
(g4
(I0
tp746
g6
tp747
Rp748
(g218
I1
(tg58
I00
S'\x06\r\x86>\x8e\xe2yA'
p749
tp750
bag3
(g4
(I0
tp751
g6
tp752
Rp753
(g230
I1
(tg71
I00
S'T\xe7\xbeW\xe7\xd8\x98A'
p754
tp755
bag3
(g4
(I0
tp756
g6
tp757
Rp758
(g242
I1
(tg84
I00
S'\xa6\x10R\x94\x14\xd2@A'
p759
tp760
bag3
(g4
(I0
tp761
g6
tp762
Rp763
(g254
I1
(tg97
I00
S'#\x13\xce;"\xdc\x1dB'
p764
tp765
bag3
(g4
(I0
tp766
g6
tp767
Rp768
(g266
I1
(tg110
I00
S'\x88\xdd\x19\xd48\x01!B'
p769
tp770
basS'oh_gas'
p771
(lp772
g3
(g4
(I0
tp773
g6
tp774
Rp775
(g13
I1
(tg19
I00
S'>\xabl\x1c&\xa0\x1f@'
p776
tp777
bag3
(g4
(I0
tp778
g6
tp779
Rp780
(g28
I1
(tg32
I00
S'\xde\xb1\xcf\xe1m\xa5\x1f@'
p781
tp782
bag3
(g4
(I0
tp783
g6
tp784
Rp785
(g41
I1
(tg45
I00
S'\xe1\x85D\xc8\xe8\\"@'
p786
tp787
bag3
(g4
(I0
tp788
g6
tp789
Rp790
(g54
I1
(tg58
I00
S'\x8dq"C\x0f\x84\x1d@'
p791
tp792
bag3
(g4
(I0
tp793
g6
tp794
Rp795
(g67
I1
(tg71
I00
S'5\xd9\xa7\x86\xb7#\x1e@'
p796
tp797
bag3
(g4
(I0
tp798
g6
tp799
Rp800
(g80
I1
(tg84
I00
S'\xfaf\x82\xc6?\xaa\x1c@'
p801
tp802
bag3
(g4
(I0
tp803
g6
tp804
Rp805
(g93
I1
(tg97
I00
S'6\x1f\xfc\xc2\xc8\x1d"@'
p806
tp807
bag3
(g4
(I0
tp808
g6
tp809
Rp810
(g106
I1
(tg110
I00
S'\xae\x1a\xea\xb6\x18/"@'
p811
tp812
basS'z'
p813
(lp814
F0.2895219817258434
aF0.2895219817258434
aF0.2895219817258434
aF0.2895219817258434
aF0.2895219817258434
aF0.2895219817258434
aF0.2895219817258434
aF0.2895219817258434
asS'zstar2'
p815
(lp816
g3
(g4
(I0
tp817
g6
tp818
Rp819
(g13
I1
(tg19
I00
S'!\xc4o\x19-\xdbS?'
p820
tp821
bag3
(g4
(I0
tp822
g6
tp823
Rp824
(g28
I1
(tg32
I00
S'"\xd2\xfb\xdd\x02\x92V?'
p825
tp826
bag3
(g4
(I0
tp827
g6
tp828
Rp829
(g41
I1
(tg45
I00
S'#\x92|\xa2q\xa6\x96?'
p830
tp831
bag3
(g4
(I0
tp832
g6
tp833
Rp834
(g54
I1
(tg58
I00
S'\x85\xb0k\x8e\xde\x9c:?'
p835
tp836
bag3
(g4
(I0
tp837
g6
tp838
Rp839
(g67
I1
(tg71
I00
S"\x01\x1a'{\xc5\xb1C?"
p840
tp841
bag3
(g4
(I0
tp842
g6
tp843
Rp844
(g80
I1
(tg84
I00
S'\xa3J\xfc4\xfe\x011?'
p845
tp846
bag3
(g4
(I0
tp847
g6
tp848
Rp849
(g93
I1
(tg97
I00
S'4.\x16\xf7\x9e%\x8f?'
p850
tp851
bag3
(g4
(I0
tp852
g6
tp853
Rp854
(g106
I1
(tg110
I00
S'\x02\x94\xe2\x8d\xe6~\x91?'
p855
tp856
basS'mstar2'
p857
(lp858
g3
(g4
(I0
tp859
g6
tp860
Rp861
(g164
I1
(tg19
I00
S'\x9a\x1f\xf0hh\x89\xc2A'
p862
tp863
bag3
(g4
(I0
tp864
g6
tp865
Rp866
(g194
I1
(tg32
I00
S'\xb5\xcb#\x89r\x1e\xb4A'
p867
tp868
bag3
(g4
(I0
tp869
g6
tp870
Rp871
(g206
I1
(tg45
I00
S'\xe1}\xaf\xc7K\xb78B'
p872
tp873
bag3
(g4
(I0
tp874
g6
tp875
Rp876
(g218
I1
(tg58
I00
S'\xa3\xb5\xc0(\xc1\xa5rA'
p877
tp878
bag3
(g4
(I0
tp879
g6
tp880
Rp881
(g230
I1
(tg71
I00
S'"+[\x1aZ\xe3\x91A'
p882
tp883
bag3
(g4
(I0
tp884
g6
tp885
Rp886
(g242
I1
(tg84
I00
S'\xfa\xcb\xb5Q1!5A'
p887
tp888
bag3
(g4
(I0
tp889
g6
tp890
Rp891
(g254
I1
(tg97
I00
S'\xf7>\xd9C*W\x17B'
p892
tp893
bag3
(g4
(I0
tp894
g6
tp895
Rp896
(g266
I1
(tg110
I00
S'\xf8\xce4R\xa4\xc9\x19B'
p897
tp898
bas.